ARM GAS  C:\Users\ERICHO~1\AppData\Local\Temp\cc4ju9qe.s 			page 1


   1              		.syntax unified
   2              		.cpu cortex-m0
   3              		.fpu softvfp
   4              		.eabi_attribute 20, 1
   5              		.eabi_attribute 21, 1
   6              		.eabi_attribute 23, 3
   7              		.eabi_attribute 24, 1
   8              		.eabi_attribute 25, 1
   9              		.eabi_attribute 26, 1
  10              		.eabi_attribute 30, 1
  11              		.eabi_attribute 34, 0
  12              		.eabi_attribute 18, 4
  13              		.thumb
  14              		.syntax unified
  15              		.file	"A2D_rdy.c"
  16              		.text
  17              	.Ltext0:
  18              		.cfi_sections	.debug_frame
  19              		.section	.text.A2D_rdy_SetVector,"ax",%progbits
  20              		.align	2
  21              		.global	A2D_rdy_SetVector
  22              		.code	16
  23              		.thumb_func
  24              		.type	A2D_rdy_SetVector, %function
  25              	A2D_rdy_SetVector:
  26              	.LFB5:
  27              		.file 1 "Generated_Source\\PSoC4\\A2D_rdy.c"
   1:Generated_Source\PSoC4/A2D_rdy.c **** /*******************************************************************************
   2:Generated_Source\PSoC4/A2D_rdy.c **** * File Name: A2D_rdy.c  
   3:Generated_Source\PSoC4/A2D_rdy.c **** * Version 1.70
   4:Generated_Source\PSoC4/A2D_rdy.c **** *
   5:Generated_Source\PSoC4/A2D_rdy.c **** *  Description:
   6:Generated_Source\PSoC4/A2D_rdy.c **** *   API for controlling the state of an interrupt.
   7:Generated_Source\PSoC4/A2D_rdy.c **** *
   8:Generated_Source\PSoC4/A2D_rdy.c **** *
   9:Generated_Source\PSoC4/A2D_rdy.c **** *  Note:
  10:Generated_Source\PSoC4/A2D_rdy.c **** *
  11:Generated_Source\PSoC4/A2D_rdy.c **** ********************************************************************************
  12:Generated_Source\PSoC4/A2D_rdy.c **** * Copyright 2008-2015, Cypress Semiconductor Corporation.  All rights reserved.
  13:Generated_Source\PSoC4/A2D_rdy.c **** * You may use this file only in accordance with the license, terms, conditions, 
  14:Generated_Source\PSoC4/A2D_rdy.c **** * disclaimers, and limitations in the end user license agreement accompanying 
  15:Generated_Source\PSoC4/A2D_rdy.c **** * the software package with which this file was provided.
  16:Generated_Source\PSoC4/A2D_rdy.c **** *******************************************************************************/
  17:Generated_Source\PSoC4/A2D_rdy.c **** 
  18:Generated_Source\PSoC4/A2D_rdy.c **** 
  19:Generated_Source\PSoC4/A2D_rdy.c **** #include <cydevice_trm.h>
  20:Generated_Source\PSoC4/A2D_rdy.c **** #include <CyLib.h>
  21:Generated_Source\PSoC4/A2D_rdy.c **** #include <A2D_rdy.h>
  22:Generated_Source\PSoC4/A2D_rdy.c **** #include "cyapicallbacks.h"
  23:Generated_Source\PSoC4/A2D_rdy.c **** 
  24:Generated_Source\PSoC4/A2D_rdy.c **** #if !defined(A2D_rdy__REMOVED) /* Check for removal by optimization */
  25:Generated_Source\PSoC4/A2D_rdy.c **** 
  26:Generated_Source\PSoC4/A2D_rdy.c **** /*******************************************************************************
  27:Generated_Source\PSoC4/A2D_rdy.c **** *  Place your includes, defines and code here 
  28:Generated_Source\PSoC4/A2D_rdy.c **** ********************************************************************************/
  29:Generated_Source\PSoC4/A2D_rdy.c **** /* `#START A2D_rdy_intc` */
  30:Generated_Source\PSoC4/A2D_rdy.c ****     #include "main.h"
ARM GAS  C:\Users\ERICHO~1\AppData\Local\Temp\cc4ju9qe.s 			page 2


  31:Generated_Source\PSoC4/A2D_rdy.c ****     #include "A2D.h"
  32:Generated_Source\PSoC4/A2D_rdy.c **** /* `#END` */
  33:Generated_Source\PSoC4/A2D_rdy.c **** 
  34:Generated_Source\PSoC4/A2D_rdy.c **** extern cyisraddress CyRamVectors[CYINT_IRQ_BASE + CY_NUM_INTERRUPTS];
  35:Generated_Source\PSoC4/A2D_rdy.c **** 
  36:Generated_Source\PSoC4/A2D_rdy.c **** /* Declared in startup, used to set unused interrupts to. */
  37:Generated_Source\PSoC4/A2D_rdy.c **** CY_ISR_PROTO(IntDefaultHandler);
  38:Generated_Source\PSoC4/A2D_rdy.c **** 
  39:Generated_Source\PSoC4/A2D_rdy.c **** 
  40:Generated_Source\PSoC4/A2D_rdy.c **** /*******************************************************************************
  41:Generated_Source\PSoC4/A2D_rdy.c **** * Function Name: A2D_rdy_Start
  42:Generated_Source\PSoC4/A2D_rdy.c **** ********************************************************************************
  43:Generated_Source\PSoC4/A2D_rdy.c **** *
  44:Generated_Source\PSoC4/A2D_rdy.c **** * Summary:
  45:Generated_Source\PSoC4/A2D_rdy.c **** *  Set up the interrupt and enable it. This function disables the interrupt, 
  46:Generated_Source\PSoC4/A2D_rdy.c **** *  sets the default interrupt vector, sets the priority from the value in the
  47:Generated_Source\PSoC4/A2D_rdy.c **** *  Design Wide Resources Interrupt Editor, then enables the interrupt to the 
  48:Generated_Source\PSoC4/A2D_rdy.c **** *  interrupt controller.
  49:Generated_Source\PSoC4/A2D_rdy.c **** *
  50:Generated_Source\PSoC4/A2D_rdy.c **** * Parameters:  
  51:Generated_Source\PSoC4/A2D_rdy.c **** *   None
  52:Generated_Source\PSoC4/A2D_rdy.c **** *
  53:Generated_Source\PSoC4/A2D_rdy.c **** * Return:
  54:Generated_Source\PSoC4/A2D_rdy.c **** *   None
  55:Generated_Source\PSoC4/A2D_rdy.c **** *
  56:Generated_Source\PSoC4/A2D_rdy.c **** *******************************************************************************/
  57:Generated_Source\PSoC4/A2D_rdy.c **** void A2D_rdy_Start(void)
  58:Generated_Source\PSoC4/A2D_rdy.c **** {
  59:Generated_Source\PSoC4/A2D_rdy.c ****     /* For all we know the interrupt is active. */
  60:Generated_Source\PSoC4/A2D_rdy.c ****     A2D_rdy_Disable();
  61:Generated_Source\PSoC4/A2D_rdy.c **** 
  62:Generated_Source\PSoC4/A2D_rdy.c ****     /* Set the ISR to point to the A2D_rdy Interrupt. */
  63:Generated_Source\PSoC4/A2D_rdy.c ****     A2D_rdy_SetVector(&A2D_rdy_Interrupt);
  64:Generated_Source\PSoC4/A2D_rdy.c **** 
  65:Generated_Source\PSoC4/A2D_rdy.c ****     /* Set the priority. */
  66:Generated_Source\PSoC4/A2D_rdy.c ****     A2D_rdy_SetPriority((uint8)A2D_rdy_INTC_PRIOR_NUMBER);
  67:Generated_Source\PSoC4/A2D_rdy.c **** 
  68:Generated_Source\PSoC4/A2D_rdy.c ****     /* Enable it. */
  69:Generated_Source\PSoC4/A2D_rdy.c ****     A2D_rdy_Enable();
  70:Generated_Source\PSoC4/A2D_rdy.c **** }
  71:Generated_Source\PSoC4/A2D_rdy.c **** 
  72:Generated_Source\PSoC4/A2D_rdy.c **** 
  73:Generated_Source\PSoC4/A2D_rdy.c **** /*******************************************************************************
  74:Generated_Source\PSoC4/A2D_rdy.c **** * Function Name: A2D_rdy_StartEx
  75:Generated_Source\PSoC4/A2D_rdy.c **** ********************************************************************************
  76:Generated_Source\PSoC4/A2D_rdy.c **** *
  77:Generated_Source\PSoC4/A2D_rdy.c **** * Summary:
  78:Generated_Source\PSoC4/A2D_rdy.c **** *  Sets up the interrupt and enables it. This function disables the interrupt,
  79:Generated_Source\PSoC4/A2D_rdy.c **** *  sets the interrupt vector based on the address passed in, sets the priority 
  80:Generated_Source\PSoC4/A2D_rdy.c **** *  from the value in the Design Wide Resources Interrupt Editor, then enables 
  81:Generated_Source\PSoC4/A2D_rdy.c **** *  the interrupt to the interrupt controller.
  82:Generated_Source\PSoC4/A2D_rdy.c **** *  
  83:Generated_Source\PSoC4/A2D_rdy.c **** *  When defining ISR functions, the CY_ISR and CY_ISR_PROTO macros should be 
  84:Generated_Source\PSoC4/A2D_rdy.c **** *  used to provide consistent definition across compilers:
  85:Generated_Source\PSoC4/A2D_rdy.c **** *  
  86:Generated_Source\PSoC4/A2D_rdy.c **** *  Function definition example:
  87:Generated_Source\PSoC4/A2D_rdy.c **** *   CY_ISR(MyISR)
ARM GAS  C:\Users\ERICHO~1\AppData\Local\Temp\cc4ju9qe.s 			page 3


  88:Generated_Source\PSoC4/A2D_rdy.c **** *   {
  89:Generated_Source\PSoC4/A2D_rdy.c **** *   }
  90:Generated_Source\PSoC4/A2D_rdy.c **** *   Function prototype example:
  91:Generated_Source\PSoC4/A2D_rdy.c **** *   CY_ISR_PROTO(MyISR);
  92:Generated_Source\PSoC4/A2D_rdy.c **** *
  93:Generated_Source\PSoC4/A2D_rdy.c **** * Parameters:  
  94:Generated_Source\PSoC4/A2D_rdy.c **** *   address: Address of the ISR to set in the interrupt vector table.
  95:Generated_Source\PSoC4/A2D_rdy.c **** *
  96:Generated_Source\PSoC4/A2D_rdy.c **** * Return:
  97:Generated_Source\PSoC4/A2D_rdy.c **** *   None
  98:Generated_Source\PSoC4/A2D_rdy.c **** *
  99:Generated_Source\PSoC4/A2D_rdy.c **** *******************************************************************************/
 100:Generated_Source\PSoC4/A2D_rdy.c **** void A2D_rdy_StartEx(cyisraddress address)
 101:Generated_Source\PSoC4/A2D_rdy.c **** {
 102:Generated_Source\PSoC4/A2D_rdy.c ****     /* For all we know the interrupt is active. */
 103:Generated_Source\PSoC4/A2D_rdy.c ****     A2D_rdy_Disable();
 104:Generated_Source\PSoC4/A2D_rdy.c **** 
 105:Generated_Source\PSoC4/A2D_rdy.c ****     /* Set the ISR to point to the A2D_rdy Interrupt. */
 106:Generated_Source\PSoC4/A2D_rdy.c ****     A2D_rdy_SetVector(address);
 107:Generated_Source\PSoC4/A2D_rdy.c **** 
 108:Generated_Source\PSoC4/A2D_rdy.c ****     /* Set the priority. */
 109:Generated_Source\PSoC4/A2D_rdy.c ****     A2D_rdy_SetPriority((uint8)A2D_rdy_INTC_PRIOR_NUMBER);
 110:Generated_Source\PSoC4/A2D_rdy.c **** 
 111:Generated_Source\PSoC4/A2D_rdy.c ****     /* Enable it. */
 112:Generated_Source\PSoC4/A2D_rdy.c ****     A2D_rdy_Enable();
 113:Generated_Source\PSoC4/A2D_rdy.c **** }
 114:Generated_Source\PSoC4/A2D_rdy.c **** 
 115:Generated_Source\PSoC4/A2D_rdy.c **** 
 116:Generated_Source\PSoC4/A2D_rdy.c **** /*******************************************************************************
 117:Generated_Source\PSoC4/A2D_rdy.c **** * Function Name: A2D_rdy_Stop
 118:Generated_Source\PSoC4/A2D_rdy.c **** ********************************************************************************
 119:Generated_Source\PSoC4/A2D_rdy.c **** *
 120:Generated_Source\PSoC4/A2D_rdy.c **** * Summary:
 121:Generated_Source\PSoC4/A2D_rdy.c **** *   Disables and removes the interrupt.
 122:Generated_Source\PSoC4/A2D_rdy.c **** *
 123:Generated_Source\PSoC4/A2D_rdy.c **** * Parameters:  
 124:Generated_Source\PSoC4/A2D_rdy.c **** *   None
 125:Generated_Source\PSoC4/A2D_rdy.c **** *
 126:Generated_Source\PSoC4/A2D_rdy.c **** * Return:
 127:Generated_Source\PSoC4/A2D_rdy.c **** *   None
 128:Generated_Source\PSoC4/A2D_rdy.c **** *
 129:Generated_Source\PSoC4/A2D_rdy.c **** *******************************************************************************/
 130:Generated_Source\PSoC4/A2D_rdy.c **** void A2D_rdy_Stop(void)
 131:Generated_Source\PSoC4/A2D_rdy.c **** {
 132:Generated_Source\PSoC4/A2D_rdy.c ****     /* Disable this interrupt. */
 133:Generated_Source\PSoC4/A2D_rdy.c ****     A2D_rdy_Disable();
 134:Generated_Source\PSoC4/A2D_rdy.c **** 
 135:Generated_Source\PSoC4/A2D_rdy.c ****     /* Set the ISR to point to the passive one. */
 136:Generated_Source\PSoC4/A2D_rdy.c ****     A2D_rdy_SetVector(&IntDefaultHandler);
 137:Generated_Source\PSoC4/A2D_rdy.c **** }
 138:Generated_Source\PSoC4/A2D_rdy.c **** 
 139:Generated_Source\PSoC4/A2D_rdy.c **** 
 140:Generated_Source\PSoC4/A2D_rdy.c **** /*******************************************************************************
 141:Generated_Source\PSoC4/A2D_rdy.c **** * Function Name: A2D_rdy_Interrupt
 142:Generated_Source\PSoC4/A2D_rdy.c **** ********************************************************************************
 143:Generated_Source\PSoC4/A2D_rdy.c **** *
 144:Generated_Source\PSoC4/A2D_rdy.c **** * Summary:
ARM GAS  C:\Users\ERICHO~1\AppData\Local\Temp\cc4ju9qe.s 			page 4


 145:Generated_Source\PSoC4/A2D_rdy.c **** *   The default Interrupt Service Routine for A2D_rdy.
 146:Generated_Source\PSoC4/A2D_rdy.c **** *
 147:Generated_Source\PSoC4/A2D_rdy.c **** *   Add custom code between the START and END comments to keep the next version
 148:Generated_Source\PSoC4/A2D_rdy.c **** *   of this file from over-writing your code.
 149:Generated_Source\PSoC4/A2D_rdy.c **** *
 150:Generated_Source\PSoC4/A2D_rdy.c **** *   Note You may use either the default ISR by using this API, or you may define
 151:Generated_Source\PSoC4/A2D_rdy.c **** *   your own separate ISR through ISR_StartEx().
 152:Generated_Source\PSoC4/A2D_rdy.c **** *
 153:Generated_Source\PSoC4/A2D_rdy.c **** * Parameters:  
 154:Generated_Source\PSoC4/A2D_rdy.c **** *   None
 155:Generated_Source\PSoC4/A2D_rdy.c **** *
 156:Generated_Source\PSoC4/A2D_rdy.c **** * Return:
 157:Generated_Source\PSoC4/A2D_rdy.c **** *   None
 158:Generated_Source\PSoC4/A2D_rdy.c **** *
 159:Generated_Source\PSoC4/A2D_rdy.c **** *******************************************************************************/
 160:Generated_Source\PSoC4/A2D_rdy.c **** CY_ISR(A2D_rdy_Interrupt)
 161:Generated_Source\PSoC4/A2D_rdy.c **** {
 162:Generated_Source\PSoC4/A2D_rdy.c ****     #ifdef A2D_rdy_INTERRUPT_INTERRUPT_CALLBACK
 163:Generated_Source\PSoC4/A2D_rdy.c ****         A2D_rdy_Interrupt_InterruptCallback();
 164:Generated_Source\PSoC4/A2D_rdy.c ****     #endif /* A2D_rdy_INTERRUPT_INTERRUPT_CALLBACK */ 
 165:Generated_Source\PSoC4/A2D_rdy.c **** 
 166:Generated_Source\PSoC4/A2D_rdy.c ****     /*  Place your Interrupt code here. */
 167:Generated_Source\PSoC4/A2D_rdy.c ****     /* `#START A2D_rdy_Interrupt` */
 168:Generated_Source\PSoC4/A2D_rdy.c ****     ESC_curr = A2D_GetResult16(0x00);
 169:Generated_Source\PSoC4/A2D_rdy.c ****     Batt_volt = A2D_GetResult16(0x01);
 170:Generated_Source\PSoC4/A2D_rdy.c ****     Max_Lidar = A2D_GetResult16(0x02);
 171:Generated_Source\PSoC4/A2D_rdy.c ****     Init_heading = A2D_GetResult16(0x03);
 172:Generated_Source\PSoC4/A2D_rdy.c ****     A2D_rdy_ClearPending();
 173:Generated_Source\PSoC4/A2D_rdy.c ****     enqueue_task(A2D_RDY,2);
 174:Generated_Source\PSoC4/A2D_rdy.c ****     /* `#END` */
 175:Generated_Source\PSoC4/A2D_rdy.c **** }
 176:Generated_Source\PSoC4/A2D_rdy.c **** 
 177:Generated_Source\PSoC4/A2D_rdy.c **** 
 178:Generated_Source\PSoC4/A2D_rdy.c **** /*******************************************************************************
 179:Generated_Source\PSoC4/A2D_rdy.c **** * Function Name: A2D_rdy_SetVector
 180:Generated_Source\PSoC4/A2D_rdy.c **** ********************************************************************************
 181:Generated_Source\PSoC4/A2D_rdy.c **** *
 182:Generated_Source\PSoC4/A2D_rdy.c **** * Summary:
 183:Generated_Source\PSoC4/A2D_rdy.c **** *   Change the ISR vector for the Interrupt. Note calling A2D_rdy_Start
 184:Generated_Source\PSoC4/A2D_rdy.c **** *   will override any effect this method would have had. To set the vector 
 185:Generated_Source\PSoC4/A2D_rdy.c **** *   before the component has been started use A2D_rdy_StartEx instead.
 186:Generated_Source\PSoC4/A2D_rdy.c **** * 
 187:Generated_Source\PSoC4/A2D_rdy.c **** *   When defining ISR functions, the CY_ISR and CY_ISR_PROTO macros should be 
 188:Generated_Source\PSoC4/A2D_rdy.c **** *   used to provide consistent definition across compilers:
 189:Generated_Source\PSoC4/A2D_rdy.c **** *
 190:Generated_Source\PSoC4/A2D_rdy.c **** *   Function definition example:
 191:Generated_Source\PSoC4/A2D_rdy.c **** *   CY_ISR(MyISR)
 192:Generated_Source\PSoC4/A2D_rdy.c **** *   {
 193:Generated_Source\PSoC4/A2D_rdy.c **** *   }
 194:Generated_Source\PSoC4/A2D_rdy.c **** *
 195:Generated_Source\PSoC4/A2D_rdy.c **** *   Function prototype example:
 196:Generated_Source\PSoC4/A2D_rdy.c **** *     CY_ISR_PROTO(MyISR);
 197:Generated_Source\PSoC4/A2D_rdy.c **** *
 198:Generated_Source\PSoC4/A2D_rdy.c **** * Parameters:
 199:Generated_Source\PSoC4/A2D_rdy.c **** *   address: Address of the ISR to set in the interrupt vector table.
 200:Generated_Source\PSoC4/A2D_rdy.c **** *
 201:Generated_Source\PSoC4/A2D_rdy.c **** * Return:
ARM GAS  C:\Users\ERICHO~1\AppData\Local\Temp\cc4ju9qe.s 			page 5


 202:Generated_Source\PSoC4/A2D_rdy.c **** *   None
 203:Generated_Source\PSoC4/A2D_rdy.c **** *
 204:Generated_Source\PSoC4/A2D_rdy.c **** *******************************************************************************/
 205:Generated_Source\PSoC4/A2D_rdy.c **** void A2D_rdy_SetVector(cyisraddress address)
 206:Generated_Source\PSoC4/A2D_rdy.c **** {
  28              		.loc 1 206 0
  29              		.cfi_startproc
  30              		@ args = 0, pretend = 0, frame = 0
  31              		@ frame_needed = 0, uses_anonymous_args = 0
  32              		@ link register save eliminated.
  33              	.LVL0:
 207:Generated_Source\PSoC4/A2D_rdy.c ****     CyRamVectors[CYINT_IRQ_BASE + A2D_rdy__INTC_NUMBER] = address;
  34              		.loc 1 207 0
  35 0000 014B     		ldr	r3, .L2
  36 0002 1864     		str	r0, [r3, #64]
 208:Generated_Source\PSoC4/A2D_rdy.c **** }
  37              		.loc 1 208 0
  38              		@ sp needed
  39 0004 7047     		bx	lr
  40              	.L3:
  41 0006 C046     		.align	2
  42              	.L2:
  43 0008 00000000 		.word	CyRamVectors
  44              		.cfi_endproc
  45              	.LFE5:
  46              		.size	A2D_rdy_SetVector, .-A2D_rdy_SetVector
  47              		.section	.text.A2D_rdy_GetVector,"ax",%progbits
  48              		.align	2
  49              		.global	A2D_rdy_GetVector
  50              		.code	16
  51              		.thumb_func
  52              		.type	A2D_rdy_GetVector, %function
  53              	A2D_rdy_GetVector:
  54              	.LFB6:
 209:Generated_Source\PSoC4/A2D_rdy.c **** 
 210:Generated_Source\PSoC4/A2D_rdy.c **** 
 211:Generated_Source\PSoC4/A2D_rdy.c **** /*******************************************************************************
 212:Generated_Source\PSoC4/A2D_rdy.c **** * Function Name: A2D_rdy_GetVector
 213:Generated_Source\PSoC4/A2D_rdy.c **** ********************************************************************************
 214:Generated_Source\PSoC4/A2D_rdy.c **** *
 215:Generated_Source\PSoC4/A2D_rdy.c **** * Summary:
 216:Generated_Source\PSoC4/A2D_rdy.c **** *   Gets the "address" of the current ISR vector for the Interrupt.
 217:Generated_Source\PSoC4/A2D_rdy.c **** *
 218:Generated_Source\PSoC4/A2D_rdy.c **** * Parameters:
 219:Generated_Source\PSoC4/A2D_rdy.c **** *   None
 220:Generated_Source\PSoC4/A2D_rdy.c **** *
 221:Generated_Source\PSoC4/A2D_rdy.c **** * Return:
 222:Generated_Source\PSoC4/A2D_rdy.c **** *   Address of the ISR in the interrupt vector table.
 223:Generated_Source\PSoC4/A2D_rdy.c **** *
 224:Generated_Source\PSoC4/A2D_rdy.c **** *******************************************************************************/
 225:Generated_Source\PSoC4/A2D_rdy.c **** cyisraddress A2D_rdy_GetVector(void)
 226:Generated_Source\PSoC4/A2D_rdy.c **** {
  55              		.loc 1 226 0
  56              		.cfi_startproc
  57              		@ args = 0, pretend = 0, frame = 0
  58              		@ frame_needed = 0, uses_anonymous_args = 0
  59              		@ link register save eliminated.
ARM GAS  C:\Users\ERICHO~1\AppData\Local\Temp\cc4ju9qe.s 			page 6


 227:Generated_Source\PSoC4/A2D_rdy.c ****     return CyRamVectors[CYINT_IRQ_BASE + A2D_rdy__INTC_NUMBER];
  60              		.loc 1 227 0
  61 0000 014B     		ldr	r3, .L5
  62 0002 186C     		ldr	r0, [r3, #64]
 228:Generated_Source\PSoC4/A2D_rdy.c **** }
  63              		.loc 1 228 0
  64              		@ sp needed
  65 0004 7047     		bx	lr
  66              	.L6:
  67 0006 C046     		.align	2
  68              	.L5:
  69 0008 00000000 		.word	CyRamVectors
  70              		.cfi_endproc
  71              	.LFE6:
  72              		.size	A2D_rdy_GetVector, .-A2D_rdy_GetVector
  73              		.section	.text.A2D_rdy_SetPriority,"ax",%progbits
  74              		.align	2
  75              		.global	A2D_rdy_SetPriority
  76              		.code	16
  77              		.thumb_func
  78              		.type	A2D_rdy_SetPriority, %function
  79              	A2D_rdy_SetPriority:
  80              	.LFB7:
 229:Generated_Source\PSoC4/A2D_rdy.c **** 
 230:Generated_Source\PSoC4/A2D_rdy.c **** 
 231:Generated_Source\PSoC4/A2D_rdy.c **** /*******************************************************************************
 232:Generated_Source\PSoC4/A2D_rdy.c **** * Function Name: A2D_rdy_SetPriority
 233:Generated_Source\PSoC4/A2D_rdy.c **** ********************************************************************************
 234:Generated_Source\PSoC4/A2D_rdy.c **** *
 235:Generated_Source\PSoC4/A2D_rdy.c **** * Summary:
 236:Generated_Source\PSoC4/A2D_rdy.c **** *   Sets the Priority of the Interrupt. 
 237:Generated_Source\PSoC4/A2D_rdy.c **** *
 238:Generated_Source\PSoC4/A2D_rdy.c **** *   Note calling A2D_rdy_Start or A2D_rdy_StartEx will 
 239:Generated_Source\PSoC4/A2D_rdy.c **** *   override any effect this API would have had. This API should only be called
 240:Generated_Source\PSoC4/A2D_rdy.c **** *   after A2D_rdy_Start or A2D_rdy_StartEx has been called. 
 241:Generated_Source\PSoC4/A2D_rdy.c **** *   To set the initial priority for the component, use the Design-Wide Resources
 242:Generated_Source\PSoC4/A2D_rdy.c **** *   Interrupt Editor.
 243:Generated_Source\PSoC4/A2D_rdy.c **** *
 244:Generated_Source\PSoC4/A2D_rdy.c **** *   Note This API has no effect on Non-maskable interrupt NMI).
 245:Generated_Source\PSoC4/A2D_rdy.c **** *
 246:Generated_Source\PSoC4/A2D_rdy.c **** * Parameters:
 247:Generated_Source\PSoC4/A2D_rdy.c **** *   priority: Priority of the interrupt, 0 being the highest priority
 248:Generated_Source\PSoC4/A2D_rdy.c **** *             PSoC 3 and PSoC 5LP: Priority is from 0 to 7.
 249:Generated_Source\PSoC4/A2D_rdy.c **** *             PSoC 4: Priority is from 0 to 3.
 250:Generated_Source\PSoC4/A2D_rdy.c **** *
 251:Generated_Source\PSoC4/A2D_rdy.c **** * Return:
 252:Generated_Source\PSoC4/A2D_rdy.c **** *   None
 253:Generated_Source\PSoC4/A2D_rdy.c **** *
 254:Generated_Source\PSoC4/A2D_rdy.c **** *******************************************************************************/
 255:Generated_Source\PSoC4/A2D_rdy.c **** void A2D_rdy_SetPriority(uint8 priority)
 256:Generated_Source\PSoC4/A2D_rdy.c **** {
  81              		.loc 1 256 0
  82              		.cfi_startproc
  83              		@ args = 0, pretend = 0, frame = 0
  84              		@ frame_needed = 0, uses_anonymous_args = 0
  85              	.LVL1:
  86 0000 10B5     		push	{r4, lr}
ARM GAS  C:\Users\ERICHO~1\AppData\Local\Temp\cc4ju9qe.s 			page 7


  87              		.cfi_def_cfa_offset 8
  88              		.cfi_offset 4, -8
  89              		.cfi_offset 14, -4
  90 0002 0400     		movs	r4, r0
  91              	.LVL2:
 257:Generated_Source\PSoC4/A2D_rdy.c **** 	uint8 interruptState;
 258:Generated_Source\PSoC4/A2D_rdy.c ****     uint32 priorityOffset = ((A2D_rdy__INTC_NUMBER % 4u) * 8u) + 6u;
 259:Generated_Source\PSoC4/A2D_rdy.c ****     
 260:Generated_Source\PSoC4/A2D_rdy.c **** 	interruptState = CyEnterCriticalSection();
  92              		.loc 1 260 0
  93 0004 FFF7FEFF 		bl	CyEnterCriticalSection
  94              	.LVL3:
 261:Generated_Source\PSoC4/A2D_rdy.c ****     *A2D_rdy_INTC_PRIOR = (*A2D_rdy_INTC_PRIOR & (uint32)(~A2D_rdy__INTC_PRIOR_MASK)) |
  95              		.loc 1 261 0
  96 0008 044A     		ldr	r2, .L8
  97 000a 1368     		ldr	r3, [r2]
  98 000c C021     		movs	r1, #192
  99 000e 8B43     		bics	r3, r1
 262:Generated_Source\PSoC4/A2D_rdy.c ****                                     ((uint32)priority << priorityOffset);
 100              		.loc 1 262 0
 101 0010 A401     		lsls	r4, r4, #6
 261:Generated_Source\PSoC4/A2D_rdy.c ****     *A2D_rdy_INTC_PRIOR = (*A2D_rdy_INTC_PRIOR & (uint32)(~A2D_rdy__INTC_PRIOR_MASK)) |
 102              		.loc 1 261 0
 103 0012 1C43     		orrs	r4, r3
 104 0014 1460     		str	r4, [r2]
 263:Generated_Source\PSoC4/A2D_rdy.c **** 	CyExitCriticalSection(interruptState);
 105              		.loc 1 263 0
 106 0016 FFF7FEFF 		bl	CyExitCriticalSection
 107              	.LVL4:
 264:Generated_Source\PSoC4/A2D_rdy.c **** }
 108              		.loc 1 264 0
 109              		@ sp needed
 110 001a 10BD     		pop	{r4, pc}
 111              	.L9:
 112              		.align	2
 113              	.L8:
 114 001c 00E400E0 		.word	-536812544
 115              		.cfi_endproc
 116              	.LFE7:
 117              		.size	A2D_rdy_SetPriority, .-A2D_rdy_SetPriority
 118              		.section	.text.A2D_rdy_GetPriority,"ax",%progbits
 119              		.align	2
 120              		.global	A2D_rdy_GetPriority
 121              		.code	16
 122              		.thumb_func
 123              		.type	A2D_rdy_GetPriority, %function
 124              	A2D_rdy_GetPriority:
 125              	.LFB8:
 265:Generated_Source\PSoC4/A2D_rdy.c **** 
 266:Generated_Source\PSoC4/A2D_rdy.c **** 
 267:Generated_Source\PSoC4/A2D_rdy.c **** /*******************************************************************************
 268:Generated_Source\PSoC4/A2D_rdy.c **** * Function Name: A2D_rdy_GetPriority
 269:Generated_Source\PSoC4/A2D_rdy.c **** ********************************************************************************
 270:Generated_Source\PSoC4/A2D_rdy.c **** *
 271:Generated_Source\PSoC4/A2D_rdy.c **** * Summary:
 272:Generated_Source\PSoC4/A2D_rdy.c **** *   Gets the Priority of the Interrupt.
 273:Generated_Source\PSoC4/A2D_rdy.c **** *
ARM GAS  C:\Users\ERICHO~1\AppData\Local\Temp\cc4ju9qe.s 			page 8


 274:Generated_Source\PSoC4/A2D_rdy.c **** * Parameters:
 275:Generated_Source\PSoC4/A2D_rdy.c **** *   None
 276:Generated_Source\PSoC4/A2D_rdy.c **** *
 277:Generated_Source\PSoC4/A2D_rdy.c **** * Return:
 278:Generated_Source\PSoC4/A2D_rdy.c **** *   Priority of the interrupt, 0 being the highest priority
 279:Generated_Source\PSoC4/A2D_rdy.c **** *    PSoC 3 and PSoC 5LP: Priority is from 0 to 7.
 280:Generated_Source\PSoC4/A2D_rdy.c **** *    PSoC 4: Priority is from 0 to 3.
 281:Generated_Source\PSoC4/A2D_rdy.c **** *
 282:Generated_Source\PSoC4/A2D_rdy.c **** *******************************************************************************/
 283:Generated_Source\PSoC4/A2D_rdy.c **** uint8 A2D_rdy_GetPriority(void)
 284:Generated_Source\PSoC4/A2D_rdy.c **** {
 126              		.loc 1 284 0
 127              		.cfi_startproc
 128              		@ args = 0, pretend = 0, frame = 0
 129              		@ frame_needed = 0, uses_anonymous_args = 0
 130              		@ link register save eliminated.
 131              	.LVL5:
 285:Generated_Source\PSoC4/A2D_rdy.c ****     uint32 priority;
 286:Generated_Source\PSoC4/A2D_rdy.c **** 	uint32 priorityOffset = ((A2D_rdy__INTC_NUMBER % 4u) * 8u) + 6u;
 287:Generated_Source\PSoC4/A2D_rdy.c **** 
 288:Generated_Source\PSoC4/A2D_rdy.c ****     priority = (*A2D_rdy_INTC_PRIOR & A2D_rdy__INTC_PRIOR_MASK) >> priorityOffset;
 132              		.loc 1 288 0
 133 0000 024B     		ldr	r3, .L11
 134 0002 1868     		ldr	r0, [r3]
 135 0004 8009     		lsrs	r0, r0, #6
 136              	.LVL6:
 289:Generated_Source\PSoC4/A2D_rdy.c **** 
 290:Generated_Source\PSoC4/A2D_rdy.c ****     return (uint8)priority;
 137              		.loc 1 290 0
 138 0006 0323     		movs	r3, #3
 139 0008 1840     		ands	r0, r3
 140              	.LVL7:
 291:Generated_Source\PSoC4/A2D_rdy.c **** }
 141              		.loc 1 291 0
 142              		@ sp needed
 143 000a 7047     		bx	lr
 144              	.L12:
 145              		.align	2
 146              	.L11:
 147 000c 00E400E0 		.word	-536812544
 148              		.cfi_endproc
 149              	.LFE8:
 150              		.size	A2D_rdy_GetPriority, .-A2D_rdy_GetPriority
 151              		.section	.text.A2D_rdy_Enable,"ax",%progbits
 152              		.align	2
 153              		.global	A2D_rdy_Enable
 154              		.code	16
 155              		.thumb_func
 156              		.type	A2D_rdy_Enable, %function
 157              	A2D_rdy_Enable:
 158              	.LFB9:
 292:Generated_Source\PSoC4/A2D_rdy.c **** 
 293:Generated_Source\PSoC4/A2D_rdy.c **** 
 294:Generated_Source\PSoC4/A2D_rdy.c **** /*******************************************************************************
 295:Generated_Source\PSoC4/A2D_rdy.c **** * Function Name: A2D_rdy_Enable
 296:Generated_Source\PSoC4/A2D_rdy.c **** ********************************************************************************
 297:Generated_Source\PSoC4/A2D_rdy.c **** *
ARM GAS  C:\Users\ERICHO~1\AppData\Local\Temp\cc4ju9qe.s 			page 9


 298:Generated_Source\PSoC4/A2D_rdy.c **** * Summary:
 299:Generated_Source\PSoC4/A2D_rdy.c **** *   Enables the interrupt to the interrupt controller. Do not call this function
 300:Generated_Source\PSoC4/A2D_rdy.c **** *   unless ISR_Start() has been called or the functionality of the ISR_Start() 
 301:Generated_Source\PSoC4/A2D_rdy.c **** *   function, which sets the vector and the priority, has been called.
 302:Generated_Source\PSoC4/A2D_rdy.c **** *
 303:Generated_Source\PSoC4/A2D_rdy.c **** * Parameters:
 304:Generated_Source\PSoC4/A2D_rdy.c **** *   None
 305:Generated_Source\PSoC4/A2D_rdy.c **** *
 306:Generated_Source\PSoC4/A2D_rdy.c **** * Return:
 307:Generated_Source\PSoC4/A2D_rdy.c **** *   None
 308:Generated_Source\PSoC4/A2D_rdy.c **** *
 309:Generated_Source\PSoC4/A2D_rdy.c **** *******************************************************************************/
 310:Generated_Source\PSoC4/A2D_rdy.c **** void A2D_rdy_Enable(void)
 311:Generated_Source\PSoC4/A2D_rdy.c **** {
 159              		.loc 1 311 0
 160              		.cfi_startproc
 161              		@ args = 0, pretend = 0, frame = 0
 162              		@ frame_needed = 0, uses_anonymous_args = 0
 163              		@ link register save eliminated.
 312:Generated_Source\PSoC4/A2D_rdy.c ****     /* Enable the general interrupt. */
 313:Generated_Source\PSoC4/A2D_rdy.c ****     *A2D_rdy_INTC_SET_EN = A2D_rdy__INTC_MASK;
 164              		.loc 1 313 0
 165 0000 0122     		movs	r2, #1
 166 0002 014B     		ldr	r3, .L14
 167 0004 1A60     		str	r2, [r3]
 314:Generated_Source\PSoC4/A2D_rdy.c **** }
 168              		.loc 1 314 0
 169              		@ sp needed
 170 0006 7047     		bx	lr
 171              	.L15:
 172              		.align	2
 173              	.L14:
 174 0008 00E100E0 		.word	-536813312
 175              		.cfi_endproc
 176              	.LFE9:
 177              		.size	A2D_rdy_Enable, .-A2D_rdy_Enable
 178              		.section	.text.A2D_rdy_GetState,"ax",%progbits
 179              		.align	2
 180              		.global	A2D_rdy_GetState
 181              		.code	16
 182              		.thumb_func
 183              		.type	A2D_rdy_GetState, %function
 184              	A2D_rdy_GetState:
 185              	.LFB10:
 315:Generated_Source\PSoC4/A2D_rdy.c **** 
 316:Generated_Source\PSoC4/A2D_rdy.c **** 
 317:Generated_Source\PSoC4/A2D_rdy.c **** /*******************************************************************************
 318:Generated_Source\PSoC4/A2D_rdy.c **** * Function Name: A2D_rdy_GetState
 319:Generated_Source\PSoC4/A2D_rdy.c **** ********************************************************************************
 320:Generated_Source\PSoC4/A2D_rdy.c **** *
 321:Generated_Source\PSoC4/A2D_rdy.c **** * Summary:
 322:Generated_Source\PSoC4/A2D_rdy.c **** *   Gets the state (enabled, disabled) of the Interrupt.
 323:Generated_Source\PSoC4/A2D_rdy.c **** *
 324:Generated_Source\PSoC4/A2D_rdy.c **** * Parameters:
 325:Generated_Source\PSoC4/A2D_rdy.c **** *   None
 326:Generated_Source\PSoC4/A2D_rdy.c **** *
 327:Generated_Source\PSoC4/A2D_rdy.c **** * Return:
ARM GAS  C:\Users\ERICHO~1\AppData\Local\Temp\cc4ju9qe.s 			page 10


 328:Generated_Source\PSoC4/A2D_rdy.c **** *   1 if enabled, 0 if disabled.
 329:Generated_Source\PSoC4/A2D_rdy.c **** *
 330:Generated_Source\PSoC4/A2D_rdy.c **** *******************************************************************************/
 331:Generated_Source\PSoC4/A2D_rdy.c **** uint8 A2D_rdy_GetState(void)
 332:Generated_Source\PSoC4/A2D_rdy.c **** {
 186              		.loc 1 332 0
 187              		.cfi_startproc
 188              		@ args = 0, pretend = 0, frame = 0
 189              		@ frame_needed = 0, uses_anonymous_args = 0
 190              		@ link register save eliminated.
 333:Generated_Source\PSoC4/A2D_rdy.c ****     /* Get the state of the general interrupt. */
 334:Generated_Source\PSoC4/A2D_rdy.c ****     return ((*A2D_rdy_INTC_SET_EN & (uint32)A2D_rdy__INTC_MASK) != 0u) ? 1u:0u;
 191              		.loc 1 334 0
 192 0000 024B     		ldr	r3, .L17
 193 0002 1B68     		ldr	r3, [r3]
 194 0004 0120     		movs	r0, #1
 195 0006 1840     		ands	r0, r3
 335:Generated_Source\PSoC4/A2D_rdy.c **** }
 196              		.loc 1 335 0
 197              		@ sp needed
 198 0008 7047     		bx	lr
 199              	.L18:
 200 000a C046     		.align	2
 201              	.L17:
 202 000c 00E100E0 		.word	-536813312
 203              		.cfi_endproc
 204              	.LFE10:
 205              		.size	A2D_rdy_GetState, .-A2D_rdy_GetState
 206              		.section	.text.A2D_rdy_Disable,"ax",%progbits
 207              		.align	2
 208              		.global	A2D_rdy_Disable
 209              		.code	16
 210              		.thumb_func
 211              		.type	A2D_rdy_Disable, %function
 212              	A2D_rdy_Disable:
 213              	.LFB11:
 336:Generated_Source\PSoC4/A2D_rdy.c **** 
 337:Generated_Source\PSoC4/A2D_rdy.c **** 
 338:Generated_Source\PSoC4/A2D_rdy.c **** /*******************************************************************************
 339:Generated_Source\PSoC4/A2D_rdy.c **** * Function Name: A2D_rdy_Disable
 340:Generated_Source\PSoC4/A2D_rdy.c **** ********************************************************************************
 341:Generated_Source\PSoC4/A2D_rdy.c **** *
 342:Generated_Source\PSoC4/A2D_rdy.c **** * Summary:
 343:Generated_Source\PSoC4/A2D_rdy.c **** *   Disables the Interrupt in the interrupt controller.
 344:Generated_Source\PSoC4/A2D_rdy.c **** *
 345:Generated_Source\PSoC4/A2D_rdy.c **** * Parameters:
 346:Generated_Source\PSoC4/A2D_rdy.c **** *   None
 347:Generated_Source\PSoC4/A2D_rdy.c **** *
 348:Generated_Source\PSoC4/A2D_rdy.c **** * Return:
 349:Generated_Source\PSoC4/A2D_rdy.c **** *   None
 350:Generated_Source\PSoC4/A2D_rdy.c **** *
 351:Generated_Source\PSoC4/A2D_rdy.c **** *******************************************************************************/
 352:Generated_Source\PSoC4/A2D_rdy.c **** void A2D_rdy_Disable(void)
 353:Generated_Source\PSoC4/A2D_rdy.c **** {
 214              		.loc 1 353 0
 215              		.cfi_startproc
 216              		@ args = 0, pretend = 0, frame = 0
ARM GAS  C:\Users\ERICHO~1\AppData\Local\Temp\cc4ju9qe.s 			page 11


 217              		@ frame_needed = 0, uses_anonymous_args = 0
 218              		@ link register save eliminated.
 354:Generated_Source\PSoC4/A2D_rdy.c ****     /* Disable the general interrupt. */
 355:Generated_Source\PSoC4/A2D_rdy.c ****     *A2D_rdy_INTC_CLR_EN = A2D_rdy__INTC_MASK;
 219              		.loc 1 355 0
 220 0000 0122     		movs	r2, #1
 221 0002 014B     		ldr	r3, .L20
 222 0004 1A60     		str	r2, [r3]
 356:Generated_Source\PSoC4/A2D_rdy.c **** }
 223              		.loc 1 356 0
 224              		@ sp needed
 225 0006 7047     		bx	lr
 226              	.L21:
 227              		.align	2
 228              	.L20:
 229 0008 80E100E0 		.word	-536813184
 230              		.cfi_endproc
 231              	.LFE11:
 232              		.size	A2D_rdy_Disable, .-A2D_rdy_Disable
 233              		.section	.text.A2D_rdy_Start,"ax",%progbits
 234              		.align	2
 235              		.global	A2D_rdy_Start
 236              		.code	16
 237              		.thumb_func
 238              		.type	A2D_rdy_Start, %function
 239              	A2D_rdy_Start:
 240              	.LFB1:
  58:Generated_Source\PSoC4/A2D_rdy.c ****     /* For all we know the interrupt is active. */
 241              		.loc 1 58 0
 242              		.cfi_startproc
 243              		@ args = 0, pretend = 0, frame = 0
 244              		@ frame_needed = 0, uses_anonymous_args = 0
 245 0000 10B5     		push	{r4, lr}
 246              		.cfi_def_cfa_offset 8
 247              		.cfi_offset 4, -8
 248              		.cfi_offset 14, -4
  60:Generated_Source\PSoC4/A2D_rdy.c **** 
 249              		.loc 1 60 0
 250 0002 FFF7FEFF 		bl	A2D_rdy_Disable
 251              	.LVL8:
  63:Generated_Source\PSoC4/A2D_rdy.c **** 
 252              		.loc 1 63 0
 253 0006 0448     		ldr	r0, .L23
 254 0008 FFF7FEFF 		bl	A2D_rdy_SetVector
 255              	.LVL9:
  66:Generated_Source\PSoC4/A2D_rdy.c **** 
 256              		.loc 1 66 0
 257 000c 0320     		movs	r0, #3
 258 000e FFF7FEFF 		bl	A2D_rdy_SetPriority
 259              	.LVL10:
  69:Generated_Source\PSoC4/A2D_rdy.c **** }
 260              		.loc 1 69 0
 261 0012 FFF7FEFF 		bl	A2D_rdy_Enable
 262              	.LVL11:
  70:Generated_Source\PSoC4/A2D_rdy.c **** 
 263              		.loc 1 70 0
 264              		@ sp needed
ARM GAS  C:\Users\ERICHO~1\AppData\Local\Temp\cc4ju9qe.s 			page 12


 265 0016 10BD     		pop	{r4, pc}
 266              	.L24:
 267              		.align	2
 268              	.L23:
 269 0018 00000000 		.word	A2D_rdy_Interrupt
 270              		.cfi_endproc
 271              	.LFE1:
 272              		.size	A2D_rdy_Start, .-A2D_rdy_Start
 273              		.section	.text.A2D_rdy_StartEx,"ax",%progbits
 274              		.align	2
 275              		.global	A2D_rdy_StartEx
 276              		.code	16
 277              		.thumb_func
 278              		.type	A2D_rdy_StartEx, %function
 279              	A2D_rdy_StartEx:
 280              	.LFB2:
 101:Generated_Source\PSoC4/A2D_rdy.c ****     /* For all we know the interrupt is active. */
 281              		.loc 1 101 0
 282              		.cfi_startproc
 283              		@ args = 0, pretend = 0, frame = 0
 284              		@ frame_needed = 0, uses_anonymous_args = 0
 285              	.LVL12:
 286 0000 10B5     		push	{r4, lr}
 287              		.cfi_def_cfa_offset 8
 288              		.cfi_offset 4, -8
 289              		.cfi_offset 14, -4
 290 0002 0400     		movs	r4, r0
 103:Generated_Source\PSoC4/A2D_rdy.c **** 
 291              		.loc 1 103 0
 292 0004 FFF7FEFF 		bl	A2D_rdy_Disable
 293              	.LVL13:
 106:Generated_Source\PSoC4/A2D_rdy.c **** 
 294              		.loc 1 106 0
 295 0008 2000     		movs	r0, r4
 296 000a FFF7FEFF 		bl	A2D_rdy_SetVector
 297              	.LVL14:
 109:Generated_Source\PSoC4/A2D_rdy.c **** 
 298              		.loc 1 109 0
 299 000e 0320     		movs	r0, #3
 300 0010 FFF7FEFF 		bl	A2D_rdy_SetPriority
 301              	.LVL15:
 112:Generated_Source\PSoC4/A2D_rdy.c **** }
 302              		.loc 1 112 0
 303 0014 FFF7FEFF 		bl	A2D_rdy_Enable
 304              	.LVL16:
 113:Generated_Source\PSoC4/A2D_rdy.c **** 
 305              		.loc 1 113 0
 306              		@ sp needed
 307              	.LVL17:
 308 0018 10BD     		pop	{r4, pc}
 309              		.cfi_endproc
 310              	.LFE2:
 311              		.size	A2D_rdy_StartEx, .-A2D_rdy_StartEx
 312 001a C046     		.section	.text.A2D_rdy_Stop,"ax",%progbits
 313              		.align	2
 314              		.global	A2D_rdy_Stop
 315              		.code	16
ARM GAS  C:\Users\ERICHO~1\AppData\Local\Temp\cc4ju9qe.s 			page 13


 316              		.thumb_func
 317              		.type	A2D_rdy_Stop, %function
 318              	A2D_rdy_Stop:
 319              	.LFB3:
 131:Generated_Source\PSoC4/A2D_rdy.c ****     /* Disable this interrupt. */
 320              		.loc 1 131 0
 321              		.cfi_startproc
 322              		@ args = 0, pretend = 0, frame = 0
 323              		@ frame_needed = 0, uses_anonymous_args = 0
 324 0000 10B5     		push	{r4, lr}
 325              		.cfi_def_cfa_offset 8
 326              		.cfi_offset 4, -8
 327              		.cfi_offset 14, -4
 133:Generated_Source\PSoC4/A2D_rdy.c **** 
 328              		.loc 1 133 0
 329 0002 FFF7FEFF 		bl	A2D_rdy_Disable
 330              	.LVL18:
 136:Generated_Source\PSoC4/A2D_rdy.c **** }
 331              		.loc 1 136 0
 332 0006 0248     		ldr	r0, .L27
 333 0008 FFF7FEFF 		bl	A2D_rdy_SetVector
 334              	.LVL19:
 137:Generated_Source\PSoC4/A2D_rdy.c **** 
 335              		.loc 1 137 0
 336              		@ sp needed
 337 000c 10BD     		pop	{r4, pc}
 338              	.L28:
 339 000e C046     		.align	2
 340              	.L27:
 341 0010 00000000 		.word	IntDefaultHandler
 342              		.cfi_endproc
 343              	.LFE3:
 344              		.size	A2D_rdy_Stop, .-A2D_rdy_Stop
 345              		.section	.text.A2D_rdy_SetPending,"ax",%progbits
 346              		.align	2
 347              		.global	A2D_rdy_SetPending
 348              		.code	16
 349              		.thumb_func
 350              		.type	A2D_rdy_SetPending, %function
 351              	A2D_rdy_SetPending:
 352              	.LFB12:
 357:Generated_Source\PSoC4/A2D_rdy.c **** 
 358:Generated_Source\PSoC4/A2D_rdy.c **** 
 359:Generated_Source\PSoC4/A2D_rdy.c **** /*******************************************************************************
 360:Generated_Source\PSoC4/A2D_rdy.c **** * Function Name: A2D_rdy_SetPending
 361:Generated_Source\PSoC4/A2D_rdy.c **** ********************************************************************************
 362:Generated_Source\PSoC4/A2D_rdy.c **** *
 363:Generated_Source\PSoC4/A2D_rdy.c **** * Summary:
 364:Generated_Source\PSoC4/A2D_rdy.c **** *   Causes the Interrupt to enter the pending state, a software method of
 365:Generated_Source\PSoC4/A2D_rdy.c **** *   generating the interrupt.
 366:Generated_Source\PSoC4/A2D_rdy.c **** *
 367:Generated_Source\PSoC4/A2D_rdy.c **** * Parameters:
 368:Generated_Source\PSoC4/A2D_rdy.c **** *   None
 369:Generated_Source\PSoC4/A2D_rdy.c **** *
 370:Generated_Source\PSoC4/A2D_rdy.c **** * Return:
 371:Generated_Source\PSoC4/A2D_rdy.c **** *   None
 372:Generated_Source\PSoC4/A2D_rdy.c **** *
ARM GAS  C:\Users\ERICHO~1\AppData\Local\Temp\cc4ju9qe.s 			page 14


 373:Generated_Source\PSoC4/A2D_rdy.c **** * Side Effects:
 374:Generated_Source\PSoC4/A2D_rdy.c **** *   If interrupts are enabled and the interrupt is set up properly, the ISR is
 375:Generated_Source\PSoC4/A2D_rdy.c **** *   entered (depending on the priority of this interrupt and other pending 
 376:Generated_Source\PSoC4/A2D_rdy.c **** *   interrupts).
 377:Generated_Source\PSoC4/A2D_rdy.c **** *
 378:Generated_Source\PSoC4/A2D_rdy.c **** *******************************************************************************/
 379:Generated_Source\PSoC4/A2D_rdy.c **** void A2D_rdy_SetPending(void)
 380:Generated_Source\PSoC4/A2D_rdy.c **** {
 353              		.loc 1 380 0
 354              		.cfi_startproc
 355              		@ args = 0, pretend = 0, frame = 0
 356              		@ frame_needed = 0, uses_anonymous_args = 0
 357              		@ link register save eliminated.
 381:Generated_Source\PSoC4/A2D_rdy.c ****     *A2D_rdy_INTC_SET_PD = A2D_rdy__INTC_MASK;
 358              		.loc 1 381 0
 359 0000 0122     		movs	r2, #1
 360 0002 014B     		ldr	r3, .L30
 361 0004 1A60     		str	r2, [r3]
 382:Generated_Source\PSoC4/A2D_rdy.c **** }
 362              		.loc 1 382 0
 363              		@ sp needed
 364 0006 7047     		bx	lr
 365              	.L31:
 366              		.align	2
 367              	.L30:
 368 0008 00E200E0 		.word	-536813056
 369              		.cfi_endproc
 370              	.LFE12:
 371              		.size	A2D_rdy_SetPending, .-A2D_rdy_SetPending
 372              		.section	.text.A2D_rdy_ClearPending,"ax",%progbits
 373              		.align	2
 374              		.global	A2D_rdy_ClearPending
 375              		.code	16
 376              		.thumb_func
 377              		.type	A2D_rdy_ClearPending, %function
 378              	A2D_rdy_ClearPending:
 379              	.LFB13:
 383:Generated_Source\PSoC4/A2D_rdy.c **** 
 384:Generated_Source\PSoC4/A2D_rdy.c **** 
 385:Generated_Source\PSoC4/A2D_rdy.c **** /*******************************************************************************
 386:Generated_Source\PSoC4/A2D_rdy.c **** * Function Name: A2D_rdy_ClearPending
 387:Generated_Source\PSoC4/A2D_rdy.c **** ********************************************************************************
 388:Generated_Source\PSoC4/A2D_rdy.c **** *
 389:Generated_Source\PSoC4/A2D_rdy.c **** * Summary:
 390:Generated_Source\PSoC4/A2D_rdy.c **** *   Clears a pending interrupt in the interrupt controller.
 391:Generated_Source\PSoC4/A2D_rdy.c **** *
 392:Generated_Source\PSoC4/A2D_rdy.c **** *   Note Some interrupt sources are clear-on-read and require the block 
 393:Generated_Source\PSoC4/A2D_rdy.c **** *   interrupt/status register to be read/cleared with the appropriate block API 
 394:Generated_Source\PSoC4/A2D_rdy.c **** *   (GPIO, UART, and so on). Otherwise the ISR will continue to remain in 
 395:Generated_Source\PSoC4/A2D_rdy.c **** *   pending state even though the interrupt itself is cleared using this API.
 396:Generated_Source\PSoC4/A2D_rdy.c **** *
 397:Generated_Source\PSoC4/A2D_rdy.c **** * Parameters:
 398:Generated_Source\PSoC4/A2D_rdy.c **** *   None
 399:Generated_Source\PSoC4/A2D_rdy.c **** *
 400:Generated_Source\PSoC4/A2D_rdy.c **** * Return:
 401:Generated_Source\PSoC4/A2D_rdy.c **** *   None
 402:Generated_Source\PSoC4/A2D_rdy.c **** *
ARM GAS  C:\Users\ERICHO~1\AppData\Local\Temp\cc4ju9qe.s 			page 15


 403:Generated_Source\PSoC4/A2D_rdy.c **** *******************************************************************************/
 404:Generated_Source\PSoC4/A2D_rdy.c **** void A2D_rdy_ClearPending(void)
 405:Generated_Source\PSoC4/A2D_rdy.c **** {
 380              		.loc 1 405 0
 381              		.cfi_startproc
 382              		@ args = 0, pretend = 0, frame = 0
 383              		@ frame_needed = 0, uses_anonymous_args = 0
 384              		@ link register save eliminated.
 406:Generated_Source\PSoC4/A2D_rdy.c ****     *A2D_rdy_INTC_CLR_PD = A2D_rdy__INTC_MASK;
 385              		.loc 1 406 0
 386 0000 0122     		movs	r2, #1
 387 0002 014B     		ldr	r3, .L33
 388 0004 1A60     		str	r2, [r3]
 407:Generated_Source\PSoC4/A2D_rdy.c **** }
 389              		.loc 1 407 0
 390              		@ sp needed
 391 0006 7047     		bx	lr
 392              	.L34:
 393              		.align	2
 394              	.L33:
 395 0008 80E200E0 		.word	-536812928
 396              		.cfi_endproc
 397              	.LFE13:
 398              		.size	A2D_rdy_ClearPending, .-A2D_rdy_ClearPending
 399              		.section	.text.A2D_rdy_Interrupt,"ax",%progbits
 400              		.align	2
 401              		.global	A2D_rdy_Interrupt
 402              		.code	16
 403              		.thumb_func
 404              		.type	A2D_rdy_Interrupt, %function
 405              	A2D_rdy_Interrupt:
 406              	.LFB4:
 161:Generated_Source\PSoC4/A2D_rdy.c ****     #ifdef A2D_rdy_INTERRUPT_INTERRUPT_CALLBACK
 407              		.loc 1 161 0
 408              		.cfi_startproc
 409              		@ args = 0, pretend = 0, frame = 0
 410              		@ frame_needed = 0, uses_anonymous_args = 0
 411 0000 10B5     		push	{r4, lr}
 412              		.cfi_def_cfa_offset 8
 413              		.cfi_offset 4, -8
 414              		.cfi_offset 14, -4
 168:Generated_Source\PSoC4/A2D_rdy.c ****     Batt_volt = A2D_GetResult16(0x01);
 415              		.loc 1 168 0
 416 0002 0020     		movs	r0, #0
 417 0004 FFF7FEFF 		bl	A2D_GetResult16
 418              	.LVL20:
 419 0008 0B4B     		ldr	r3, .L36
 420 000a 1880     		strh	r0, [r3]
 169:Generated_Source\PSoC4/A2D_rdy.c ****     Max_Lidar = A2D_GetResult16(0x02);
 421              		.loc 1 169 0
 422 000c 0120     		movs	r0, #1
 423 000e FFF7FEFF 		bl	A2D_GetResult16
 424              	.LVL21:
 425 0012 0A4B     		ldr	r3, .L36+4
 426 0014 1880     		strh	r0, [r3]
 170:Generated_Source\PSoC4/A2D_rdy.c ****     Init_heading = A2D_GetResult16(0x03);
 427              		.loc 1 170 0
ARM GAS  C:\Users\ERICHO~1\AppData\Local\Temp\cc4ju9qe.s 			page 16


 428 0016 0220     		movs	r0, #2
 429 0018 FFF7FEFF 		bl	A2D_GetResult16
 430              	.LVL22:
 431 001c 084B     		ldr	r3, .L36+8
 432 001e 1880     		strh	r0, [r3]
 171:Generated_Source\PSoC4/A2D_rdy.c ****     A2D_rdy_ClearPending();
 433              		.loc 1 171 0
 434 0020 0320     		movs	r0, #3
 435 0022 FFF7FEFF 		bl	A2D_GetResult16
 436              	.LVL23:
 437 0026 074B     		ldr	r3, .L36+12
 438 0028 1880     		strh	r0, [r3]
 172:Generated_Source\PSoC4/A2D_rdy.c ****     enqueue_task(A2D_RDY,2);
 439              		.loc 1 172 0
 440 002a FFF7FEFF 		bl	A2D_rdy_ClearPending
 441              	.LVL24:
 173:Generated_Source\PSoC4/A2D_rdy.c ****     /* `#END` */
 442              		.loc 1 173 0
 443 002e 0221     		movs	r1, #2
 444 0030 0620     		movs	r0, #6
 445 0032 FFF7FEFF 		bl	enqueue_task
 446              	.LVL25:
 175:Generated_Source\PSoC4/A2D_rdy.c **** 
 447              		.loc 1 175 0
 448              		@ sp needed
 449 0036 10BD     		pop	{r4, pc}
 450              	.L37:
 451              		.align	2
 452              	.L36:
 453 0038 00000000 		.word	ESC_curr
 454 003c 00000000 		.word	Batt_volt
 455 0040 00000000 		.word	Max_Lidar
 456 0044 00000000 		.word	Init_heading
 457              		.cfi_endproc
 458              	.LFE4:
 459              		.size	A2D_rdy_Interrupt, .-A2D_rdy_Interrupt
 460              		.comm	slider_pos_last,1,1
 461              		.comm	run_mode,1,1
 462              		.comm	Init_heading,2,2
 463              		.comm	Max_Lidar,2,2
 464              		.comm	Batt_volt,2,2
 465              		.comm	ESC_curr,2,2
 466              		.comm	motor_toggles,2,2
 467              		.comm	num_tasks,1,1
 468              		.comm	num_rx_bytes_lidar_buff,1,1
 469              		.comm	num_rx_bytes_lidar,1,1
 470              		.comm	LIDAR_UART_tmr,1,1
 471              		.comm	rx_bytes_lidar_buff,16,4
 472              		.comm	rx_bytes_lidar,16,4
 473              		.comm	num_rx_bytes_ble_buff,1,1
 474              		.comm	num_rx_bytes_ble,1,1
 475              		.comm	BLE_UART_tmr,1,1
 476              		.comm	rx_bytes_ble_buff,8,4
 477              		.comm	rx_bytes_ble,8,4
 478              		.comm	num_rx_bytes_dbg_buff,1,1
 479              		.comm	num_rx_bytes_dbg,1,1
 480              		.comm	rx_bytes_dbg_buff,8,4
ARM GAS  C:\Users\ERICHO~1\AppData\Local\Temp\cc4ju9qe.s 			page 17


 481              		.comm	rx_bytes_dbg,8,4
 482              		.text
 483              	.Letext0:
 484              		.file 2 "c:\\program files (x86)\\cypress\\psoc creator\\4.3\\psoc creator\\import\\gnu\\arm\\5.4.
 485              		.file 3 "c:\\program files (x86)\\cypress\\psoc creator\\4.3\\psoc creator\\import\\gnu\\arm\\5.4.
 486              		.file 4 "Generated_Source\\PSoC4/cytypes.h"
 487              		.file 5 "./main.h"
 488              		.file 6 "Generated_Source\\PSoC4/CyLib.h"
 489              		.file 7 "Generated_Source\\PSoC4\\A2D.h"