ARM GAS  C:\Users\SAIKAR~1\AppData\Local\Temp\cc2BPKwL.s 			page 1


   1              		.syntax unified
   2              		.cpu cortex-m0
   3              		.fpu softvfp
   4              		.eabi_attribute 20, 1
   5              		.eabi_attribute 21, 1
   6              		.eabi_attribute 23, 3
   7              		.eabi_attribute 24, 1
   8              		.eabi_attribute 25, 1
   9              		.eabi_attribute 26, 1
  10              		.eabi_attribute 30, 1
  11              		.eabi_attribute 34, 0
  12              		.eabi_attribute 18, 4
  13              		.thumb
  14              		.syntax unified
  15              		.file	"algorithm.c"
  16              		.text
  17              	.Ltext0:
  18              		.cfi_sections	.debug_frame
  19              		.global	__aeabi_dmul
  20              		.global	__aeabi_ddiv
  21              		.global	__aeabi_dsub
  22              		.global	__aeabi_dadd
  23              		.section	.text.calculate_bearing,"ax",%progbits
  24              		.align	2
  25              		.code	16
  26              		.thumb_func
  27              		.type	calculate_bearing, %function
  28              	calculate_bearing:
  29              	.LFB2:
  30              		.file 1 "algorithm.c"
   1:algorithm.c   **** 
   2:algorithm.c   **** #include "algorithm.h"
   3:algorithm.c   **** #include "cordic.h" 
   4:algorithm.c   **** #include <math.h>
   5:algorithm.c   **** 
   6:algorithm.c   **** static inline double clamp(double value, double min_val, double max_val) {
   7:algorithm.c   ****     if (value < min_val) return min_val;
   8:algorithm.c   ****     if (value > max_val) return max_val;
   9:algorithm.c   ****     return value;
  10:algorithm.c   **** }
  11:algorithm.c   **** 
  12:algorithm.c   **** double haversine_distance(GPSCoordinate_t pos1, GPSCoordinate_t pos2) {
  13:algorithm.c   ****     double sin_delta_phi_half, cos_delta_phi_half;
  14:algorithm.c   ****     double sin_delta_lambda_half, cos_delta_lambda_half;
  15:algorithm.c   ****     double sin_phi1, cos_phi1;
  16:algorithm.c   ****     double sin_phi2, cos_phi2;
  17:algorithm.c   **** 
  18:algorithm.c   ****     double delta_phi = DEGREES_TO_RADIANS(pos2.lat - pos1.lat);
  19:algorithm.c   ****     double delta_lambda = DEGREES_TO_RADIANS(pos2.lon - pos1.lon);
  20:algorithm.c   **** 
  21:algorithm.c   ****     fast_sincos(delta_phi / 2.0, &sin_delta_phi_half, &cos_delta_phi_half);
  22:algorithm.c   ****     fast_sincos(delta_lambda / 2.0, &sin_delta_lambda_half, &cos_delta_lambda_half);
  23:algorithm.c   ****     fast_sincos(DEGREES_TO_RADIANS(pos1.lat), &sin_phi1, &cos_phi1);
  24:algorithm.c   ****     fast_sincos(DEGREES_TO_RADIANS(pos2.lat), &sin_phi2, &cos_phi2);
  25:algorithm.c   **** 
  26:algorithm.c   ****     double a = sin_delta_phi_half * sin_delta_phi_half +
  27:algorithm.c   ****                cos_phi1 * cos_phi2 *
ARM GAS  C:\Users\SAIKAR~1\AppData\Local\Temp\cc2BPKwL.s 			page 2


  28:algorithm.c   ****                sin_delta_lambda_half * sin_delta_lambda_half;
  29:algorithm.c   ****     
  30:algorithm.c   ****     a = clamp(a, 0.0, 1.0);
  31:algorithm.c   **** 
  32:algorithm.c   ****     double c = 2.0 * fast_atan2(sqrt(a), sqrt(1.0 - a));
  33:algorithm.c   ****     return EARTH_RADIUS_METERS * c;
  34:algorithm.c   **** }
  35:algorithm.c   **** 
  36:algorithm.c   **** static double calculate_bearing(GPSCoordinate_t pos1, GPSCoordinate_t pos2) { //TODO: verify logic 
  31              		.loc 1 36 0
  32              		.cfi_startproc
  33              		@ args = 16, pretend = 0, frame = 80
  34              		@ frame_needed = 0, uses_anonymous_args = 0
  35 0000 F0B5     		push	{r4, r5, r6, r7, lr}
  36              		.cfi_def_cfa_offset 20
  37              		.cfi_offset 4, -20
  38              		.cfi_offset 5, -16
  39              		.cfi_offset 6, -12
  40              		.cfi_offset 7, -8
  41              		.cfi_offset 14, -4
  42 0002 95B0     		sub	sp, sp, #84
  43              		.cfi_def_cfa_offset 104
  44 0004 0490     		str	r0, [sp, #16]
  45 0006 0591     		str	r1, [sp, #20]
  46 0008 0692     		str	r2, [sp, #24]
  47 000a 0793     		str	r3, [sp, #28]
  37:algorithm.c   ****     double sin_phi1, cos_phi1;
  38:algorithm.c   ****     double sin_phi2, cos_phi2;
  39:algorithm.c   ****     double sin_delta_lambda, cos_delta_lambda;
  40:algorithm.c   **** 
  41:algorithm.c   ****     double phi1 = DEGREES_TO_RADIANS(pos1.lat);
  48              		.loc 1 41 0
  49 000c 404A     		ldr	r2, .L2
  50 000e 414B     		ldr	r3, .L2+4
  51 0010 0498     		ldr	r0, [sp, #16]
  52 0012 0599     		ldr	r1, [sp, #20]
  53 0014 FFF7FEFF 		bl	__aeabi_dmul
  54              	.LVL0:
  55 0018 0022     		movs	r2, #0
  56 001a 3F4B     		ldr	r3, .L2+8
  57 001c FFF7FEFF 		bl	__aeabi_ddiv
  58              	.LVL1:
  59 0020 0400     		movs	r4, r0
  60 0022 0D00     		movs	r5, r1
  61              	.LVL2:
  42:algorithm.c   ****     double lambda1 = DEGREES_TO_RADIANS(pos1.lon);
  62              		.loc 1 42 0
  63 0024 0698     		ldr	r0, [sp, #24]
  64 0026 0799     		ldr	r1, [sp, #28]
  65 0028 394A     		ldr	r2, .L2
  66 002a 3A4B     		ldr	r3, .L2+4
  67 002c FFF7FEFF 		bl	__aeabi_dmul
  68              	.LVL3:
  69 0030 0022     		movs	r2, #0
  70 0032 394B     		ldr	r3, .L2+8
  71 0034 FFF7FEFF 		bl	__aeabi_ddiv
  72              	.LVL4:
ARM GAS  C:\Users\SAIKAR~1\AppData\Local\Temp\cc2BPKwL.s 			page 3


  73 0038 0090     		str	r0, [sp]
  74 003a 0191     		str	r1, [sp, #4]
  75              	.LVL5:
  43:algorithm.c   ****     double phi2 = DEGREES_TO_RADIANS(pos2.lat);
  76              		.loc 1 43 0
  77 003c 344A     		ldr	r2, .L2
  78 003e 354B     		ldr	r3, .L2+4
  79 0040 1A98     		ldr	r0, [sp, #104]
  80 0042 1B99     		ldr	r1, [sp, #108]
  81              	.LVL6:
  82 0044 FFF7FEFF 		bl	__aeabi_dmul
  83              	.LVL7:
  84 0048 0022     		movs	r2, #0
  85 004a 334B     		ldr	r3, .L2+8
  86 004c FFF7FEFF 		bl	__aeabi_ddiv
  87              	.LVL8:
  88 0050 0600     		movs	r6, r0
  89 0052 0F00     		movs	r7, r1
  90              	.LVL9:
  44:algorithm.c   ****     double lambda2 = DEGREES_TO_RADIANS(pos2.lon);
  91              		.loc 1 44 0
  92 0054 2E4A     		ldr	r2, .L2
  93 0056 2F4B     		ldr	r3, .L2+4
  94 0058 1C98     		ldr	r0, [sp, #112]
  95 005a 1D99     		ldr	r1, [sp, #116]
  96 005c FFF7FEFF 		bl	__aeabi_dmul
  97              	.LVL10:
  98 0060 0022     		movs	r2, #0
  99 0062 2D4B     		ldr	r3, .L2+8
 100 0064 FFF7FEFF 		bl	__aeabi_ddiv
 101              	.LVL11:
 102 0068 0290     		str	r0, [sp, #8]
 103 006a 0391     		str	r1, [sp, #12]
 104              	.LVL12:
  45:algorithm.c   **** 
  46:algorithm.c   ****     // Use fast_sincos for all trigonometric calculations
  47:algorithm.c   ****     fast_sincos(phi1, &sin_phi1, &cos_phi1);
 105              		.loc 1 47 0
 106 006c 10AB     		add	r3, sp, #64
 107 006e 12AA     		add	r2, sp, #72
 108 0070 2000     		movs	r0, r4
 109              	.LVL13:
 110 0072 2900     		movs	r1, r5
 111 0074 FFF7FEFF 		bl	fast_sincos
 112              	.LVL14:
  48:algorithm.c   ****     fast_sincos(phi2, &sin_phi2, &cos_phi2);
 113              		.loc 1 48 0
 114 0078 0CAB     		add	r3, sp, #48
 115 007a 0EAA     		add	r2, sp, #56
 116 007c 3000     		movs	r0, r6
 117 007e 3900     		movs	r1, r7
 118 0080 FFF7FEFF 		bl	fast_sincos
 119              	.LVL15:
  49:algorithm.c   ****     fast_sincos(lambda2 - lambda1, &sin_delta_lambda, &cos_delta_lambda);
 120              		.loc 1 49 0
 121 0084 009A     		ldr	r2, [sp]
 122 0086 019B     		ldr	r3, [sp, #4]
ARM GAS  C:\Users\SAIKAR~1\AppData\Local\Temp\cc2BPKwL.s 			page 4


 123 0088 0298     		ldr	r0, [sp, #8]
 124 008a 0399     		ldr	r1, [sp, #12]
 125 008c FFF7FEFF 		bl	__aeabi_dsub
 126              	.LVL16:
 127 0090 08AB     		add	r3, sp, #32
 128 0092 0AAA     		add	r2, sp, #40
 129 0094 FFF7FEFF 		bl	fast_sincos
 130              	.LVL17:
  50:algorithm.c   **** 
  51:algorithm.c   ****     double y = sin_delta_lambda * cos_phi2;
 131              		.loc 1 51 0
 132 0098 0C9C     		ldr	r4, [sp, #48]
 133 009a 0D9D     		ldr	r5, [sp, #52]
 134              	.LVL18:
 135 009c 2200     		movs	r2, r4
 136 009e 2B00     		movs	r3, r5
 137 00a0 0A98     		ldr	r0, [sp, #40]
 138 00a2 0B99     		ldr	r1, [sp, #44]
 139 00a4 FFF7FEFF 		bl	__aeabi_dmul
 140              	.LVL19:
 141 00a8 0090     		str	r0, [sp]
 142 00aa 0191     		str	r1, [sp, #4]
 143              	.LVL20:
  52:algorithm.c   ****     double x = cos_phi1 * sin_phi2 - sin_phi1 * cos_phi2 * cos_delta_lambda;
 144              		.loc 1 52 0
 145 00ac 0E9A     		ldr	r2, [sp, #56]
 146 00ae 0F9B     		ldr	r3, [sp, #60]
 147 00b0 1098     		ldr	r0, [sp, #64]
 148 00b2 1199     		ldr	r1, [sp, #68]
 149              	.LVL21:
 150 00b4 FFF7FEFF 		bl	__aeabi_dmul
 151              	.LVL22:
 152 00b8 0600     		movs	r6, r0
 153              	.LVL23:
 154 00ba 0F00     		movs	r7, r1
 155 00bc 129A     		ldr	r2, [sp, #72]
 156 00be 139B     		ldr	r3, [sp, #76]
 157 00c0 2000     		movs	r0, r4
 158 00c2 2900     		movs	r1, r5
 159 00c4 FFF7FEFF 		bl	__aeabi_dmul
 160              	.LVL24:
 161 00c8 089A     		ldr	r2, [sp, #32]
 162 00ca 099B     		ldr	r3, [sp, #36]
 163 00cc FFF7FEFF 		bl	__aeabi_dmul
 164              	.LVL25:
 165 00d0 0200     		movs	r2, r0
 166 00d2 0B00     		movs	r3, r1
 167 00d4 3000     		movs	r0, r6
 168 00d6 3900     		movs	r1, r7
 169 00d8 FFF7FEFF 		bl	__aeabi_dsub
 170              	.LVL26:
 171 00dc 0200     		movs	r2, r0
 172 00de 0B00     		movs	r3, r1
 173              	.LVL27:
  53:algorithm.c   ****     
  54:algorithm.c   ****     double theta = fast_atan2(y, x); 
 174              		.loc 1 54 0
ARM GAS  C:\Users\SAIKAR~1\AppData\Local\Temp\cc2BPKwL.s 			page 5


 175 00e0 0098     		ldr	r0, [sp]
 176 00e2 0199     		ldr	r1, [sp, #4]
 177 00e4 FFF7FEFF 		bl	fast_atan2
 178              	.LVL28:
  55:algorithm.c   ****     return fmod((theta * 180.0 / M_PI + 360.0), 360.0);
 179              		.loc 1 55 0
 180 00e8 0022     		movs	r2, #0
 181 00ea 0B4B     		ldr	r3, .L2+8
 182 00ec FFF7FEFF 		bl	__aeabi_dmul
 183              	.LVL29:
 184 00f0 074A     		ldr	r2, .L2
 185 00f2 084B     		ldr	r3, .L2+4
 186 00f4 FFF7FEFF 		bl	__aeabi_ddiv
 187              	.LVL30:
 188 00f8 0024     		movs	r4, #0
 189 00fa 084D     		ldr	r5, .L2+12
 190 00fc 2200     		movs	r2, r4
 191 00fe 2B00     		movs	r3, r5
 192 0100 FFF7FEFF 		bl	__aeabi_dadd
 193              	.LVL31:
 194 0104 2200     		movs	r2, r4
 195 0106 2B00     		movs	r3, r5
 196 0108 FFF7FEFF 		bl	fmod
 197              	.LVL32:
  56:algorithm.c   **** }
 198              		.loc 1 56 0
 199 010c 15B0     		add	sp, sp, #84
 200              	.LVL33:
 201              		@ sp needed
 202 010e F0BD     		pop	{r4, r5, r6, r7, pc}
 203              	.L3:
 204              		.align	2
 205              	.L2:
 206 0110 182D4454 		.word	1413754136
 207 0114 FB210940 		.word	1074340347
 208 0118 00806640 		.word	1080459264
 209 011c 00807640 		.word	1081507840
 210              		.cfi_endproc
 211              	.LFE2:
 212              		.size	calculate_bearing, .-calculate_bearing
 213              		.global	__aeabi_dcmplt
 214              		.global	__aeabi_dcmpgt
 215              		.section	.text.haversine_distance,"ax",%progbits
 216              		.align	2
 217              		.global	haversine_distance
 218              		.code	16
 219              		.thumb_func
 220              		.type	haversine_distance, %function
 221              	haversine_distance:
 222              	.LFB1:
  12:algorithm.c   ****     double sin_delta_phi_half, cos_delta_phi_half;
 223              		.loc 1 12 0
 224              		.cfi_startproc
 225              		@ args = 16, pretend = 0, frame = 96
 226              		@ frame_needed = 0, uses_anonymous_args = 0
 227 0000 F0B5     		push	{r4, r5, r6, r7, lr}
 228              		.cfi_def_cfa_offset 20
ARM GAS  C:\Users\SAIKAR~1\AppData\Local\Temp\cc2BPKwL.s 			page 6


 229              		.cfi_offset 4, -20
 230              		.cfi_offset 5, -16
 231              		.cfi_offset 6, -12
 232              		.cfi_offset 7, -8
 233              		.cfi_offset 14, -4
 234 0002 99B0     		sub	sp, sp, #100
 235              		.cfi_def_cfa_offset 120
 236 0004 0490     		str	r0, [sp, #16]
 237 0006 0591     		str	r1, [sp, #20]
 238 0008 0692     		str	r2, [sp, #24]
 239 000a 0793     		str	r3, [sp, #28]
  18:algorithm.c   ****     double delta_lambda = DEGREES_TO_RADIANS(pos2.lon - pos1.lon);
 240              		.loc 1 18 0
 241 000c 1E9C     		ldr	r4, [sp, #120]
 242 000e 1F9D     		ldr	r5, [sp, #124]
 243 0010 049E     		ldr	r6, [sp, #16]
 244 0012 059F     		ldr	r7, [sp, #20]
 245 0014 3200     		movs	r2, r6
 246 0016 3B00     		movs	r3, r7
 247 0018 2000     		movs	r0, r4
 248 001a 2900     		movs	r1, r5
 249 001c FFF7FEFF 		bl	__aeabi_dsub
 250              	.LVL34:
 251 0020 4E4A     		ldr	r2, .L11
 252 0022 4F4B     		ldr	r3, .L11+4
 253 0024 FFF7FEFF 		bl	__aeabi_dmul
 254              	.LVL35:
 255 0028 0022     		movs	r2, #0
 256 002a 4E4B     		ldr	r3, .L11+8
 257 002c FFF7FEFF 		bl	__aeabi_ddiv
 258              	.LVL36:
 259 0030 0090     		str	r0, [sp]
 260 0032 0191     		str	r1, [sp, #4]
 261              	.LVL37:
  19:algorithm.c   **** 
 262              		.loc 1 19 0
 263 0034 069A     		ldr	r2, [sp, #24]
 264 0036 079B     		ldr	r3, [sp, #28]
 265 0038 2098     		ldr	r0, [sp, #128]
 266 003a 2199     		ldr	r1, [sp, #132]
 267              	.LVL38:
 268 003c FFF7FEFF 		bl	__aeabi_dsub
 269              	.LVL39:
 270 0040 464A     		ldr	r2, .L11
 271 0042 474B     		ldr	r3, .L11+4
 272 0044 FFF7FEFF 		bl	__aeabi_dmul
 273              	.LVL40:
 274 0048 0022     		movs	r2, #0
 275 004a 464B     		ldr	r3, .L11+8
 276 004c FFF7FEFF 		bl	__aeabi_ddiv
 277              	.LVL41:
 278 0050 0290     		str	r0, [sp, #8]
 279 0052 0391     		str	r1, [sp, #12]
 280              	.LVL42:
  21:algorithm.c   ****     fast_sincos(delta_lambda / 2.0, &sin_delta_lambda_half, &cos_delta_lambda_half);
 281              		.loc 1 21 0
 282 0054 0022     		movs	r2, #0
ARM GAS  C:\Users\SAIKAR~1\AppData\Local\Temp\cc2BPKwL.s 			page 7


 283 0056 444B     		ldr	r3, .L11+12
 284 0058 0098     		ldr	r0, [sp]
 285 005a 0199     		ldr	r1, [sp, #4]
 286              	.LVL43:
 287 005c FFF7FEFF 		bl	__aeabi_dmul
 288              	.LVL44:
 289 0060 14AB     		add	r3, sp, #80
 290 0062 16AA     		add	r2, sp, #88
 291 0064 FFF7FEFF 		bl	fast_sincos
 292              	.LVL45:
  22:algorithm.c   ****     fast_sincos(DEGREES_TO_RADIANS(pos1.lat), &sin_phi1, &cos_phi1);
 293              		.loc 1 22 0
 294 0068 0022     		movs	r2, #0
 295 006a 3F4B     		ldr	r3, .L11+12
 296 006c 0298     		ldr	r0, [sp, #8]
 297 006e 0399     		ldr	r1, [sp, #12]
 298 0070 FFF7FEFF 		bl	__aeabi_dmul
 299              	.LVL46:
 300 0074 10AB     		add	r3, sp, #64
 301 0076 12AA     		add	r2, sp, #72
 302 0078 FFF7FEFF 		bl	fast_sincos
 303              	.LVL47:
  23:algorithm.c   ****     fast_sincos(DEGREES_TO_RADIANS(pos2.lat), &sin_phi2, &cos_phi2);
 304              		.loc 1 23 0
 305 007c 374A     		ldr	r2, .L11
 306 007e 384B     		ldr	r3, .L11+4
 307 0080 3000     		movs	r0, r6
 308 0082 3900     		movs	r1, r7
 309 0084 FFF7FEFF 		bl	__aeabi_dmul
 310              	.LVL48:
 311 0088 0022     		movs	r2, #0
 312 008a 364B     		ldr	r3, .L11+8
 313 008c FFF7FEFF 		bl	__aeabi_ddiv
 314              	.LVL49:
 315 0090 0CAB     		add	r3, sp, #48
 316 0092 0EAA     		add	r2, sp, #56
 317 0094 FFF7FEFF 		bl	fast_sincos
 318              	.LVL50:
  24:algorithm.c   **** 
 319              		.loc 1 24 0
 320 0098 304A     		ldr	r2, .L11
 321 009a 314B     		ldr	r3, .L11+4
 322 009c 2000     		movs	r0, r4
 323 009e 2900     		movs	r1, r5
 324 00a0 FFF7FEFF 		bl	__aeabi_dmul
 325              	.LVL51:
 326 00a4 0022     		movs	r2, #0
 327 00a6 2F4B     		ldr	r3, .L11+8
 328 00a8 FFF7FEFF 		bl	__aeabi_ddiv
 329              	.LVL52:
 330 00ac 08AB     		add	r3, sp, #32
 331 00ae 0AAA     		add	r2, sp, #40
 332 00b0 FFF7FEFF 		bl	fast_sincos
 333              	.LVL53:
  26:algorithm.c   ****                cos_phi1 * cos_phi2 *
 334              		.loc 1 26 0
 335 00b4 169A     		ldr	r2, [sp, #88]
ARM GAS  C:\Users\SAIKAR~1\AppData\Local\Temp\cc2BPKwL.s 			page 8


 336 00b6 179B     		ldr	r3, [sp, #92]
 337 00b8 1000     		movs	r0, r2
 338 00ba 1900     		movs	r1, r3
 339 00bc FFF7FEFF 		bl	__aeabi_dmul
 340              	.LVL54:
 341 00c0 0600     		movs	r6, r0
 342 00c2 0F00     		movs	r7, r1
  27:algorithm.c   ****                sin_delta_lambda_half * sin_delta_lambda_half;
 343              		.loc 1 27 0
 344 00c4 089A     		ldr	r2, [sp, #32]
 345 00c6 099B     		ldr	r3, [sp, #36]
 346 00c8 0C98     		ldr	r0, [sp, #48]
 347 00ca 0D99     		ldr	r1, [sp, #52]
 348 00cc FFF7FEFF 		bl	__aeabi_dmul
 349              	.LVL55:
 350 00d0 129C     		ldr	r4, [sp, #72]
 351 00d2 139D     		ldr	r5, [sp, #76]
 352 00d4 2200     		movs	r2, r4
 353 00d6 2B00     		movs	r3, r5
 354 00d8 FFF7FEFF 		bl	__aeabi_dmul
 355              	.LVL56:
 356 00dc 0200     		movs	r2, r0
 357 00de 0B00     		movs	r3, r1
  28:algorithm.c   ****     
 358              		.loc 1 28 0
 359 00e0 2000     		movs	r0, r4
 360 00e2 2900     		movs	r1, r5
 361 00e4 FFF7FEFF 		bl	__aeabi_dmul
 362              	.LVL57:
 363 00e8 0200     		movs	r2, r0
 364 00ea 0B00     		movs	r3, r1
  26:algorithm.c   ****                cos_phi1 * cos_phi2 *
 365              		.loc 1 26 0
 366 00ec 3000     		movs	r0, r6
 367 00ee 3900     		movs	r1, r7
 368 00f0 FFF7FEFF 		bl	__aeabi_dadd
 369              	.LVL58:
 370 00f4 0400     		movs	r4, r0
 371 00f6 0D00     		movs	r5, r1
 372              	.LVL59:
 373              	.LBB8:
 374              	.LBB9:
   7:algorithm.c   ****     if (value > max_val) return max_val;
 375              		.loc 1 7 0
 376 00f8 0022     		movs	r2, #0
 377 00fa 0023     		movs	r3, #0
 378 00fc FFF7FEFF 		bl	__aeabi_dcmplt
 379              	.LVL60:
 380 0100 0028     		cmp	r0, #0
 381 0102 0AD1     		bne	.L7
   8:algorithm.c   ****     return value;
 382              		.loc 1 8 0
 383 0104 0022     		movs	r2, #0
 384 0106 194B     		ldr	r3, .L11+16
 385 0108 2000     		movs	r0, r4
 386 010a 2900     		movs	r1, r5
 387 010c FFF7FEFF 		bl	__aeabi_dcmpgt
ARM GAS  C:\Users\SAIKAR~1\AppData\Local\Temp\cc2BPKwL.s 			page 9


 388              	.LVL61:
 389 0110 0028     		cmp	r0, #0
 390 0112 04D0     		beq	.L5
 391 0114 0024     		movs	r4, #0
 392              	.LVL62:
 393 0116 154D     		ldr	r5, .L11+16
 394 0118 01E0     		b	.L5
 395              	.LVL63:
 396              	.L7:
   7:algorithm.c   ****     if (value > max_val) return max_val;
 397              		.loc 1 7 0
 398 011a 0024     		movs	r4, #0
 399              	.LVL64:
 400 011c 0025     		movs	r5, #0
 401              	.L5:
 402              	.LVL65:
 403              	.LBE9:
 404              	.LBE8:
  32:algorithm.c   ****     return EARTH_RADIUS_METERS * c;
 405              		.loc 1 32 0
 406 011e 2000     		movs	r0, r4
 407 0120 2900     		movs	r1, r5
 408 0122 FFF7FEFF 		bl	sqrt
 409              	.LVL66:
 410 0126 0600     		movs	r6, r0
 411 0128 0F00     		movs	r7, r1
 412 012a 2200     		movs	r2, r4
 413 012c 2B00     		movs	r3, r5
 414 012e 0020     		movs	r0, #0
 415 0130 0E49     		ldr	r1, .L11+16
 416 0132 FFF7FEFF 		bl	__aeabi_dsub
 417              	.LVL67:
 418 0136 FFF7FEFF 		bl	sqrt
 419              	.LVL68:
 420 013a 0200     		movs	r2, r0
 421 013c 0B00     		movs	r3, r1
 422 013e 3000     		movs	r0, r6
 423 0140 3900     		movs	r1, r7
 424 0142 FFF7FEFF 		bl	fast_atan2
 425              	.LVL69:
 426 0146 0200     		movs	r2, r0
 427 0148 0B00     		movs	r3, r1
 428 014a FFF7FEFF 		bl	__aeabi_dadd
 429              	.LVL70:
  33:algorithm.c   **** }
 430              		.loc 1 33 0
 431 014e 0022     		movs	r2, #0
 432 0150 074B     		ldr	r3, .L11+20
 433 0152 FFF7FEFF 		bl	__aeabi_dmul
 434              	.LVL71:
  34:algorithm.c   **** 
 435              		.loc 1 34 0
 436 0156 19B0     		add	sp, sp, #100
 437              	.LVL72:
 438              		@ sp needed
 439 0158 F0BD     		pop	{r4, r5, r6, r7, pc}
 440              	.L12:
ARM GAS  C:\Users\SAIKAR~1\AppData\Local\Temp\cc2BPKwL.s 			page 10


 441 015a C046     		.align	2
 442              	.L11:
 443 015c 182D4454 		.word	1413754136
 444 0160 FB210940 		.word	1074340347
 445 0164 00806640 		.word	1080459264
 446 0168 0000E03F 		.word	1071644672
 447 016c 0000F03F 		.word	1072693248
 448 0170 AE4D5841 		.word	1096306094
 449              		.cfi_endproc
 450              	.LFE1:
 451              		.size	haversine_distance, .-haversine_distance
 452              		.section	.text.navigator_init,"ax",%progbits
 453              		.align	2
 454              		.global	navigator_init
 455              		.code	16
 456              		.thumb_func
 457              		.type	navigator_init, %function
 458              	navigator_init:
 459              	.LFB3:
  57:algorithm.c   **** 
  58:algorithm.c   **** 
  59:algorithm.c   **** void navigator_init(DroneNavigator_t *nav, double target_lat, double target_lon,
  60:algorithm.c   ****                     double p_gain, double max_pitch,
  61:algorithm.c   ****                     double max_roll, double dist_thresh) {
 460              		.loc 1 61 0
 461              		.cfi_startproc
 462              		@ args = 40, pretend = 0, frame = 0
 463              		@ frame_needed = 0, uses_anonymous_args = 0
 464              		@ link register save eliminated.
 465              	.LVL73:
  62:algorithm.c   ****     nav->target_pos.lat = target_lat;
 466              		.loc 1 62 0
 467 0000 0260     		str	r2, [r0]
 468 0002 4360     		str	r3, [r0, #4]
  63:algorithm.c   ****     nav->target_pos.lon = target_lon;
 469              		.loc 1 63 0
 470 0004 009A     		ldr	r2, [sp]
 471 0006 019B     		ldr	r3, [sp, #4]
 472              	.LVL74:
 473 0008 8260     		str	r2, [r0, #8]
 474 000a C360     		str	r3, [r0, #12]
  64:algorithm.c   ****     nav->p_gain = p_gain;
 475              		.loc 1 64 0
 476 000c 029A     		ldr	r2, [sp, #8]
 477 000e 039B     		ldr	r3, [sp, #12]
 478 0010 0261     		str	r2, [r0, #16]
 479 0012 4361     		str	r3, [r0, #20]
  65:algorithm.c   ****     nav->max_pitch_cmd = max_pitch;
 480              		.loc 1 65 0
 481 0014 049A     		ldr	r2, [sp, #16]
 482 0016 059B     		ldr	r3, [sp, #20]
 483 0018 8261     		str	r2, [r0, #24]
 484 001a C361     		str	r3, [r0, #28]
  66:algorithm.c   ****     nav->max_roll_cmd = max_roll;
 485              		.loc 1 66 0
 486 001c 069A     		ldr	r2, [sp, #24]
 487 001e 079B     		ldr	r3, [sp, #28]
ARM GAS  C:\Users\SAIKAR~1\AppData\Local\Temp\cc2BPKwL.s 			page 11


 488 0020 0262     		str	r2, [r0, #32]
 489 0022 4362     		str	r3, [r0, #36]
  67:algorithm.c   ****     nav->distance_threshold = dist_thresh;
 490              		.loc 1 67 0
 491 0024 089A     		ldr	r2, [sp, #32]
 492 0026 099B     		ldr	r3, [sp, #36]
 493 0028 8262     		str	r2, [r0, #40]
 494 002a C362     		str	r3, [r0, #44]
  68:algorithm.c   **** }
 495              		.loc 1 68 0
 496              		@ sp needed
 497 002c 7047     		bx	lr
 498              		.cfi_endproc
 499              	.LFE3:
 500              		.size	navigator_init, .-navigator_init
 501              		.section	.text.navigator_update,"ax",%progbits
 502              		.align	2
 503              		.global	navigator_update
 504              		.code	16
 505              		.thumb_func
 506              		.type	navigator_update, %function
 507              	navigator_update:
 508              	.LFB4:
  69:algorithm.c   **** 
  70:algorithm.c   **** bool navigator_update(DroneNavigator_t *nav, GPSCoordinate_t current_pos,
  71:algorithm.c   ****                       double drone_heading_degrees, double dt,
  72:algorithm.c   ****                       double *out_pitch_cmd, double *out_roll_cmd) {
 509              		.loc 1 72 0
 510              		.cfi_startproc
 511              		@ args = 40, pretend = 8, frame = 48
 512              		@ frame_needed = 0, uses_anonymous_args = 0
 513              	.LVL75:
 514 0000 82B0     		sub	sp, sp, #8
 515              		.cfi_def_cfa_offset 8
 516 0002 F0B5     		push	{r4, r5, r6, r7, lr}
 517              		.cfi_def_cfa_offset 28
 518              		.cfi_offset 4, -28
 519              		.cfi_offset 5, -24
 520              		.cfi_offset 6, -20
 521              		.cfi_offset 7, -16
 522              		.cfi_offset 14, -12
 523 0004 91B0     		sub	sp, sp, #68
 524              		.cfi_def_cfa_offset 96
 525 0006 0700     		movs	r7, r0
 526 0008 1692     		str	r2, [sp, #88]
 527 000a 1793     		str	r3, [sp, #92]
  73:algorithm.c   **** 
  74:algorithm.c   ****     double distance = haversine_distance(current_pos, nav->target_pos);
 528              		.loc 1 74 0
 529 000c 1022     		movs	r2, #16
 530 000e 0100     		movs	r1, r0
 531 0010 6846     		mov	r0, sp
 532              	.LVL76:
 533 0012 FFF7FEFF 		bl	memcpy
 534              	.LVL77:
 535 0016 1698     		ldr	r0, [sp, #88]
 536 0018 1799     		ldr	r1, [sp, #92]
ARM GAS  C:\Users\SAIKAR~1\AppData\Local\Temp\cc2BPKwL.s 			page 12


 537 001a 189A     		ldr	r2, [sp, #96]
 538 001c 199B     		ldr	r3, [sp, #100]
 539 001e FFF7FEFF 		bl	haversine_distance
 540              	.LVL78:
 541 0022 0500     		movs	r5, r0
 542 0024 0C00     		movs	r4, r1
 543              	.LVL79:
  75:algorithm.c   ****     if (fabs(distance) < nav->distance_threshold) {
 544              		.loc 1 75 0
 545 0026 4E00     		lsls	r6, r1, #1
 546 0028 BA6A     		ldr	r2, [r7, #40]
 547 002a FB6A     		ldr	r3, [r7, #44]
 548 002c 2800     		movs	r0, r5
 549 002e 7108     		lsrs	r1, r6, #1
 550              	.LVL80:
 551 0030 FFF7FEFF 		bl	__aeabi_dcmplt
 552              	.LVL81:
 553 0034 0028     		cmp	r0, #0
 554 0036 09D0     		beq	.L27
  76:algorithm.c   ****         *out_pitch_cmd = 0.0;
 555              		.loc 1 76 0
 556 0038 0022     		movs	r2, #0
 557 003a 0023     		movs	r3, #0
 558 003c 1E99     		ldr	r1, [sp, #120]
 559 003e 0A60     		str	r2, [r1]
 560 0040 4B60     		str	r3, [r1, #4]
  77:algorithm.c   ****         *out_roll_cmd = 0.0;
 561              		.loc 1 77 0
 562 0042 1F99     		ldr	r1, [sp, #124]
 563 0044 0A60     		str	r2, [r1]
 564 0046 4B60     		str	r3, [r1, #4]
  78:algorithm.c   ****         return true;
 565              		.loc 1 78 0
 566 0048 0120     		movs	r0, #1
 567 004a A7E0     		b	.L17
 568              	.L27:
  79:algorithm.c   ****     }
  80:algorithm.c   **** 
  81:algorithm.c   ****     double bearing_to_target_deg = calculate_bearing(current_pos, nav->target_pos);
 569              		.loc 1 81 0
 570 004c 1022     		movs	r2, #16
 571 004e 3900     		movs	r1, r7
 572 0050 6846     		mov	r0, sp
 573 0052 FFF7FEFF 		bl	memcpy
 574              	.LVL82:
 575 0056 1698     		ldr	r0, [sp, #88]
 576 0058 1799     		ldr	r1, [sp, #92]
 577 005a 189A     		ldr	r2, [sp, #96]
 578 005c 199B     		ldr	r3, [sp, #100]
 579 005e FFF7FEFF 		bl	calculate_bearing
 580              	.LVL83:
  82:algorithm.c   ****     double bearing_rad = DEGREES_TO_RADIANS(bearing_to_target_deg);
 581              		.loc 1 82 0
 582 0062 514A     		ldr	r2, .L30
 583 0064 514B     		ldr	r3, .L30+4
 584 0066 FFF7FEFF 		bl	__aeabi_dmul
 585              	.LVL84:
ARM GAS  C:\Users\SAIKAR~1\AppData\Local\Temp\cc2BPKwL.s 			page 13


 586 006a 0022     		movs	r2, #0
 587 006c 504B     		ldr	r3, .L30+8
 588 006e FFF7FEFF 		bl	__aeabi_ddiv
 589              	.LVL85:
 590 0072 0490     		str	r0, [sp, #16]
 591 0074 0591     		str	r1, [sp, #20]
 592              	.LVL86:
  83:algorithm.c   ****     double heading_rad = DEGREES_TO_RADIANS(drone_heading_degrees);
 593              		.loc 1 83 0
 594 0076 4C4A     		ldr	r2, .L30
 595 0078 4C4B     		ldr	r3, .L30+4
 596 007a 1A98     		ldr	r0, [sp, #104]
 597 007c 1B99     		ldr	r1, [sp, #108]
 598              	.LVL87:
 599 007e FFF7FEFF 		bl	__aeabi_dmul
 600              	.LVL88:
 601 0082 0022     		movs	r2, #0
 602 0084 4A4B     		ldr	r3, .L30+8
 603 0086 FFF7FEFF 		bl	__aeabi_ddiv
 604              	.LVL89:
 605 008a 0200     		movs	r2, r0
 606 008c 0B00     		movs	r3, r1
 607              	.LVL90:
  84:algorithm.c   **** 
  85:algorithm.c   ****     double sin_arg, cos_arg;
  86:algorithm.c   ****     fast_sincos(bearing_rad - heading_rad, &sin_arg, &cos_arg);
 608              		.loc 1 86 0
 609 008e 0498     		ldr	r0, [sp, #16]
 610 0090 0599     		ldr	r1, [sp, #20]
 611 0092 FFF7FEFF 		bl	__aeabi_dsub
 612              	.LVL91:
 613 0096 0CAB     		add	r3, sp, #48
 614 0098 0EAA     		add	r2, sp, #56
 615 009a FFF7FEFF 		bl	fast_sincos
 616              	.LVL92:
  87:algorithm.c   ****     double relative_bearing_rad = fast_atan2(sin_arg, cos_arg);
 617              		.loc 1 87 0
 618 009e 0C9A     		ldr	r2, [sp, #48]
 619 00a0 0D9B     		ldr	r3, [sp, #52]
 620 00a2 0E98     		ldr	r0, [sp, #56]
 621 00a4 0F99     		ldr	r1, [sp, #60]
 622 00a6 FFF7FEFF 		bl	fast_atan2
 623              	.LVL93:
  88:algorithm.c   **** 
  89:algorithm.c   ****     double error_forward = distance * cos_arg; 
 624              		.loc 1 89 0
 625 00aa 0C9A     		ldr	r2, [sp, #48]
 626 00ac 0D9B     		ldr	r3, [sp, #52]
 627 00ae 2800     		movs	r0, r5
 628 00b0 2100     		movs	r1, r4
 629 00b2 FFF7FEFF 		bl	__aeabi_dmul
 630              	.LVL94:
 631 00b6 0490     		str	r0, [sp, #16]
 632 00b8 0591     		str	r1, [sp, #20]
 633              	.LVL95:
  90:algorithm.c   ****     double error_right = distance * sin_arg;   
 634              		.loc 1 90 0
ARM GAS  C:\Users\SAIKAR~1\AppData\Local\Temp\cc2BPKwL.s 			page 14


 635 00ba 0E9A     		ldr	r2, [sp, #56]
 636 00bc 0F9B     		ldr	r3, [sp, #60]
 637 00be 2800     		movs	r0, r5
 638              	.LVL96:
 639 00c0 2100     		movs	r1, r4
 640 00c2 FFF7FEFF 		bl	__aeabi_dmul
 641              	.LVL97:
 642 00c6 0890     		str	r0, [sp, #32]
 643 00c8 0991     		str	r1, [sp, #36]
 644              	.LVL98:
  91:algorithm.c   **** 
  92:algorithm.c   ****     double pitch_p_term = (fast_atan2(nav->p_gain * error_forward, distance) / (M_PI / 2.0)) * nav-
 645              		.loc 1 92 0
 646 00ca 3A69     		ldr	r2, [r7, #16]
 647 00cc 7B69     		ldr	r3, [r7, #20]
 648 00ce 0498     		ldr	r0, [sp, #16]
 649 00d0 0599     		ldr	r1, [sp, #20]
 650              	.LVL99:
 651 00d2 FFF7FEFF 		bl	__aeabi_dmul
 652              	.LVL100:
 653 00d6 2A00     		movs	r2, r5
 654 00d8 2300     		movs	r3, r4
 655 00da FFF7FEFF 		bl	fast_atan2
 656              	.LVL101:
 657 00de 324A     		ldr	r2, .L30
 658 00e0 344B     		ldr	r3, .L30+12
 659 00e2 FFF7FEFF 		bl	__aeabi_ddiv
 660              	.LVL102:
 661 00e6 BA69     		ldr	r2, [r7, #24]
 662 00e8 FB69     		ldr	r3, [r7, #28]
 663 00ea FFF7FEFF 		bl	__aeabi_dmul
 664              	.LVL103:
 665 00ee 0490     		str	r0, [sp, #16]
 666              	.LVL104:
 667 00f0 0791     		str	r1, [sp, #28]
 668              	.LVL105:
  93:algorithm.c   ****     double roll_p_term = (fast_atan2(nav->p_gain * error_right, distance) / (M_PI / 2.0)) * nav->ma
 669              		.loc 1 93 0
 670 00f2 3A69     		ldr	r2, [r7, #16]
 671 00f4 7B69     		ldr	r3, [r7, #20]
 672 00f6 0898     		ldr	r0, [sp, #32]
 673 00f8 0999     		ldr	r1, [sp, #36]
 674              	.LVL106:
 675 00fa FFF7FEFF 		bl	__aeabi_dmul
 676              	.LVL107:
 677 00fe 2A00     		movs	r2, r5
 678 0100 2300     		movs	r3, r4
 679 0102 FFF7FEFF 		bl	fast_atan2
 680              	.LVL108:
 681 0106 284A     		ldr	r2, .L30
 682 0108 2A4B     		ldr	r3, .L30+12
 683 010a FFF7FEFF 		bl	__aeabi_ddiv
 684              	.LVL109:
 685 010e 3A6A     		ldr	r2, [r7, #32]
 686 0110 7B6A     		ldr	r3, [r7, #36]
 687 0112 FFF7FEFF 		bl	__aeabi_dmul
 688              	.LVL110:
ARM GAS  C:\Users\SAIKAR~1\AppData\Local\Temp\cc2BPKwL.s 			page 15


 689 0116 0890     		str	r0, [sp, #32]
 690              	.LVL111:
 691 0118 0A91     		str	r1, [sp, #40]
 692              	.LVL112:
  94:algorithm.c   **** 
  95:algorithm.c   ****     // --- Final Command ---
  96:algorithm.c   ****     double final_pitch = pitch_p_term;
  97:algorithm.c   ****     double final_roll = roll_p_term;
  98:algorithm.c   **** 
  99:algorithm.c   ****     // Clamp to absolute limits
 100:algorithm.c   ****     *out_pitch_cmd = clamp(final_pitch, -nav->max_pitch_cmd, nav->max_pitch_cmd);
 693              		.loc 1 100 0
 694 011a BC69     		ldr	r4, [r7, #24]
 695              	.LVL113:
 696 011c FE69     		ldr	r6, [r7, #28]
 697 011e 0B94     		str	r4, [sp, #44]
 698 0120 8023     		movs	r3, #128
 699 0122 1B06     		lsls	r3, r3, #24
 700 0124 F518     		adds	r5, r6, r3
 701              	.LVL114:
 702              	.LBB10:
 703              	.LBB11:
   7:algorithm.c   ****     if (value > max_val) return max_val;
 704              		.loc 1 7 0
 705 0126 2200     		movs	r2, r4
 706 0128 2B00     		movs	r3, r5
 707 012a 0498     		ldr	r0, [sp, #16]
 708              	.LVL115:
 709 012c 0799     		ldr	r1, [sp, #28]
 710              	.LVL116:
 711 012e FFF7FEFF 		bl	__aeabi_dcmplt
 712              	.LVL117:
 713 0132 0028     		cmp	r0, #0
 714 0134 0DD1     		bne	.L18
   8:algorithm.c   ****     return value;
 715              		.loc 1 8 0
 716 0136 2200     		movs	r2, r4
 717 0138 3300     		movs	r3, r6
 718 013a 0498     		ldr	r0, [sp, #16]
 719 013c 0799     		ldr	r1, [sp, #28]
 720 013e FFF7FEFF 		bl	__aeabi_dcmpgt
 721              	.LVL118:
 722 0142 0028     		cmp	r0, #0
 723 0144 02D0     		beq	.L28
 724 0146 0B94     		str	r4, [sp, #44]
 725 0148 3500     		movs	r5, r6
 726              	.LVL119:
 727 014a 02E0     		b	.L18
 728              	.LVL120:
 729              	.L28:
   9:algorithm.c   **** }
 730              		.loc 1 9 0
 731 014c 049B     		ldr	r3, [sp, #16]
 732 014e 0B93     		str	r3, [sp, #44]
 733 0150 079D     		ldr	r5, [sp, #28]
 734              	.LVL121:
 735              	.L18:
ARM GAS  C:\Users\SAIKAR~1\AppData\Local\Temp\cc2BPKwL.s 			page 16


 736              	.LBE11:
 737              	.LBE10:
 738              		.loc 1 100 0
 739 0152 0B9A     		ldr	r2, [sp, #44]
 740 0154 2B00     		movs	r3, r5
 741 0156 1E99     		ldr	r1, [sp, #120]
 742 0158 0A60     		str	r2, [r1]
 743 015a 4B60     		str	r3, [r1, #4]
 101:algorithm.c   ****     *out_roll_cmd = clamp(final_roll, -nav->max_roll_cmd, nav->max_roll_cmd);
 744              		.loc 1 101 0
 745 015c 3C6A     		ldr	r4, [r7, #32]
 746 015e 7F6A     		ldr	r7, [r7, #36]
 747              	.LVL122:
 748 0160 2600     		movs	r6, r4
 749 0162 8023     		movs	r3, #128
 750 0164 1B06     		lsls	r3, r3, #24
 751 0166 FD18     		adds	r5, r7, r3
 752              	.LVL123:
 753              	.LBB12:
 754              	.LBB13:
   7:algorithm.c   ****     if (value > max_val) return max_val;
 755              		.loc 1 7 0
 756 0168 2200     		movs	r2, r4
 757 016a 2B00     		movs	r3, r5
 758 016c 0898     		ldr	r0, [sp, #32]
 759 016e 0A99     		ldr	r1, [sp, #40]
 760 0170 FFF7FEFF 		bl	__aeabi_dcmplt
 761              	.LVL124:
 762 0174 0028     		cmp	r0, #0
 763 0176 0BD1     		bne	.L20
   8:algorithm.c   ****     return value;
 764              		.loc 1 8 0
 765 0178 2200     		movs	r2, r4
 766 017a 3B00     		movs	r3, r7
 767 017c 0898     		ldr	r0, [sp, #32]
 768 017e 0A99     		ldr	r1, [sp, #40]
 769 0180 FFF7FEFF 		bl	__aeabi_dcmpgt
 770              	.LVL125:
 771 0184 0028     		cmp	r0, #0
 772 0186 01D0     		beq	.L29
 773 0188 3D00     		movs	r5, r7
 774              	.LVL126:
 775 018a 01E0     		b	.L20
 776              	.LVL127:
 777              	.L29:
   9:algorithm.c   **** }
 778              		.loc 1 9 0
 779 018c 089E     		ldr	r6, [sp, #32]
 780 018e 0A9D     		ldr	r5, [sp, #40]
 781              	.LVL128:
 782              	.L20:
 783              	.LBE13:
 784              	.LBE12:
 785              		.loc 1 101 0
 786 0190 3200     		movs	r2, r6
 787 0192 2B00     		movs	r3, r5
 788 0194 1F99     		ldr	r1, [sp, #124]
ARM GAS  C:\Users\SAIKAR~1\AppData\Local\Temp\cc2BPKwL.s 			page 17


 789 0196 0A60     		str	r2, [r1]
 790 0198 4B60     		str	r3, [r1, #4]
 102:algorithm.c   **** 
 103:algorithm.c   ****     return false;
 791              		.loc 1 103 0
 792 019a 0020     		movs	r0, #0
 793              	.LVL129:
 794              	.L17:
 104:algorithm.c   **** }
 795              		.loc 1 104 0
 796 019c 11B0     		add	sp, sp, #68
 797              		@ sp needed
 798 019e F0BC     		pop	{r4, r5, r6, r7}
 799 01a0 08BC     		pop	{r3}
 800 01a2 02B0     		add	sp, sp, #8
 801 01a4 1847     		bx	r3
 802              	.L31:
 803 01a6 C046     		.align	2
 804              	.L30:
 805 01a8 182D4454 		.word	1413754136
 806 01ac FB210940 		.word	1074340347
 807 01b0 00806640 		.word	1080459264
 808 01b4 FB21F93F 		.word	1073291771
 809              		.cfi_endproc
 810              	.LFE4:
 811              		.size	navigator_update, .-navigator_update
 812              		.text
 813              	.Letext0:
 814              		.file 2 "algorithm.h"
 815              		.file 3 "cordic.h"
 816              		.file 4 "e:\\acads\\uwm\\psoc creator\\4.4\\psoc creator\\import\\gnu\\arm\\5.4.1\\arm-none-eabi\\