ARM GAS  C:\Users\ERICHO~1\AppData\Local\Temp\ccLpjITj.s 			page 1


   1              		.syntax unified
   2              		.cpu cortex-m0
   3              		.fpu softvfp
   4              		.eabi_attribute 20, 1
   5              		.eabi_attribute 21, 1
   6              		.eabi_attribute 23, 3
   7              		.eabi_attribute 24, 1
   8              		.eabi_attribute 25, 1
   9              		.eabi_attribute 26, 1
  10              		.eabi_attribute 30, 1
  11              		.eabi_attribute 34, 0
  12              		.eabi_attribute 18, 4
  13              		.thumb
  14              		.syntax unified
  15              		.file	"AltISR.c"
  16              		.text
  17              	.Ltext0:
  18              		.cfi_sections	.debug_frame
  19              		.section	.text.AltISR_SetVector,"ax",%progbits
  20              		.align	2
  21              		.global	AltISR_SetVector
  22              		.code	16
  23              		.thumb_func
  24              		.type	AltISR_SetVector, %function
  25              	AltISR_SetVector:
  26              	.LFB5:
  27              		.file 1 "Generated_Source\\PSoC4\\AltISR.c"
   1:Generated_Source\PSoC4/AltISR.c **** /*******************************************************************************
   2:Generated_Source\PSoC4/AltISR.c **** * File Name: AltISR.c  
   3:Generated_Source\PSoC4/AltISR.c **** * Version 1.70
   4:Generated_Source\PSoC4/AltISR.c **** *
   5:Generated_Source\PSoC4/AltISR.c **** *  Description:
   6:Generated_Source\PSoC4/AltISR.c **** *   API for controlling the state of an interrupt.
   7:Generated_Source\PSoC4/AltISR.c **** *
   8:Generated_Source\PSoC4/AltISR.c **** *
   9:Generated_Source\PSoC4/AltISR.c **** *  Note:
  10:Generated_Source\PSoC4/AltISR.c **** *
  11:Generated_Source\PSoC4/AltISR.c **** ********************************************************************************
  12:Generated_Source\PSoC4/AltISR.c **** * Copyright 2008-2015, Cypress Semiconductor Corporation.  All rights reserved.
  13:Generated_Source\PSoC4/AltISR.c **** * You may use this file only in accordance with the license, terms, conditions, 
  14:Generated_Source\PSoC4/AltISR.c **** * disclaimers, and limitations in the end user license agreement accompanying 
  15:Generated_Source\PSoC4/AltISR.c **** * the software package with which this file was provided.
  16:Generated_Source\PSoC4/AltISR.c **** *******************************************************************************/
  17:Generated_Source\PSoC4/AltISR.c **** 
  18:Generated_Source\PSoC4/AltISR.c **** 
  19:Generated_Source\PSoC4/AltISR.c **** #include <cydevice_trm.h>
  20:Generated_Source\PSoC4/AltISR.c **** #include <CyLib.h>
  21:Generated_Source\PSoC4/AltISR.c **** #include <AltISR.h>
  22:Generated_Source\PSoC4/AltISR.c **** #include "cyapicallbacks.h"
  23:Generated_Source\PSoC4/AltISR.c **** 
  24:Generated_Source\PSoC4/AltISR.c **** #if !defined(AltISR__REMOVED) /* Check for removal by optimization */
  25:Generated_Source\PSoC4/AltISR.c **** 
  26:Generated_Source\PSoC4/AltISR.c **** /*******************************************************************************
  27:Generated_Source\PSoC4/AltISR.c **** *  Place your includes, defines and code here 
  28:Generated_Source\PSoC4/AltISR.c **** ********************************************************************************/
  29:Generated_Source\PSoC4/AltISR.c **** /* `#START AltISR_intc` */
  30:Generated_Source\PSoC4/AltISR.c ****   #include "main.h"
ARM GAS  C:\Users\ERICHO~1\AppData\Local\Temp\ccLpjITj.s 			page 2


  31:Generated_Source\PSoC4/AltISR.c **** /* `#END` */
  32:Generated_Source\PSoC4/AltISR.c **** 
  33:Generated_Source\PSoC4/AltISR.c **** extern cyisraddress CyRamVectors[CYINT_IRQ_BASE + CY_NUM_INTERRUPTS];
  34:Generated_Source\PSoC4/AltISR.c **** 
  35:Generated_Source\PSoC4/AltISR.c **** /* Declared in startup, used to set unused interrupts to. */
  36:Generated_Source\PSoC4/AltISR.c **** CY_ISR_PROTO(IntDefaultHandler);
  37:Generated_Source\PSoC4/AltISR.c **** 
  38:Generated_Source\PSoC4/AltISR.c **** 
  39:Generated_Source\PSoC4/AltISR.c **** /*******************************************************************************
  40:Generated_Source\PSoC4/AltISR.c **** * Function Name: AltISR_Start
  41:Generated_Source\PSoC4/AltISR.c **** ********************************************************************************
  42:Generated_Source\PSoC4/AltISR.c **** *
  43:Generated_Source\PSoC4/AltISR.c **** * Summary:
  44:Generated_Source\PSoC4/AltISR.c **** *  Set up the interrupt and enable it. This function disables the interrupt, 
  45:Generated_Source\PSoC4/AltISR.c **** *  sets the default interrupt vector, sets the priority from the value in the
  46:Generated_Source\PSoC4/AltISR.c **** *  Design Wide Resources Interrupt Editor, then enables the interrupt to the 
  47:Generated_Source\PSoC4/AltISR.c **** *  interrupt controller.
  48:Generated_Source\PSoC4/AltISR.c **** *
  49:Generated_Source\PSoC4/AltISR.c **** * Parameters:  
  50:Generated_Source\PSoC4/AltISR.c **** *   None
  51:Generated_Source\PSoC4/AltISR.c **** *
  52:Generated_Source\PSoC4/AltISR.c **** * Return:
  53:Generated_Source\PSoC4/AltISR.c **** *   None
  54:Generated_Source\PSoC4/AltISR.c **** *
  55:Generated_Source\PSoC4/AltISR.c **** *******************************************************************************/
  56:Generated_Source\PSoC4/AltISR.c **** void AltISR_Start(void)
  57:Generated_Source\PSoC4/AltISR.c **** {
  58:Generated_Source\PSoC4/AltISR.c ****     /* For all we know the interrupt is active. */
  59:Generated_Source\PSoC4/AltISR.c ****     AltISR_Disable();
  60:Generated_Source\PSoC4/AltISR.c **** 
  61:Generated_Source\PSoC4/AltISR.c ****     /* Set the ISR to point to the AltISR Interrupt. */
  62:Generated_Source\PSoC4/AltISR.c ****     AltISR_SetVector(&AltISR_Interrupt);
  63:Generated_Source\PSoC4/AltISR.c **** 
  64:Generated_Source\PSoC4/AltISR.c ****     /* Set the priority. */
  65:Generated_Source\PSoC4/AltISR.c ****     AltISR_SetPriority((uint8)AltISR_INTC_PRIOR_NUMBER);
  66:Generated_Source\PSoC4/AltISR.c **** 
  67:Generated_Source\PSoC4/AltISR.c ****     /* Enable it. */
  68:Generated_Source\PSoC4/AltISR.c ****     AltISR_Enable();
  69:Generated_Source\PSoC4/AltISR.c **** }
  70:Generated_Source\PSoC4/AltISR.c **** 
  71:Generated_Source\PSoC4/AltISR.c **** 
  72:Generated_Source\PSoC4/AltISR.c **** /*******************************************************************************
  73:Generated_Source\PSoC4/AltISR.c **** * Function Name: AltISR_StartEx
  74:Generated_Source\PSoC4/AltISR.c **** ********************************************************************************
  75:Generated_Source\PSoC4/AltISR.c **** *
  76:Generated_Source\PSoC4/AltISR.c **** * Summary:
  77:Generated_Source\PSoC4/AltISR.c **** *  Sets up the interrupt and enables it. This function disables the interrupt,
  78:Generated_Source\PSoC4/AltISR.c **** *  sets the interrupt vector based on the address passed in, sets the priority 
  79:Generated_Source\PSoC4/AltISR.c **** *  from the value in the Design Wide Resources Interrupt Editor, then enables 
  80:Generated_Source\PSoC4/AltISR.c **** *  the interrupt to the interrupt controller.
  81:Generated_Source\PSoC4/AltISR.c **** *  
  82:Generated_Source\PSoC4/AltISR.c **** *  When defining ISR functions, the CY_ISR and CY_ISR_PROTO macros should be 
  83:Generated_Source\PSoC4/AltISR.c **** *  used to provide consistent definition across compilers:
  84:Generated_Source\PSoC4/AltISR.c **** *  
  85:Generated_Source\PSoC4/AltISR.c **** *  Function definition example:
  86:Generated_Source\PSoC4/AltISR.c **** *   CY_ISR(MyISR)
  87:Generated_Source\PSoC4/AltISR.c **** *   {
ARM GAS  C:\Users\ERICHO~1\AppData\Local\Temp\ccLpjITj.s 			page 3


  88:Generated_Source\PSoC4/AltISR.c **** *   }
  89:Generated_Source\PSoC4/AltISR.c **** *   Function prototype example:
  90:Generated_Source\PSoC4/AltISR.c **** *   CY_ISR_PROTO(MyISR);
  91:Generated_Source\PSoC4/AltISR.c **** *
  92:Generated_Source\PSoC4/AltISR.c **** * Parameters:  
  93:Generated_Source\PSoC4/AltISR.c **** *   address: Address of the ISR to set in the interrupt vector table.
  94:Generated_Source\PSoC4/AltISR.c **** *
  95:Generated_Source\PSoC4/AltISR.c **** * Return:
  96:Generated_Source\PSoC4/AltISR.c **** *   None
  97:Generated_Source\PSoC4/AltISR.c **** *
  98:Generated_Source\PSoC4/AltISR.c **** *******************************************************************************/
  99:Generated_Source\PSoC4/AltISR.c **** void AltISR_StartEx(cyisraddress address)
 100:Generated_Source\PSoC4/AltISR.c **** {
 101:Generated_Source\PSoC4/AltISR.c ****     /* For all we know the interrupt is active. */
 102:Generated_Source\PSoC4/AltISR.c ****     AltISR_Disable();
 103:Generated_Source\PSoC4/AltISR.c **** 
 104:Generated_Source\PSoC4/AltISR.c ****     /* Set the ISR to point to the AltISR Interrupt. */
 105:Generated_Source\PSoC4/AltISR.c ****     AltISR_SetVector(address);
 106:Generated_Source\PSoC4/AltISR.c **** 
 107:Generated_Source\PSoC4/AltISR.c ****     /* Set the priority. */
 108:Generated_Source\PSoC4/AltISR.c ****     AltISR_SetPriority((uint8)AltISR_INTC_PRIOR_NUMBER);
 109:Generated_Source\PSoC4/AltISR.c **** 
 110:Generated_Source\PSoC4/AltISR.c ****     /* Enable it. */
 111:Generated_Source\PSoC4/AltISR.c ****     AltISR_Enable();
 112:Generated_Source\PSoC4/AltISR.c **** }
 113:Generated_Source\PSoC4/AltISR.c **** 
 114:Generated_Source\PSoC4/AltISR.c **** 
 115:Generated_Source\PSoC4/AltISR.c **** /*******************************************************************************
 116:Generated_Source\PSoC4/AltISR.c **** * Function Name: AltISR_Stop
 117:Generated_Source\PSoC4/AltISR.c **** ********************************************************************************
 118:Generated_Source\PSoC4/AltISR.c **** *
 119:Generated_Source\PSoC4/AltISR.c **** * Summary:
 120:Generated_Source\PSoC4/AltISR.c **** *   Disables and removes the interrupt.
 121:Generated_Source\PSoC4/AltISR.c **** *
 122:Generated_Source\PSoC4/AltISR.c **** * Parameters:  
 123:Generated_Source\PSoC4/AltISR.c **** *   None
 124:Generated_Source\PSoC4/AltISR.c **** *
 125:Generated_Source\PSoC4/AltISR.c **** * Return:
 126:Generated_Source\PSoC4/AltISR.c **** *   None
 127:Generated_Source\PSoC4/AltISR.c **** *
 128:Generated_Source\PSoC4/AltISR.c **** *******************************************************************************/
 129:Generated_Source\PSoC4/AltISR.c **** void AltISR_Stop(void)
 130:Generated_Source\PSoC4/AltISR.c **** {
 131:Generated_Source\PSoC4/AltISR.c ****     /* Disable this interrupt. */
 132:Generated_Source\PSoC4/AltISR.c ****     AltISR_Disable();
 133:Generated_Source\PSoC4/AltISR.c **** 
 134:Generated_Source\PSoC4/AltISR.c ****     /* Set the ISR to point to the passive one. */
 135:Generated_Source\PSoC4/AltISR.c ****     AltISR_SetVector(&IntDefaultHandler);
 136:Generated_Source\PSoC4/AltISR.c **** }
 137:Generated_Source\PSoC4/AltISR.c **** 
 138:Generated_Source\PSoC4/AltISR.c **** 
 139:Generated_Source\PSoC4/AltISR.c **** /*******************************************************************************
 140:Generated_Source\PSoC4/AltISR.c **** * Function Name: AltISR_Interrupt
 141:Generated_Source\PSoC4/AltISR.c **** ********************************************************************************
 142:Generated_Source\PSoC4/AltISR.c **** *
 143:Generated_Source\PSoC4/AltISR.c **** * Summary:
 144:Generated_Source\PSoC4/AltISR.c **** *   The default Interrupt Service Routine for AltISR.
ARM GAS  C:\Users\ERICHO~1\AppData\Local\Temp\ccLpjITj.s 			page 4


 145:Generated_Source\PSoC4/AltISR.c **** *
 146:Generated_Source\PSoC4/AltISR.c **** *   Add custom code between the START and END comments to keep the next version
 147:Generated_Source\PSoC4/AltISR.c **** *   of this file from over-writing your code.
 148:Generated_Source\PSoC4/AltISR.c **** *
 149:Generated_Source\PSoC4/AltISR.c **** *   Note You may use either the default ISR by using this API, or you may define
 150:Generated_Source\PSoC4/AltISR.c **** *   your own separate ISR through ISR_StartEx().
 151:Generated_Source\PSoC4/AltISR.c **** *
 152:Generated_Source\PSoC4/AltISR.c **** * Parameters:  
 153:Generated_Source\PSoC4/AltISR.c **** *   None
 154:Generated_Source\PSoC4/AltISR.c **** *
 155:Generated_Source\PSoC4/AltISR.c **** * Return:
 156:Generated_Source\PSoC4/AltISR.c **** *   None
 157:Generated_Source\PSoC4/AltISR.c **** *
 158:Generated_Source\PSoC4/AltISR.c **** *******************************************************************************/
 159:Generated_Source\PSoC4/AltISR.c **** CY_ISR(AltISR_Interrupt)
 160:Generated_Source\PSoC4/AltISR.c **** {
 161:Generated_Source\PSoC4/AltISR.c ****     #ifdef AltISR_INTERRUPT_INTERRUPT_CALLBACK
 162:Generated_Source\PSoC4/AltISR.c ****         AltISR_Interrupt_InterruptCallback();
 163:Generated_Source\PSoC4/AltISR.c ****     #endif /* AltISR_INTERRUPT_INTERRUPT_CALLBACK */ 
 164:Generated_Source\PSoC4/AltISR.c **** 
 165:Generated_Source\PSoC4/AltISR.c ****     /*  Place your Interrupt code here. */
 166:Generated_Source\PSoC4/AltISR.c ****     /* `#START AltISR_Interrupt` */
 167:Generated_Source\PSoC4/AltISR.c ****     CyGlobalIntDisable;
 168:Generated_Source\PSoC4/AltISR.c **** 
 169:Generated_Source\PSoC4/AltISR.c ****     // if (num_tasks<5) { enqueue_task(ALT_READ,0x02); }      // lower priority than GYRO_READ
 170:Generated_Source\PSoC4/AltISR.c ****     AltISR_ClearPending();
 171:Generated_Source\PSoC4/AltISR.c ****     
 172:Generated_Source\PSoC4/AltISR.c ****     CyGlobalIntEnable;
 173:Generated_Source\PSoC4/AltISR.c ****     
 174:Generated_Source\PSoC4/AltISR.c ****     /* `#END` */
 175:Generated_Source\PSoC4/AltISR.c **** }
 176:Generated_Source\PSoC4/AltISR.c **** 
 177:Generated_Source\PSoC4/AltISR.c **** 
 178:Generated_Source\PSoC4/AltISR.c **** /*******************************************************************************
 179:Generated_Source\PSoC4/AltISR.c **** * Function Name: AltISR_SetVector
 180:Generated_Source\PSoC4/AltISR.c **** ********************************************************************************
 181:Generated_Source\PSoC4/AltISR.c **** *
 182:Generated_Source\PSoC4/AltISR.c **** * Summary:
 183:Generated_Source\PSoC4/AltISR.c **** *   Change the ISR vector for the Interrupt. Note calling AltISR_Start
 184:Generated_Source\PSoC4/AltISR.c **** *   will override any effect this method would have had. To set the vector 
 185:Generated_Source\PSoC4/AltISR.c **** *   before the component has been started use AltISR_StartEx instead.
 186:Generated_Source\PSoC4/AltISR.c **** * 
 187:Generated_Source\PSoC4/AltISR.c **** *   When defining ISR functions, the CY_ISR and CY_ISR_PROTO macros should be 
 188:Generated_Source\PSoC4/AltISR.c **** *   used to provide consistent definition across compilers:
 189:Generated_Source\PSoC4/AltISR.c **** *
 190:Generated_Source\PSoC4/AltISR.c **** *   Function definition example:
 191:Generated_Source\PSoC4/AltISR.c **** *   CY_ISR(MyISR)
 192:Generated_Source\PSoC4/AltISR.c **** *   {
 193:Generated_Source\PSoC4/AltISR.c **** *   }
 194:Generated_Source\PSoC4/AltISR.c **** *
 195:Generated_Source\PSoC4/AltISR.c **** *   Function prototype example:
 196:Generated_Source\PSoC4/AltISR.c **** *     CY_ISR_PROTO(MyISR);
 197:Generated_Source\PSoC4/AltISR.c **** *
 198:Generated_Source\PSoC4/AltISR.c **** * Parameters:
 199:Generated_Source\PSoC4/AltISR.c **** *   address: Address of the ISR to set in the interrupt vector table.
 200:Generated_Source\PSoC4/AltISR.c **** *
 201:Generated_Source\PSoC4/AltISR.c **** * Return:
ARM GAS  C:\Users\ERICHO~1\AppData\Local\Temp\ccLpjITj.s 			page 5


 202:Generated_Source\PSoC4/AltISR.c **** *   None
 203:Generated_Source\PSoC4/AltISR.c **** *
 204:Generated_Source\PSoC4/AltISR.c **** *******************************************************************************/
 205:Generated_Source\PSoC4/AltISR.c **** void AltISR_SetVector(cyisraddress address)
 206:Generated_Source\PSoC4/AltISR.c **** {
  28              		.loc 1 206 0
  29              		.cfi_startproc
  30              		@ args = 0, pretend = 0, frame = 0
  31              		@ frame_needed = 0, uses_anonymous_args = 0
  32              		@ link register save eliminated.
  33              	.LVL0:
 207:Generated_Source\PSoC4/AltISR.c ****     CyRamVectors[CYINT_IRQ_BASE + AltISR__INTC_NUMBER] = address;
  34              		.loc 1 207 0
  35 0000 014B     		ldr	r3, .L2
  36 0002 5864     		str	r0, [r3, #68]
 208:Generated_Source\PSoC4/AltISR.c **** }
  37              		.loc 1 208 0
  38              		@ sp needed
  39 0004 7047     		bx	lr
  40              	.L3:
  41 0006 C046     		.align	2
  42              	.L2:
  43 0008 00000000 		.word	CyRamVectors
  44              		.cfi_endproc
  45              	.LFE5:
  46              		.size	AltISR_SetVector, .-AltISR_SetVector
  47              		.section	.text.AltISR_GetVector,"ax",%progbits
  48              		.align	2
  49              		.global	AltISR_GetVector
  50              		.code	16
  51              		.thumb_func
  52              		.type	AltISR_GetVector, %function
  53              	AltISR_GetVector:
  54              	.LFB6:
 209:Generated_Source\PSoC4/AltISR.c **** 
 210:Generated_Source\PSoC4/AltISR.c **** 
 211:Generated_Source\PSoC4/AltISR.c **** /*******************************************************************************
 212:Generated_Source\PSoC4/AltISR.c **** * Function Name: AltISR_GetVector
 213:Generated_Source\PSoC4/AltISR.c **** ********************************************************************************
 214:Generated_Source\PSoC4/AltISR.c **** *
 215:Generated_Source\PSoC4/AltISR.c **** * Summary:
 216:Generated_Source\PSoC4/AltISR.c **** *   Gets the "address" of the current ISR vector for the Interrupt.
 217:Generated_Source\PSoC4/AltISR.c **** *
 218:Generated_Source\PSoC4/AltISR.c **** * Parameters:
 219:Generated_Source\PSoC4/AltISR.c **** *   None
 220:Generated_Source\PSoC4/AltISR.c **** *
 221:Generated_Source\PSoC4/AltISR.c **** * Return:
 222:Generated_Source\PSoC4/AltISR.c **** *   Address of the ISR in the interrupt vector table.
 223:Generated_Source\PSoC4/AltISR.c **** *
 224:Generated_Source\PSoC4/AltISR.c **** *******************************************************************************/
 225:Generated_Source\PSoC4/AltISR.c **** cyisraddress AltISR_GetVector(void)
 226:Generated_Source\PSoC4/AltISR.c **** {
  55              		.loc 1 226 0
  56              		.cfi_startproc
  57              		@ args = 0, pretend = 0, frame = 0
  58              		@ frame_needed = 0, uses_anonymous_args = 0
  59              		@ link register save eliminated.
ARM GAS  C:\Users\ERICHO~1\AppData\Local\Temp\ccLpjITj.s 			page 6


 227:Generated_Source\PSoC4/AltISR.c ****     return CyRamVectors[CYINT_IRQ_BASE + AltISR__INTC_NUMBER];
  60              		.loc 1 227 0
  61 0000 014B     		ldr	r3, .L5
  62 0002 586C     		ldr	r0, [r3, #68]
 228:Generated_Source\PSoC4/AltISR.c **** }
  63              		.loc 1 228 0
  64              		@ sp needed
  65 0004 7047     		bx	lr
  66              	.L6:
  67 0006 C046     		.align	2
  68              	.L5:
  69 0008 00000000 		.word	CyRamVectors
  70              		.cfi_endproc
  71              	.LFE6:
  72              		.size	AltISR_GetVector, .-AltISR_GetVector
  73              		.section	.text.AltISR_SetPriority,"ax",%progbits
  74              		.align	2
  75              		.global	AltISR_SetPriority
  76              		.code	16
  77              		.thumb_func
  78              		.type	AltISR_SetPriority, %function
  79              	AltISR_SetPriority:
  80              	.LFB7:
 229:Generated_Source\PSoC4/AltISR.c **** 
 230:Generated_Source\PSoC4/AltISR.c **** 
 231:Generated_Source\PSoC4/AltISR.c **** /*******************************************************************************
 232:Generated_Source\PSoC4/AltISR.c **** * Function Name: AltISR_SetPriority
 233:Generated_Source\PSoC4/AltISR.c **** ********************************************************************************
 234:Generated_Source\PSoC4/AltISR.c **** *
 235:Generated_Source\PSoC4/AltISR.c **** * Summary:
 236:Generated_Source\PSoC4/AltISR.c **** *   Sets the Priority of the Interrupt. 
 237:Generated_Source\PSoC4/AltISR.c **** *
 238:Generated_Source\PSoC4/AltISR.c **** *   Note calling AltISR_Start or AltISR_StartEx will 
 239:Generated_Source\PSoC4/AltISR.c **** *   override any effect this API would have had. This API should only be called
 240:Generated_Source\PSoC4/AltISR.c **** *   after AltISR_Start or AltISR_StartEx has been called. 
 241:Generated_Source\PSoC4/AltISR.c **** *   To set the initial priority for the component, use the Design-Wide Resources
 242:Generated_Source\PSoC4/AltISR.c **** *   Interrupt Editor.
 243:Generated_Source\PSoC4/AltISR.c **** *
 244:Generated_Source\PSoC4/AltISR.c **** *   Note This API has no effect on Non-maskable interrupt NMI).
 245:Generated_Source\PSoC4/AltISR.c **** *
 246:Generated_Source\PSoC4/AltISR.c **** * Parameters:
 247:Generated_Source\PSoC4/AltISR.c **** *   priority: Priority of the interrupt, 0 being the highest priority
 248:Generated_Source\PSoC4/AltISR.c **** *             PSoC 3 and PSoC 5LP: Priority is from 0 to 7.
 249:Generated_Source\PSoC4/AltISR.c **** *             PSoC 4: Priority is from 0 to 3.
 250:Generated_Source\PSoC4/AltISR.c **** *
 251:Generated_Source\PSoC4/AltISR.c **** * Return:
 252:Generated_Source\PSoC4/AltISR.c **** *   None
 253:Generated_Source\PSoC4/AltISR.c **** *
 254:Generated_Source\PSoC4/AltISR.c **** *******************************************************************************/
 255:Generated_Source\PSoC4/AltISR.c **** void AltISR_SetPriority(uint8 priority)
 256:Generated_Source\PSoC4/AltISR.c **** {
  81              		.loc 1 256 0
  82              		.cfi_startproc
  83              		@ args = 0, pretend = 0, frame = 0
  84              		@ frame_needed = 0, uses_anonymous_args = 0
  85              	.LVL1:
  86 0000 10B5     		push	{r4, lr}
ARM GAS  C:\Users\ERICHO~1\AppData\Local\Temp\ccLpjITj.s 			page 7


  87              		.cfi_def_cfa_offset 8
  88              		.cfi_offset 4, -8
  89              		.cfi_offset 14, -4
  90 0002 0400     		movs	r4, r0
  91              	.LVL2:
 257:Generated_Source\PSoC4/AltISR.c **** 	uint8 interruptState;
 258:Generated_Source\PSoC4/AltISR.c ****     uint32 priorityOffset = ((AltISR__INTC_NUMBER % 4u) * 8u) + 6u;
 259:Generated_Source\PSoC4/AltISR.c ****     
 260:Generated_Source\PSoC4/AltISR.c **** 	interruptState = CyEnterCriticalSection();
  92              		.loc 1 260 0
  93 0004 FFF7FEFF 		bl	CyEnterCriticalSection
  94              	.LVL3:
 261:Generated_Source\PSoC4/AltISR.c ****     *AltISR_INTC_PRIOR = (*AltISR_INTC_PRIOR & (uint32)(~AltISR__INTC_PRIOR_MASK)) |
  95              		.loc 1 261 0
  96 0008 044A     		ldr	r2, .L8
  97 000a 1168     		ldr	r1, [r2]
  98 000c 044B     		ldr	r3, .L8+4
  99 000e 0B40     		ands	r3, r1
 262:Generated_Source\PSoC4/AltISR.c ****                                     ((uint32)priority << priorityOffset);
 100              		.loc 1 262 0
 101 0010 A403     		lsls	r4, r4, #14
 261:Generated_Source\PSoC4/AltISR.c ****     *AltISR_INTC_PRIOR = (*AltISR_INTC_PRIOR & (uint32)(~AltISR__INTC_PRIOR_MASK)) |
 102              		.loc 1 261 0
 103 0012 1C43     		orrs	r4, r3
 104 0014 1460     		str	r4, [r2]
 263:Generated_Source\PSoC4/AltISR.c **** 	CyExitCriticalSection(interruptState);
 105              		.loc 1 263 0
 106 0016 FFF7FEFF 		bl	CyExitCriticalSection
 107              	.LVL4:
 264:Generated_Source\PSoC4/AltISR.c **** }
 108              		.loc 1 264 0
 109              		@ sp needed
 110 001a 10BD     		pop	{r4, pc}
 111              	.L9:
 112              		.align	2
 113              	.L8:
 114 001c 00E400E0 		.word	-536812544
 115 0020 FF3FFFFF 		.word	-49153
 116              		.cfi_endproc
 117              	.LFE7:
 118              		.size	AltISR_SetPriority, .-AltISR_SetPriority
 119              		.section	.text.AltISR_GetPriority,"ax",%progbits
 120              		.align	2
 121              		.global	AltISR_GetPriority
 122              		.code	16
 123              		.thumb_func
 124              		.type	AltISR_GetPriority, %function
 125              	AltISR_GetPriority:
 126              	.LFB8:
 265:Generated_Source\PSoC4/AltISR.c **** 
 266:Generated_Source\PSoC4/AltISR.c **** 
 267:Generated_Source\PSoC4/AltISR.c **** /*******************************************************************************
 268:Generated_Source\PSoC4/AltISR.c **** * Function Name: AltISR_GetPriority
 269:Generated_Source\PSoC4/AltISR.c **** ********************************************************************************
 270:Generated_Source\PSoC4/AltISR.c **** *
 271:Generated_Source\PSoC4/AltISR.c **** * Summary:
 272:Generated_Source\PSoC4/AltISR.c **** *   Gets the Priority of the Interrupt.
ARM GAS  C:\Users\ERICHO~1\AppData\Local\Temp\ccLpjITj.s 			page 8


 273:Generated_Source\PSoC4/AltISR.c **** *
 274:Generated_Source\PSoC4/AltISR.c **** * Parameters:
 275:Generated_Source\PSoC4/AltISR.c **** *   None
 276:Generated_Source\PSoC4/AltISR.c **** *
 277:Generated_Source\PSoC4/AltISR.c **** * Return:
 278:Generated_Source\PSoC4/AltISR.c **** *   Priority of the interrupt, 0 being the highest priority
 279:Generated_Source\PSoC4/AltISR.c **** *    PSoC 3 and PSoC 5LP: Priority is from 0 to 7.
 280:Generated_Source\PSoC4/AltISR.c **** *    PSoC 4: Priority is from 0 to 3.
 281:Generated_Source\PSoC4/AltISR.c **** *
 282:Generated_Source\PSoC4/AltISR.c **** *******************************************************************************/
 283:Generated_Source\PSoC4/AltISR.c **** uint8 AltISR_GetPriority(void)
 284:Generated_Source\PSoC4/AltISR.c **** {
 127              		.loc 1 284 0
 128              		.cfi_startproc
 129              		@ args = 0, pretend = 0, frame = 0
 130              		@ frame_needed = 0, uses_anonymous_args = 0
 131              		@ link register save eliminated.
 132              	.LVL5:
 285:Generated_Source\PSoC4/AltISR.c ****     uint32 priority;
 286:Generated_Source\PSoC4/AltISR.c **** 	uint32 priorityOffset = ((AltISR__INTC_NUMBER % 4u) * 8u) + 6u;
 287:Generated_Source\PSoC4/AltISR.c **** 
 288:Generated_Source\PSoC4/AltISR.c ****     priority = (*AltISR_INTC_PRIOR & AltISR__INTC_PRIOR_MASK) >> priorityOffset;
 133              		.loc 1 288 0
 134 0000 024B     		ldr	r3, .L11
 135 0002 1868     		ldr	r0, [r3]
 136 0004 800B     		lsrs	r0, r0, #14
 137              	.LVL6:
 289:Generated_Source\PSoC4/AltISR.c **** 
 290:Generated_Source\PSoC4/AltISR.c ****     return (uint8)priority;
 138              		.loc 1 290 0
 139 0006 0323     		movs	r3, #3
 140 0008 1840     		ands	r0, r3
 141              	.LVL7:
 291:Generated_Source\PSoC4/AltISR.c **** }
 142              		.loc 1 291 0
 143              		@ sp needed
 144 000a 7047     		bx	lr
 145              	.L12:
 146              		.align	2
 147              	.L11:
 148 000c 00E400E0 		.word	-536812544
 149              		.cfi_endproc
 150              	.LFE8:
 151              		.size	AltISR_GetPriority, .-AltISR_GetPriority
 152              		.section	.text.AltISR_Enable,"ax",%progbits
 153              		.align	2
 154              		.global	AltISR_Enable
 155              		.code	16
 156              		.thumb_func
 157              		.type	AltISR_Enable, %function
 158              	AltISR_Enable:
 159              	.LFB9:
 292:Generated_Source\PSoC4/AltISR.c **** 
 293:Generated_Source\PSoC4/AltISR.c **** 
 294:Generated_Source\PSoC4/AltISR.c **** /*******************************************************************************
 295:Generated_Source\PSoC4/AltISR.c **** * Function Name: AltISR_Enable
 296:Generated_Source\PSoC4/AltISR.c **** ********************************************************************************
ARM GAS  C:\Users\ERICHO~1\AppData\Local\Temp\ccLpjITj.s 			page 9


 297:Generated_Source\PSoC4/AltISR.c **** *
 298:Generated_Source\PSoC4/AltISR.c **** * Summary:
 299:Generated_Source\PSoC4/AltISR.c **** *   Enables the interrupt to the interrupt controller. Do not call this function
 300:Generated_Source\PSoC4/AltISR.c **** *   unless ISR_Start() has been called or the functionality of the ISR_Start() 
 301:Generated_Source\PSoC4/AltISR.c **** *   function, which sets the vector and the priority, has been called.
 302:Generated_Source\PSoC4/AltISR.c **** *
 303:Generated_Source\PSoC4/AltISR.c **** * Parameters:
 304:Generated_Source\PSoC4/AltISR.c **** *   None
 305:Generated_Source\PSoC4/AltISR.c **** *
 306:Generated_Source\PSoC4/AltISR.c **** * Return:
 307:Generated_Source\PSoC4/AltISR.c **** *   None
 308:Generated_Source\PSoC4/AltISR.c **** *
 309:Generated_Source\PSoC4/AltISR.c **** *******************************************************************************/
 310:Generated_Source\PSoC4/AltISR.c **** void AltISR_Enable(void)
 311:Generated_Source\PSoC4/AltISR.c **** {
 160              		.loc 1 311 0
 161              		.cfi_startproc
 162              		@ args = 0, pretend = 0, frame = 0
 163              		@ frame_needed = 0, uses_anonymous_args = 0
 164              		@ link register save eliminated.
 312:Generated_Source\PSoC4/AltISR.c ****     /* Enable the general interrupt. */
 313:Generated_Source\PSoC4/AltISR.c ****     *AltISR_INTC_SET_EN = AltISR__INTC_MASK;
 165              		.loc 1 313 0
 166 0000 0222     		movs	r2, #2
 167 0002 014B     		ldr	r3, .L14
 168 0004 1A60     		str	r2, [r3]
 314:Generated_Source\PSoC4/AltISR.c **** }
 169              		.loc 1 314 0
 170              		@ sp needed
 171 0006 7047     		bx	lr
 172              	.L15:
 173              		.align	2
 174              	.L14:
 175 0008 00E100E0 		.word	-536813312
 176              		.cfi_endproc
 177              	.LFE9:
 178              		.size	AltISR_Enable, .-AltISR_Enable
 179              		.section	.text.AltISR_GetState,"ax",%progbits
 180              		.align	2
 181              		.global	AltISR_GetState
 182              		.code	16
 183              		.thumb_func
 184              		.type	AltISR_GetState, %function
 185              	AltISR_GetState:
 186              	.LFB10:
 315:Generated_Source\PSoC4/AltISR.c **** 
 316:Generated_Source\PSoC4/AltISR.c **** 
 317:Generated_Source\PSoC4/AltISR.c **** /*******************************************************************************
 318:Generated_Source\PSoC4/AltISR.c **** * Function Name: AltISR_GetState
 319:Generated_Source\PSoC4/AltISR.c **** ********************************************************************************
 320:Generated_Source\PSoC4/AltISR.c **** *
 321:Generated_Source\PSoC4/AltISR.c **** * Summary:
 322:Generated_Source\PSoC4/AltISR.c **** *   Gets the state (enabled, disabled) of the Interrupt.
 323:Generated_Source\PSoC4/AltISR.c **** *
 324:Generated_Source\PSoC4/AltISR.c **** * Parameters:
 325:Generated_Source\PSoC4/AltISR.c **** *   None
 326:Generated_Source\PSoC4/AltISR.c **** *
ARM GAS  C:\Users\ERICHO~1\AppData\Local\Temp\ccLpjITj.s 			page 10


 327:Generated_Source\PSoC4/AltISR.c **** * Return:
 328:Generated_Source\PSoC4/AltISR.c **** *   1 if enabled, 0 if disabled.
 329:Generated_Source\PSoC4/AltISR.c **** *
 330:Generated_Source\PSoC4/AltISR.c **** *******************************************************************************/
 331:Generated_Source\PSoC4/AltISR.c **** uint8 AltISR_GetState(void)
 332:Generated_Source\PSoC4/AltISR.c **** {
 187              		.loc 1 332 0
 188              		.cfi_startproc
 189              		@ args = 0, pretend = 0, frame = 0
 190              		@ frame_needed = 0, uses_anonymous_args = 0
 191              		@ link register save eliminated.
 333:Generated_Source\PSoC4/AltISR.c ****     /* Get the state of the general interrupt. */
 334:Generated_Source\PSoC4/AltISR.c ****     return ((*AltISR_INTC_SET_EN & (uint32)AltISR__INTC_MASK) != 0u) ? 1u:0u;
 192              		.loc 1 334 0
 193 0000 034B     		ldr	r3, .L19
 194 0002 1B68     		ldr	r3, [r3]
 195 0004 9B07     		lsls	r3, r3, #30
 196 0006 01D5     		bpl	.L18
 197 0008 0120     		movs	r0, #1
 198 000a 00E0     		b	.L17
 199              	.L18:
 200 000c 0020     		movs	r0, #0
 201              	.L17:
 335:Generated_Source\PSoC4/AltISR.c **** }
 202              		.loc 1 335 0 discriminator 4
 203              		@ sp needed
 204 000e 7047     		bx	lr
 205              	.L20:
 206              		.align	2
 207              	.L19:
 208 0010 00E100E0 		.word	-536813312
 209              		.cfi_endproc
 210              	.LFE10:
 211              		.size	AltISR_GetState, .-AltISR_GetState
 212              		.section	.text.AltISR_Disable,"ax",%progbits
 213              		.align	2
 214              		.global	AltISR_Disable
 215              		.code	16
 216              		.thumb_func
 217              		.type	AltISR_Disable, %function
 218              	AltISR_Disable:
 219              	.LFB11:
 336:Generated_Source\PSoC4/AltISR.c **** 
 337:Generated_Source\PSoC4/AltISR.c **** 
 338:Generated_Source\PSoC4/AltISR.c **** /*******************************************************************************
 339:Generated_Source\PSoC4/AltISR.c **** * Function Name: AltISR_Disable
 340:Generated_Source\PSoC4/AltISR.c **** ********************************************************************************
 341:Generated_Source\PSoC4/AltISR.c **** *
 342:Generated_Source\PSoC4/AltISR.c **** * Summary:
 343:Generated_Source\PSoC4/AltISR.c **** *   Disables the Interrupt in the interrupt controller.
 344:Generated_Source\PSoC4/AltISR.c **** *
 345:Generated_Source\PSoC4/AltISR.c **** * Parameters:
 346:Generated_Source\PSoC4/AltISR.c **** *   None
 347:Generated_Source\PSoC4/AltISR.c **** *
 348:Generated_Source\PSoC4/AltISR.c **** * Return:
 349:Generated_Source\PSoC4/AltISR.c **** *   None
 350:Generated_Source\PSoC4/AltISR.c **** *
ARM GAS  C:\Users\ERICHO~1\AppData\Local\Temp\ccLpjITj.s 			page 11


 351:Generated_Source\PSoC4/AltISR.c **** *******************************************************************************/
 352:Generated_Source\PSoC4/AltISR.c **** void AltISR_Disable(void)
 353:Generated_Source\PSoC4/AltISR.c **** {
 220              		.loc 1 353 0
 221              		.cfi_startproc
 222              		@ args = 0, pretend = 0, frame = 0
 223              		@ frame_needed = 0, uses_anonymous_args = 0
 224              		@ link register save eliminated.
 354:Generated_Source\PSoC4/AltISR.c ****     /* Disable the general interrupt. */
 355:Generated_Source\PSoC4/AltISR.c ****     *AltISR_INTC_CLR_EN = AltISR__INTC_MASK;
 225              		.loc 1 355 0
 226 0000 0222     		movs	r2, #2
 227 0002 014B     		ldr	r3, .L22
 228 0004 1A60     		str	r2, [r3]
 356:Generated_Source\PSoC4/AltISR.c **** }
 229              		.loc 1 356 0
 230              		@ sp needed
 231 0006 7047     		bx	lr
 232              	.L23:
 233              		.align	2
 234              	.L22:
 235 0008 80E100E0 		.word	-536813184
 236              		.cfi_endproc
 237              	.LFE11:
 238              		.size	AltISR_Disable, .-AltISR_Disable
 239              		.section	.text.AltISR_Start,"ax",%progbits
 240              		.align	2
 241              		.global	AltISR_Start
 242              		.code	16
 243              		.thumb_func
 244              		.type	AltISR_Start, %function
 245              	AltISR_Start:
 246              	.LFB1:
  57:Generated_Source\PSoC4/AltISR.c ****     /* For all we know the interrupt is active. */
 247              		.loc 1 57 0
 248              		.cfi_startproc
 249              		@ args = 0, pretend = 0, frame = 0
 250              		@ frame_needed = 0, uses_anonymous_args = 0
 251 0000 10B5     		push	{r4, lr}
 252              		.cfi_def_cfa_offset 8
 253              		.cfi_offset 4, -8
 254              		.cfi_offset 14, -4
  59:Generated_Source\PSoC4/AltISR.c **** 
 255              		.loc 1 59 0
 256 0002 FFF7FEFF 		bl	AltISR_Disable
 257              	.LVL8:
  62:Generated_Source\PSoC4/AltISR.c **** 
 258              		.loc 1 62 0
 259 0006 0448     		ldr	r0, .L25
 260 0008 FFF7FEFF 		bl	AltISR_SetVector
 261              	.LVL9:
  65:Generated_Source\PSoC4/AltISR.c **** 
 262              		.loc 1 65 0
 263 000c 0320     		movs	r0, #3
 264 000e FFF7FEFF 		bl	AltISR_SetPriority
 265              	.LVL10:
  68:Generated_Source\PSoC4/AltISR.c **** }
ARM GAS  C:\Users\ERICHO~1\AppData\Local\Temp\ccLpjITj.s 			page 12


 266              		.loc 1 68 0
 267 0012 FFF7FEFF 		bl	AltISR_Enable
 268              	.LVL11:
  69:Generated_Source\PSoC4/AltISR.c **** 
 269              		.loc 1 69 0
 270              		@ sp needed
 271 0016 10BD     		pop	{r4, pc}
 272              	.L26:
 273              		.align	2
 274              	.L25:
 275 0018 00000000 		.word	AltISR_Interrupt
 276              		.cfi_endproc
 277              	.LFE1:
 278              		.size	AltISR_Start, .-AltISR_Start
 279              		.section	.text.AltISR_StartEx,"ax",%progbits
 280              		.align	2
 281              		.global	AltISR_StartEx
 282              		.code	16
 283              		.thumb_func
 284              		.type	AltISR_StartEx, %function
 285              	AltISR_StartEx:
 286              	.LFB2:
 100:Generated_Source\PSoC4/AltISR.c ****     /* For all we know the interrupt is active. */
 287              		.loc 1 100 0
 288              		.cfi_startproc
 289              		@ args = 0, pretend = 0, frame = 0
 290              		@ frame_needed = 0, uses_anonymous_args = 0
 291              	.LVL12:
 292 0000 10B5     		push	{r4, lr}
 293              		.cfi_def_cfa_offset 8
 294              		.cfi_offset 4, -8
 295              		.cfi_offset 14, -4
 296 0002 0400     		movs	r4, r0
 102:Generated_Source\PSoC4/AltISR.c **** 
 297              		.loc 1 102 0
 298 0004 FFF7FEFF 		bl	AltISR_Disable
 299              	.LVL13:
 105:Generated_Source\PSoC4/AltISR.c **** 
 300              		.loc 1 105 0
 301 0008 2000     		movs	r0, r4
 302 000a FFF7FEFF 		bl	AltISR_SetVector
 303              	.LVL14:
 108:Generated_Source\PSoC4/AltISR.c **** 
 304              		.loc 1 108 0
 305 000e 0320     		movs	r0, #3
 306 0010 FFF7FEFF 		bl	AltISR_SetPriority
 307              	.LVL15:
 111:Generated_Source\PSoC4/AltISR.c **** }
 308              		.loc 1 111 0
 309 0014 FFF7FEFF 		bl	AltISR_Enable
 310              	.LVL16:
 112:Generated_Source\PSoC4/AltISR.c **** 
 311              		.loc 1 112 0
 312              		@ sp needed
 313              	.LVL17:
 314 0018 10BD     		pop	{r4, pc}
 315              		.cfi_endproc
ARM GAS  C:\Users\ERICHO~1\AppData\Local\Temp\ccLpjITj.s 			page 13


 316              	.LFE2:
 317              		.size	AltISR_StartEx, .-AltISR_StartEx
 318 001a C046     		.section	.text.AltISR_Stop,"ax",%progbits
 319              		.align	2
 320              		.global	AltISR_Stop
 321              		.code	16
 322              		.thumb_func
 323              		.type	AltISR_Stop, %function
 324              	AltISR_Stop:
 325              	.LFB3:
 130:Generated_Source\PSoC4/AltISR.c ****     /* Disable this interrupt. */
 326              		.loc 1 130 0
 327              		.cfi_startproc
 328              		@ args = 0, pretend = 0, frame = 0
 329              		@ frame_needed = 0, uses_anonymous_args = 0
 330 0000 10B5     		push	{r4, lr}
 331              		.cfi_def_cfa_offset 8
 332              		.cfi_offset 4, -8
 333              		.cfi_offset 14, -4
 132:Generated_Source\PSoC4/AltISR.c **** 
 334              		.loc 1 132 0
 335 0002 FFF7FEFF 		bl	AltISR_Disable
 336              	.LVL18:
 135:Generated_Source\PSoC4/AltISR.c **** }
 337              		.loc 1 135 0
 338 0006 0248     		ldr	r0, .L29
 339 0008 FFF7FEFF 		bl	AltISR_SetVector
 340              	.LVL19:
 136:Generated_Source\PSoC4/AltISR.c **** 
 341              		.loc 1 136 0
 342              		@ sp needed
 343 000c 10BD     		pop	{r4, pc}
 344              	.L30:
 345 000e C046     		.align	2
 346              	.L29:
 347 0010 00000000 		.word	IntDefaultHandler
 348              		.cfi_endproc
 349              	.LFE3:
 350              		.size	AltISR_Stop, .-AltISR_Stop
 351              		.section	.text.AltISR_SetPending,"ax",%progbits
 352              		.align	2
 353              		.global	AltISR_SetPending
 354              		.code	16
 355              		.thumb_func
 356              		.type	AltISR_SetPending, %function
 357              	AltISR_SetPending:
 358              	.LFB12:
 357:Generated_Source\PSoC4/AltISR.c **** 
 358:Generated_Source\PSoC4/AltISR.c **** 
 359:Generated_Source\PSoC4/AltISR.c **** /*******************************************************************************
 360:Generated_Source\PSoC4/AltISR.c **** * Function Name: AltISR_SetPending
 361:Generated_Source\PSoC4/AltISR.c **** ********************************************************************************
 362:Generated_Source\PSoC4/AltISR.c **** *
 363:Generated_Source\PSoC4/AltISR.c **** * Summary:
 364:Generated_Source\PSoC4/AltISR.c **** *   Causes the Interrupt to enter the pending state, a software method of
 365:Generated_Source\PSoC4/AltISR.c **** *   generating the interrupt.
 366:Generated_Source\PSoC4/AltISR.c **** *
ARM GAS  C:\Users\ERICHO~1\AppData\Local\Temp\ccLpjITj.s 			page 14


 367:Generated_Source\PSoC4/AltISR.c **** * Parameters:
 368:Generated_Source\PSoC4/AltISR.c **** *   None
 369:Generated_Source\PSoC4/AltISR.c **** *
 370:Generated_Source\PSoC4/AltISR.c **** * Return:
 371:Generated_Source\PSoC4/AltISR.c **** *   None
 372:Generated_Source\PSoC4/AltISR.c **** *
 373:Generated_Source\PSoC4/AltISR.c **** * Side Effects:
 374:Generated_Source\PSoC4/AltISR.c **** *   If interrupts are enabled and the interrupt is set up properly, the ISR is
 375:Generated_Source\PSoC4/AltISR.c **** *   entered (depending on the priority of this interrupt and other pending 
 376:Generated_Source\PSoC4/AltISR.c **** *   interrupts).
 377:Generated_Source\PSoC4/AltISR.c **** *
 378:Generated_Source\PSoC4/AltISR.c **** *******************************************************************************/
 379:Generated_Source\PSoC4/AltISR.c **** void AltISR_SetPending(void)
 380:Generated_Source\PSoC4/AltISR.c **** {
 359              		.loc 1 380 0
 360              		.cfi_startproc
 361              		@ args = 0, pretend = 0, frame = 0
 362              		@ frame_needed = 0, uses_anonymous_args = 0
 363              		@ link register save eliminated.
 381:Generated_Source\PSoC4/AltISR.c ****     *AltISR_INTC_SET_PD = AltISR__INTC_MASK;
 364              		.loc 1 381 0
 365 0000 0222     		movs	r2, #2
 366 0002 014B     		ldr	r3, .L32
 367 0004 1A60     		str	r2, [r3]
 382:Generated_Source\PSoC4/AltISR.c **** }
 368              		.loc 1 382 0
 369              		@ sp needed
 370 0006 7047     		bx	lr
 371              	.L33:
 372              		.align	2
 373              	.L32:
 374 0008 00E200E0 		.word	-536813056
 375              		.cfi_endproc
 376              	.LFE12:
 377              		.size	AltISR_SetPending, .-AltISR_SetPending
 378              		.section	.text.AltISR_ClearPending,"ax",%progbits
 379              		.align	2
 380              		.global	AltISR_ClearPending
 381              		.code	16
 382              		.thumb_func
 383              		.type	AltISR_ClearPending, %function
 384              	AltISR_ClearPending:
 385              	.LFB13:
 383:Generated_Source\PSoC4/AltISR.c **** 
 384:Generated_Source\PSoC4/AltISR.c **** 
 385:Generated_Source\PSoC4/AltISR.c **** /*******************************************************************************
 386:Generated_Source\PSoC4/AltISR.c **** * Function Name: AltISR_ClearPending
 387:Generated_Source\PSoC4/AltISR.c **** ********************************************************************************
 388:Generated_Source\PSoC4/AltISR.c **** *
 389:Generated_Source\PSoC4/AltISR.c **** * Summary:
 390:Generated_Source\PSoC4/AltISR.c **** *   Clears a pending interrupt in the interrupt controller.
 391:Generated_Source\PSoC4/AltISR.c **** *
 392:Generated_Source\PSoC4/AltISR.c **** *   Note Some interrupt sources are clear-on-read and require the block 
 393:Generated_Source\PSoC4/AltISR.c **** *   interrupt/status register to be read/cleared with the appropriate block API 
 394:Generated_Source\PSoC4/AltISR.c **** *   (GPIO, UART, and so on). Otherwise the ISR will continue to remain in 
 395:Generated_Source\PSoC4/AltISR.c **** *   pending state even though the interrupt itself is cleared using this API.
 396:Generated_Source\PSoC4/AltISR.c **** *
ARM GAS  C:\Users\ERICHO~1\AppData\Local\Temp\ccLpjITj.s 			page 15


 397:Generated_Source\PSoC4/AltISR.c **** * Parameters:
 398:Generated_Source\PSoC4/AltISR.c **** *   None
 399:Generated_Source\PSoC4/AltISR.c **** *
 400:Generated_Source\PSoC4/AltISR.c **** * Return:
 401:Generated_Source\PSoC4/AltISR.c **** *   None
 402:Generated_Source\PSoC4/AltISR.c **** *
 403:Generated_Source\PSoC4/AltISR.c **** *******************************************************************************/
 404:Generated_Source\PSoC4/AltISR.c **** void AltISR_ClearPending(void)
 405:Generated_Source\PSoC4/AltISR.c **** {
 386              		.loc 1 405 0
 387              		.cfi_startproc
 388              		@ args = 0, pretend = 0, frame = 0
 389              		@ frame_needed = 0, uses_anonymous_args = 0
 390              		@ link register save eliminated.
 406:Generated_Source\PSoC4/AltISR.c ****     *AltISR_INTC_CLR_PD = AltISR__INTC_MASK;
 391              		.loc 1 406 0
 392 0000 0222     		movs	r2, #2
 393 0002 014B     		ldr	r3, .L35
 394 0004 1A60     		str	r2, [r3]
 407:Generated_Source\PSoC4/AltISR.c **** }
 395              		.loc 1 407 0
 396              		@ sp needed
 397 0006 7047     		bx	lr
 398              	.L36:
 399              		.align	2
 400              	.L35:
 401 0008 80E200E0 		.word	-536812928
 402              		.cfi_endproc
 403              	.LFE13:
 404              		.size	AltISR_ClearPending, .-AltISR_ClearPending
 405              		.section	.text.AltISR_Interrupt,"ax",%progbits
 406              		.align	2
 407              		.global	AltISR_Interrupt
 408              		.code	16
 409              		.thumb_func
 410              		.type	AltISR_Interrupt, %function
 411              	AltISR_Interrupt:
 412              	.LFB4:
 160:Generated_Source\PSoC4/AltISR.c ****     #ifdef AltISR_INTERRUPT_INTERRUPT_CALLBACK
 413              		.loc 1 160 0
 414              		.cfi_startproc
 415              		@ args = 0, pretend = 0, frame = 0
 416              		@ frame_needed = 0, uses_anonymous_args = 0
 417 0000 10B5     		push	{r4, lr}
 418              		.cfi_def_cfa_offset 8
 419              		.cfi_offset 4, -8
 420              		.cfi_offset 14, -4
 167:Generated_Source\PSoC4/AltISR.c **** 
 421              		.loc 1 167 0
 422              		.syntax divided
 423              	@ 167 "Generated_Source\PSoC4\AltISR.c" 1
 424 0002 72B6     		CPSID   i
 425              	@ 0 "" 2
 170:Generated_Source\PSoC4/AltISR.c ****     
 426              		.loc 1 170 0
 427              		.thumb
 428              		.syntax unified
ARM GAS  C:\Users\ERICHO~1\AppData\Local\Temp\ccLpjITj.s 			page 16


 429 0004 FFF7FEFF 		bl	AltISR_ClearPending
 430              	.LVL20:
 172:Generated_Source\PSoC4/AltISR.c ****     
 431              		.loc 1 172 0
 432              		.syntax divided
 433              	@ 172 "Generated_Source\PSoC4\AltISR.c" 1
 434 0008 62B6     		CPSIE   i
 435              	@ 0 "" 2
 175:Generated_Source\PSoC4/AltISR.c **** 
 436              		.loc 1 175 0
 437              		.thumb
 438              		.syntax unified
 439              		@ sp needed
 440 000a 10BD     		pop	{r4, pc}
 441              		.cfi_endproc
 442              	.LFE4:
 443              		.size	AltISR_Interrupt, .-AltISR_Interrupt
 444              		.comm	slider_pos_last,1,1
 445              		.comm	run_mode,1,1
 446              		.comm	Batt_volt,2,2
 447              		.comm	ESC_curr,2,2
 448              		.comm	motor_toggles,2,2
 449              		.comm	num_tasks,1,1
 450              		.comm	num_rx_bytes_lidar_buff,1,1
 451              		.comm	num_rx_bytes_lidar,1,1
 452              		.comm	LIDAR_UART_tmr,1,1
 453              		.comm	rx_bytes_lidar_buff,16,4
 454              		.comm	rx_bytes_lidar,16,4
 455              		.comm	num_rx_bytes_ble_buff,1,1
 456              		.comm	num_rx_bytes_ble,1,1
 457              		.comm	BLE_UART_tmr,1,1
 458              		.comm	rx_bytes_ble_buff,8,4
 459              		.comm	rx_bytes_ble,8,4
 460              		.comm	num_rx_bytes_dbg_buff,1,1
 461              		.comm	num_rx_bytes_dbg,1,1
 462              		.comm	rx_bytes_dbg_buff,8,4
 463              		.comm	rx_bytes_dbg,8,4
 464              		.text
 465              	.Letext0:
 466              		.file 2 "c:\\program files (x86)\\cypress\\psoc creator\\4.3\\psoc creator\\import\\gnu\\arm\\5.4.
 467              		.file 3 "c:\\program files (x86)\\cypress\\psoc creator\\4.3\\psoc creator\\import\\gnu\\arm\\5.4.
 468              		.file 4 "Generated_Source\\PSoC4/cytypes.h"
 469              		.file 5 "./main.h"
 470              		.file 6 "Generated_Source\\PSoC4/CyLib.h"