ARM GAS  C:\Users\ERICHO~1\AppData\Local\Temp\cczMC53F.s 			page 1


   1              		.syntax unified
   2              		.cpu cortex-m0
   3              		.fpu softvfp
   4              		.eabi_attribute 20, 1
   5              		.eabi_attribute 21, 1
   6              		.eabi_attribute 23, 3
   7              		.eabi_attribute 24, 1
   8              		.eabi_attribute 25, 1
   9              		.eabi_attribute 26, 1
  10              		.eabi_attribute 30, 1
  11              		.eabi_attribute 34, 0
  12              		.eabi_attribute 18, 4
  13              		.thumb
  14              		.syntax unified
  15              		.file	"BckLftCnt_PM.c"
  16              		.text
  17              	.Ltext0:
  18              		.cfi_sections	.debug_frame
  19              		.section	.text.BckLftCnt_SaveConfig,"ax",%progbits
  20              		.align	2
  21              		.global	BckLftCnt_SaveConfig
  22              		.code	16
  23              		.thumb_func
  24              		.type	BckLftCnt_SaveConfig, %function
  25              	BckLftCnt_SaveConfig:
  26              	.LFB1:
  27              		.file 1 "Generated_Source\\PSoC4\\BckLftCnt_PM.c"
   1:Generated_Source\PSoC4/BckLftCnt_PM.c **** /*******************************************************************************
   2:Generated_Source\PSoC4/BckLftCnt_PM.c **** * File Name: BckLftCnt_PM.c  
   3:Generated_Source\PSoC4/BckLftCnt_PM.c **** * Version 3.0
   4:Generated_Source\PSoC4/BckLftCnt_PM.c **** *
   5:Generated_Source\PSoC4/BckLftCnt_PM.c **** *  Description:
   6:Generated_Source\PSoC4/BckLftCnt_PM.c **** *    This file provides the power management source code to API for the
   7:Generated_Source\PSoC4/BckLftCnt_PM.c **** *    Counter.  
   8:Generated_Source\PSoC4/BckLftCnt_PM.c **** *
   9:Generated_Source\PSoC4/BckLftCnt_PM.c **** *   Note:
  10:Generated_Source\PSoC4/BckLftCnt_PM.c **** *     None
  11:Generated_Source\PSoC4/BckLftCnt_PM.c **** *
  12:Generated_Source\PSoC4/BckLftCnt_PM.c **** ********************************************************************************
  13:Generated_Source\PSoC4/BckLftCnt_PM.c **** * Copyright 2008-2012, Cypress Semiconductor Corporation.  All rights reserved.
  14:Generated_Source\PSoC4/BckLftCnt_PM.c **** * You may use this file only in accordance with the license, terms, conditions, 
  15:Generated_Source\PSoC4/BckLftCnt_PM.c **** * disclaimers, and limitations in the end user license agreement accompanying 
  16:Generated_Source\PSoC4/BckLftCnt_PM.c **** * the software package with which this file was provided.
  17:Generated_Source\PSoC4/BckLftCnt_PM.c **** *******************************************************************************/
  18:Generated_Source\PSoC4/BckLftCnt_PM.c **** 
  19:Generated_Source\PSoC4/BckLftCnt_PM.c **** #include "BckLftCnt.h"
  20:Generated_Source\PSoC4/BckLftCnt_PM.c **** 
  21:Generated_Source\PSoC4/BckLftCnt_PM.c **** static BckLftCnt_backupStruct BckLftCnt_backup;
  22:Generated_Source\PSoC4/BckLftCnt_PM.c **** 
  23:Generated_Source\PSoC4/BckLftCnt_PM.c **** 
  24:Generated_Source\PSoC4/BckLftCnt_PM.c **** /*******************************************************************************
  25:Generated_Source\PSoC4/BckLftCnt_PM.c **** * Function Name: BckLftCnt_SaveConfig
  26:Generated_Source\PSoC4/BckLftCnt_PM.c **** ********************************************************************************
  27:Generated_Source\PSoC4/BckLftCnt_PM.c **** * Summary:
  28:Generated_Source\PSoC4/BckLftCnt_PM.c **** *     Save the current user configuration
  29:Generated_Source\PSoC4/BckLftCnt_PM.c **** *
  30:Generated_Source\PSoC4/BckLftCnt_PM.c **** * Parameters:  
ARM GAS  C:\Users\ERICHO~1\AppData\Local\Temp\cczMC53F.s 			page 2


  31:Generated_Source\PSoC4/BckLftCnt_PM.c **** *  void
  32:Generated_Source\PSoC4/BckLftCnt_PM.c **** *
  33:Generated_Source\PSoC4/BckLftCnt_PM.c **** * Return: 
  34:Generated_Source\PSoC4/BckLftCnt_PM.c **** *  void
  35:Generated_Source\PSoC4/BckLftCnt_PM.c **** *
  36:Generated_Source\PSoC4/BckLftCnt_PM.c **** * Global variables:
  37:Generated_Source\PSoC4/BckLftCnt_PM.c **** *  BckLftCnt_backup:  Variables of this global structure are modified to 
  38:Generated_Source\PSoC4/BckLftCnt_PM.c **** *  store the values of non retention configuration registers when Sleep() API is 
  39:Generated_Source\PSoC4/BckLftCnt_PM.c **** *  called.
  40:Generated_Source\PSoC4/BckLftCnt_PM.c **** *
  41:Generated_Source\PSoC4/BckLftCnt_PM.c **** *******************************************************************************/
  42:Generated_Source\PSoC4/BckLftCnt_PM.c **** void BckLftCnt_SaveConfig(void) 
  43:Generated_Source\PSoC4/BckLftCnt_PM.c **** {
  28              		.loc 1 43 0
  29              		.cfi_startproc
  30              		@ args = 0, pretend = 0, frame = 0
  31              		@ frame_needed = 0, uses_anonymous_args = 0
  32 0000 10B5     		push	{r4, lr}
  33              		.cfi_def_cfa_offset 8
  34              		.cfi_offset 4, -8
  35              		.cfi_offset 14, -4
  44:Generated_Source\PSoC4/BckLftCnt_PM.c ****     #if (!BckLftCnt_UsingFixedFunction)
  45:Generated_Source\PSoC4/BckLftCnt_PM.c **** 
  46:Generated_Source\PSoC4/BckLftCnt_PM.c ****         BckLftCnt_backup.CounterUdb = BckLftCnt_ReadCounter();
  36              		.loc 1 46 0
  37 0002 FFF7FEFF 		bl	BckLftCnt_ReadCounter
  38              	.LVL0:
  39 0006 034C     		ldr	r4, .L2
  40 0008 6070     		strb	r0, [r4, #1]
  47:Generated_Source\PSoC4/BckLftCnt_PM.c **** 
  48:Generated_Source\PSoC4/BckLftCnt_PM.c ****         #if(!BckLftCnt_ControlRegRemoved)
  49:Generated_Source\PSoC4/BckLftCnt_PM.c ****             BckLftCnt_backup.CounterControlRegister = BckLftCnt_ReadControlRegister();
  41              		.loc 1 49 0
  42 000a FFF7FEFF 		bl	BckLftCnt_ReadControlRegister
  43              	.LVL1:
  44 000e A070     		strb	r0, [r4, #2]
  50:Generated_Source\PSoC4/BckLftCnt_PM.c ****         #endif /* (!BckLftCnt_ControlRegRemoved) */
  51:Generated_Source\PSoC4/BckLftCnt_PM.c **** 
  52:Generated_Source\PSoC4/BckLftCnt_PM.c ****     #endif /* (!BckLftCnt_UsingFixedFunction) */
  53:Generated_Source\PSoC4/BckLftCnt_PM.c **** }
  45              		.loc 1 53 0
  46              		@ sp needed
  47 0010 10BD     		pop	{r4, pc}
  48              	.L3:
  49 0012 C046     		.align	2
  50              	.L2:
  51 0014 00000000 		.word	.LANCHOR0
  52              		.cfi_endproc
  53              	.LFE1:
  54              		.size	BckLftCnt_SaveConfig, .-BckLftCnt_SaveConfig
  55              		.section	.text.BckLftCnt_RestoreConfig,"ax",%progbits
  56              		.align	2
  57              		.global	BckLftCnt_RestoreConfig
  58              		.code	16
  59              		.thumb_func
  60              		.type	BckLftCnt_RestoreConfig, %function
  61              	BckLftCnt_RestoreConfig:
ARM GAS  C:\Users\ERICHO~1\AppData\Local\Temp\cczMC53F.s 			page 3


  62              	.LFB2:
  54:Generated_Source\PSoC4/BckLftCnt_PM.c **** 
  55:Generated_Source\PSoC4/BckLftCnt_PM.c **** 
  56:Generated_Source\PSoC4/BckLftCnt_PM.c **** /*******************************************************************************
  57:Generated_Source\PSoC4/BckLftCnt_PM.c **** * Function Name: BckLftCnt_RestoreConfig
  58:Generated_Source\PSoC4/BckLftCnt_PM.c **** ********************************************************************************
  59:Generated_Source\PSoC4/BckLftCnt_PM.c **** *
  60:Generated_Source\PSoC4/BckLftCnt_PM.c **** * Summary:
  61:Generated_Source\PSoC4/BckLftCnt_PM.c **** *  Restores the current user configuration.
  62:Generated_Source\PSoC4/BckLftCnt_PM.c **** *
  63:Generated_Source\PSoC4/BckLftCnt_PM.c **** * Parameters:  
  64:Generated_Source\PSoC4/BckLftCnt_PM.c **** *  void
  65:Generated_Source\PSoC4/BckLftCnt_PM.c **** *
  66:Generated_Source\PSoC4/BckLftCnt_PM.c **** * Return: 
  67:Generated_Source\PSoC4/BckLftCnt_PM.c **** *  void
  68:Generated_Source\PSoC4/BckLftCnt_PM.c **** *
  69:Generated_Source\PSoC4/BckLftCnt_PM.c **** * Global variables:
  70:Generated_Source\PSoC4/BckLftCnt_PM.c **** *  BckLftCnt_backup:  Variables of this global structure are used to 
  71:Generated_Source\PSoC4/BckLftCnt_PM.c **** *  restore the values of non retention registers on wakeup from sleep mode.
  72:Generated_Source\PSoC4/BckLftCnt_PM.c **** *
  73:Generated_Source\PSoC4/BckLftCnt_PM.c **** *******************************************************************************/
  74:Generated_Source\PSoC4/BckLftCnt_PM.c **** void BckLftCnt_RestoreConfig(void) 
  75:Generated_Source\PSoC4/BckLftCnt_PM.c **** {      
  63              		.loc 1 75 0
  64              		.cfi_startproc
  65              		@ args = 0, pretend = 0, frame = 0
  66              		@ frame_needed = 0, uses_anonymous_args = 0
  67 0000 10B5     		push	{r4, lr}
  68              		.cfi_def_cfa_offset 8
  69              		.cfi_offset 4, -8
  70              		.cfi_offset 14, -4
  76:Generated_Source\PSoC4/BckLftCnt_PM.c ****     #if (!BckLftCnt_UsingFixedFunction)
  77:Generated_Source\PSoC4/BckLftCnt_PM.c **** 
  78:Generated_Source\PSoC4/BckLftCnt_PM.c ****        BckLftCnt_WriteCounter(BckLftCnt_backup.CounterUdb);
  71              		.loc 1 78 0
  72 0002 044C     		ldr	r4, .L5
  73 0004 6078     		ldrb	r0, [r4, #1]
  74 0006 FFF7FEFF 		bl	BckLftCnt_WriteCounter
  75              	.LVL2:
  79:Generated_Source\PSoC4/BckLftCnt_PM.c **** 
  80:Generated_Source\PSoC4/BckLftCnt_PM.c ****         #if(!BckLftCnt_ControlRegRemoved)
  81:Generated_Source\PSoC4/BckLftCnt_PM.c ****             BckLftCnt_WriteControlRegister(BckLftCnt_backup.CounterControlRegister);
  76              		.loc 1 81 0
  77 000a A078     		ldrb	r0, [r4, #2]
  78 000c FFF7FEFF 		bl	BckLftCnt_WriteControlRegister
  79              	.LVL3:
  82:Generated_Source\PSoC4/BckLftCnt_PM.c ****         #endif /* (!BckLftCnt_ControlRegRemoved) */
  83:Generated_Source\PSoC4/BckLftCnt_PM.c **** 
  84:Generated_Source\PSoC4/BckLftCnt_PM.c ****     #endif /* (!BckLftCnt_UsingFixedFunction) */
  85:Generated_Source\PSoC4/BckLftCnt_PM.c **** }
  80              		.loc 1 85 0
  81              		@ sp needed
  82 0010 10BD     		pop	{r4, pc}
  83              	.L6:
  84 0012 C046     		.align	2
  85              	.L5:
  86 0014 00000000 		.word	.LANCHOR0
ARM GAS  C:\Users\ERICHO~1\AppData\Local\Temp\cczMC53F.s 			page 4


  87              		.cfi_endproc
  88              	.LFE2:
  89              		.size	BckLftCnt_RestoreConfig, .-BckLftCnt_RestoreConfig
  90              		.section	.text.BckLftCnt_Sleep,"ax",%progbits
  91              		.align	2
  92              		.global	BckLftCnt_Sleep
  93              		.code	16
  94              		.thumb_func
  95              		.type	BckLftCnt_Sleep, %function
  96              	BckLftCnt_Sleep:
  97              	.LFB3:
  86:Generated_Source\PSoC4/BckLftCnt_PM.c **** 
  87:Generated_Source\PSoC4/BckLftCnt_PM.c **** 
  88:Generated_Source\PSoC4/BckLftCnt_PM.c **** /*******************************************************************************
  89:Generated_Source\PSoC4/BckLftCnt_PM.c **** * Function Name: BckLftCnt_Sleep
  90:Generated_Source\PSoC4/BckLftCnt_PM.c **** ********************************************************************************
  91:Generated_Source\PSoC4/BckLftCnt_PM.c **** * Summary:
  92:Generated_Source\PSoC4/BckLftCnt_PM.c **** *     Stop and Save the user configuration
  93:Generated_Source\PSoC4/BckLftCnt_PM.c **** *
  94:Generated_Source\PSoC4/BckLftCnt_PM.c **** * Parameters:  
  95:Generated_Source\PSoC4/BckLftCnt_PM.c **** *  void
  96:Generated_Source\PSoC4/BckLftCnt_PM.c **** *
  97:Generated_Source\PSoC4/BckLftCnt_PM.c **** * Return: 
  98:Generated_Source\PSoC4/BckLftCnt_PM.c **** *  void
  99:Generated_Source\PSoC4/BckLftCnt_PM.c **** *
 100:Generated_Source\PSoC4/BckLftCnt_PM.c **** * Global variables:
 101:Generated_Source\PSoC4/BckLftCnt_PM.c **** *  BckLftCnt_backup.enableState:  Is modified depending on the enable 
 102:Generated_Source\PSoC4/BckLftCnt_PM.c **** *  state of the block before entering sleep mode.
 103:Generated_Source\PSoC4/BckLftCnt_PM.c **** *
 104:Generated_Source\PSoC4/BckLftCnt_PM.c **** *******************************************************************************/
 105:Generated_Source\PSoC4/BckLftCnt_PM.c **** void BckLftCnt_Sleep(void) 
 106:Generated_Source\PSoC4/BckLftCnt_PM.c **** {
  98              		.loc 1 106 0
  99              		.cfi_startproc
 100              		@ args = 0, pretend = 0, frame = 0
 101              		@ frame_needed = 0, uses_anonymous_args = 0
 102 0000 10B5     		push	{r4, lr}
 103              		.cfi_def_cfa_offset 8
 104              		.cfi_offset 4, -8
 105              		.cfi_offset 14, -4
 107:Generated_Source\PSoC4/BckLftCnt_PM.c ****     #if(!BckLftCnt_ControlRegRemoved)
 108:Generated_Source\PSoC4/BckLftCnt_PM.c ****         /* Save Counter's enable state */
 109:Generated_Source\PSoC4/BckLftCnt_PM.c ****         if(BckLftCnt_CTRL_ENABLE == (BckLftCnt_CONTROL & BckLftCnt_CTRL_ENABLE))
 106              		.loc 1 109 0
 107 0002 084B     		ldr	r3, .L10
 108 0004 1B78     		ldrb	r3, [r3]
 109 0006 5BB2     		sxtb	r3, r3
 110 0008 002B     		cmp	r3, #0
 111 000a 03DA     		bge	.L8
 110:Generated_Source\PSoC4/BckLftCnt_PM.c ****         {
 111:Generated_Source\PSoC4/BckLftCnt_PM.c ****             /* Counter is enabled */
 112:Generated_Source\PSoC4/BckLftCnt_PM.c ****             BckLftCnt_backup.CounterEnableState = 1u;
 112              		.loc 1 112 0
 113 000c 0122     		movs	r2, #1
 114 000e 064B     		ldr	r3, .L10+4
 115 0010 1A70     		strb	r2, [r3]
 116 0012 02E0     		b	.L9
ARM GAS  C:\Users\ERICHO~1\AppData\Local\Temp\cczMC53F.s 			page 5


 117              	.L8:
 113:Generated_Source\PSoC4/BckLftCnt_PM.c ****         }
 114:Generated_Source\PSoC4/BckLftCnt_PM.c ****         else
 115:Generated_Source\PSoC4/BckLftCnt_PM.c ****         {
 116:Generated_Source\PSoC4/BckLftCnt_PM.c ****             /* Counter is disabled */
 117:Generated_Source\PSoC4/BckLftCnt_PM.c ****             BckLftCnt_backup.CounterEnableState = 0u;
 118              		.loc 1 117 0
 119 0014 0022     		movs	r2, #0
 120 0016 044B     		ldr	r3, .L10+4
 121 0018 1A70     		strb	r2, [r3]
 122              	.L9:
 118:Generated_Source\PSoC4/BckLftCnt_PM.c ****         }
 119:Generated_Source\PSoC4/BckLftCnt_PM.c ****     #else
 120:Generated_Source\PSoC4/BckLftCnt_PM.c ****         BckLftCnt_backup.CounterEnableState = 1u;
 121:Generated_Source\PSoC4/BckLftCnt_PM.c ****         if(BckLftCnt_backup.CounterEnableState != 0u)
 122:Generated_Source\PSoC4/BckLftCnt_PM.c ****         {
 123:Generated_Source\PSoC4/BckLftCnt_PM.c ****             BckLftCnt_backup.CounterEnableState = 0u;
 124:Generated_Source\PSoC4/BckLftCnt_PM.c ****         }
 125:Generated_Source\PSoC4/BckLftCnt_PM.c ****     #endif /* (!BckLftCnt_ControlRegRemoved) */
 126:Generated_Source\PSoC4/BckLftCnt_PM.c ****     
 127:Generated_Source\PSoC4/BckLftCnt_PM.c ****     BckLftCnt_Stop();
 123              		.loc 1 127 0
 124 001a FFF7FEFF 		bl	BckLftCnt_Stop
 125              	.LVL4:
 128:Generated_Source\PSoC4/BckLftCnt_PM.c ****     BckLftCnt_SaveConfig();
 126              		.loc 1 128 0
 127 001e FFF7FEFF 		bl	BckLftCnt_SaveConfig
 128              	.LVL5:
 129:Generated_Source\PSoC4/BckLftCnt_PM.c **** }
 129              		.loc 1 129 0
 130              		@ sp needed
 131 0022 10BD     		pop	{r4, pc}
 132              	.L11:
 133              		.align	2
 134              	.L10:
 135 0024 72000F40 		.word	1074724978
 136 0028 00000000 		.word	.LANCHOR0
 137              		.cfi_endproc
 138              	.LFE3:
 139              		.size	BckLftCnt_Sleep, .-BckLftCnt_Sleep
 140              		.section	.text.BckLftCnt_Wakeup,"ax",%progbits
 141              		.align	2
 142              		.global	BckLftCnt_Wakeup
 143              		.code	16
 144              		.thumb_func
 145              		.type	BckLftCnt_Wakeup, %function
 146              	BckLftCnt_Wakeup:
 147              	.LFB4:
 130:Generated_Source\PSoC4/BckLftCnt_PM.c **** 
 131:Generated_Source\PSoC4/BckLftCnt_PM.c **** 
 132:Generated_Source\PSoC4/BckLftCnt_PM.c **** /*******************************************************************************
 133:Generated_Source\PSoC4/BckLftCnt_PM.c **** * Function Name: BckLftCnt_Wakeup
 134:Generated_Source\PSoC4/BckLftCnt_PM.c **** ********************************************************************************
 135:Generated_Source\PSoC4/BckLftCnt_PM.c **** *
 136:Generated_Source\PSoC4/BckLftCnt_PM.c **** * Summary:
 137:Generated_Source\PSoC4/BckLftCnt_PM.c **** *  Restores and enables the user configuration
 138:Generated_Source\PSoC4/BckLftCnt_PM.c **** *  
ARM GAS  C:\Users\ERICHO~1\AppData\Local\Temp\cczMC53F.s 			page 6


 139:Generated_Source\PSoC4/BckLftCnt_PM.c **** * Parameters:  
 140:Generated_Source\PSoC4/BckLftCnt_PM.c **** *  void
 141:Generated_Source\PSoC4/BckLftCnt_PM.c **** *
 142:Generated_Source\PSoC4/BckLftCnt_PM.c **** * Return: 
 143:Generated_Source\PSoC4/BckLftCnt_PM.c **** *  void
 144:Generated_Source\PSoC4/BckLftCnt_PM.c **** *
 145:Generated_Source\PSoC4/BckLftCnt_PM.c **** * Global variables:
 146:Generated_Source\PSoC4/BckLftCnt_PM.c **** *  BckLftCnt_backup.enableState:  Is used to restore the enable state of 
 147:Generated_Source\PSoC4/BckLftCnt_PM.c **** *  block on wakeup from sleep mode.
 148:Generated_Source\PSoC4/BckLftCnt_PM.c **** *
 149:Generated_Source\PSoC4/BckLftCnt_PM.c **** *******************************************************************************/
 150:Generated_Source\PSoC4/BckLftCnt_PM.c **** void BckLftCnt_Wakeup(void) 
 151:Generated_Source\PSoC4/BckLftCnt_PM.c **** {
 148              		.loc 1 151 0
 149              		.cfi_startproc
 150              		@ args = 0, pretend = 0, frame = 0
 151              		@ frame_needed = 0, uses_anonymous_args = 0
 152 0000 10B5     		push	{r4, lr}
 153              		.cfi_def_cfa_offset 8
 154              		.cfi_offset 4, -8
 155              		.cfi_offset 14, -4
 152:Generated_Source\PSoC4/BckLftCnt_PM.c ****     BckLftCnt_RestoreConfig();
 156              		.loc 1 152 0
 157 0002 FFF7FEFF 		bl	BckLftCnt_RestoreConfig
 158              	.LVL6:
 153:Generated_Source\PSoC4/BckLftCnt_PM.c ****     #if(!BckLftCnt_ControlRegRemoved)
 154:Generated_Source\PSoC4/BckLftCnt_PM.c ****         if(BckLftCnt_backup.CounterEnableState == 1u)
 159              		.loc 1 154 0
 160 0006 034B     		ldr	r3, .L14
 161 0008 1B78     		ldrb	r3, [r3]
 162 000a 012B     		cmp	r3, #1
 163 000c 01D1     		bne	.L12
 155:Generated_Source\PSoC4/BckLftCnt_PM.c ****         {
 156:Generated_Source\PSoC4/BckLftCnt_PM.c ****             /* Enable Counter's operation */
 157:Generated_Source\PSoC4/BckLftCnt_PM.c ****             BckLftCnt_Enable();
 164              		.loc 1 157 0
 165 000e FFF7FEFF 		bl	BckLftCnt_Enable
 166              	.LVL7:
 167              	.L12:
 158:Generated_Source\PSoC4/BckLftCnt_PM.c ****         } /* Do nothing if Counter was disabled before */    
 159:Generated_Source\PSoC4/BckLftCnt_PM.c ****     #endif /* (!BckLftCnt_ControlRegRemoved) */
 160:Generated_Source\PSoC4/BckLftCnt_PM.c ****     
 161:Generated_Source\PSoC4/BckLftCnt_PM.c **** }
 168              		.loc 1 161 0
 169              		@ sp needed
 170 0012 10BD     		pop	{r4, pc}
 171              	.L15:
 172              		.align	2
 173              	.L14:
 174 0014 00000000 		.word	.LANCHOR0
 175              		.cfi_endproc
 176              	.LFE4:
 177              		.size	BckLftCnt_Wakeup, .-BckLftCnt_Wakeup
 178              		.bss
 179              		.align	2
 180              		.set	.LANCHOR0,. + 0
 181              		.type	BckLftCnt_backup, %object
ARM GAS  C:\Users\ERICHO~1\AppData\Local\Temp\cczMC53F.s 			page 7


 182              		.size	BckLftCnt_backup, 3
 183              	BckLftCnt_backup:
 184 0000 000000   		.space	3
 185              		.text
 186              	.Letext0:
 187              		.file 2 "Generated_Source\\PSoC4\\cytypes.h"
 188              		.file 3 "Generated_Source\\PSoC4\\BckLftCnt.h"