ARM GAS  C:\Users\SAIKAR~1\AppData\Local\Temp\ccHaLbQN.s 			page 1


   1              		.syntax unified
   2              		.cpu cortex-m0
   3              		.fpu softvfp
   4              		.eabi_attribute 20, 1
   5              		.eabi_attribute 21, 1
   6              		.eabi_attribute 23, 3
   7              		.eabi_attribute 24, 1
   8              		.eabi_attribute 25, 1
   9              		.eabi_attribute 26, 1
  10              		.eabi_attribute 30, 1
  11              		.eabi_attribute 34, 0
  12              		.eabi_attribute 18, 4
  13              		.thumb
  14              		.syntax unified
  15              		.file	"cordic.c"
  16              		.text
  17              	.Ltext0:
  18              		.cfi_sections	.debug_frame
  19              		.section	.text.cordic_atan2_core,"ax",%progbits
  20              		.align	2
  21              		.code	16
  22              		.thumb_func
  23              		.type	cordic_atan2_core, %function
  24              	cordic_atan2_core:
  25              	.LFB0:
  26              		.file 1 "cordic.c"
   1:cordic.c      **** #include "cordic.h"
   2:cordic.c      **** 
   3:cordic.c      **** #include <stdint.h>
   4:cordic.c      **** #include <math.h>
   5:cordic.c      **** 
   6:cordic.c      **** typedef int32_t fixed_t;
   7:cordic.c      **** 
   8:cordic.c      **** #define DOUBLE_TO_FIXED(d) ((fixed_t)(d) * (1 << 16))
   9:cordic.c      **** #define FIXED_TO_DOUBLE(f) ((double)(f) / (1 << 16))
  10:cordic.c      **** 
  11:cordic.c      **** #ifndef M_PI
  12:cordic.c      **** #define M_PI 3.14159265358979323846
  13:cordic.c      **** #endif
  14:cordic.c      **** 
  15:cordic.c      **** #ifndef M_PI_2
  16:cordic.c      **** #define M_PI_2 (M_PI / 2.0)
  17:cordic.c      **** #endif
  18:cordic.c      **** 
  19:cordic.c      **** #define CORDIC_ITERATIONS 16
  20:cordic.c      **** 
  21:cordic.c      **** static const fixed_t cordic_angle_table[CORDIC_ITERATIONS] = {
  22:cordic.c      ****     51472, 30386, 16054, 8150, 4091, 2047, 1024, 512,
  23:cordic.c      ****     256, 128, 64, 32, 16, 8, 4, 2};
  24:cordic.c      **** 
  25:cordic.c      **** #define CORDIC_K_INV 39734
  26:cordic.c      **** 
  27:cordic.c      **** static fixed_t cordic_atan2_core(fixed_t y, fixed_t x)
  28:cordic.c      **** {
  27              		.loc 1 28 0
  28              		.cfi_startproc
  29              		@ args = 0, pretend = 0, frame = 0
ARM GAS  C:\Users\SAIKAR~1\AppData\Local\Temp\ccHaLbQN.s 			page 2


  30              		@ frame_needed = 0, uses_anonymous_args = 0
  31              	.LVL0:
  32 0000 F0B5     		push	{r4, r5, r6, r7, lr}
  33              		.cfi_def_cfa_offset 20
  34              		.cfi_offset 4, -20
  35              		.cfi_offset 5, -16
  36              		.cfi_offset 6, -12
  37              		.cfi_offset 7, -8
  38              		.cfi_offset 14, -4
  39 0002 0200     		movs	r2, r0
  40              	.LVL1:
  29:cordic.c      ****     fixed_t z_angle = 0;
  30:cordic.c      ****     fixed_t x_new, y_new;
  31:cordic.c      ****     int i, sign;
  32:cordic.c      **** 
  33:cordic.c      ****     if (x < 0)
  41              		.loc 1 33 0
  42 0004 0029     		cmp	r1, #0
  43 0006 07DA     		bge	.L7
  34:cordic.c      ****     {
  35:cordic.c      ****         if (y >= 0)
  44              		.loc 1 35 0
  45 0008 0028     		cmp	r0, #0
  46 000a 08DB     		blt	.L3
  47              	.LVL2:
  36:cordic.c      ****         {
  37:cordic.c      ****             x_new = y;
  38:cordic.c      ****             y_new = -x;
  48              		.loc 1 38 0
  49 000c 4B42     		rsbs	r3, r1, #0
  50              	.LVL3:
  37:cordic.c      ****             y_new = -x;
  51              		.loc 1 37 0
  52 000e 0100     		movs	r1, r0
  53              	.LVL4:
  54              		.loc 1 38 0
  55 0010 1A00     		movs	r2, r3
  39:cordic.c      ****             z_angle = DOUBLE_TO_FIXED(M_PI_2);
  56              		.loc 1 39 0
  57 0012 8020     		movs	r0, #128
  58              	.LVL5:
  59 0014 4002     		lsls	r0, r0, #9
  60 0016 00E0     		b	.L2
  61              	.LVL6:
  62              	.L7:
  29:cordic.c      ****     fixed_t x_new, y_new;
  63              		.loc 1 29 0
  64 0018 0020     		movs	r0, #0
  65              	.LVL7:
  66              	.L2:
  40:cordic.c      ****         }
  41:cordic.c      ****         else
  42:cordic.c      ****         {
  43:cordic.c      ****             x_new = -y;
  44:cordic.c      ****             y_new = x;
  45:cordic.c      ****             z_angle = -DOUBLE_TO_FIXED(M_PI_2);
  46:cordic.c      ****         }
ARM GAS  C:\Users\SAIKAR~1\AppData\Local\Temp\ccHaLbQN.s 			page 3


  47:cordic.c      ****         x = x_new;
  48:cordic.c      ****         y = y_new;
  49:cordic.c      ****     }
  50:cordic.c      **** 
  51:cordic.c      ****     for (i = 0; i < CORDIC_ITERATIONS; ++i)
  52:cordic.c      ****     {
  53:cordic.c      ****         sign = (y < 0) ? -1 : 1;
  67              		.loc 1 53 0 discriminator 2
  68 001a 0023     		movs	r3, #0
  69 001c 18E0     		b	.L4
  70              	.LVL8:
  71              	.L3:
  43:cordic.c      ****             y_new = x;
  72              		.loc 1 43 0
  73 001e 4342     		rsbs	r3, r0, #0
  74              	.LVL9:
  44:cordic.c      ****             z_angle = -DOUBLE_TO_FIXED(M_PI_2);
  75              		.loc 1 44 0
  76 0020 0A00     		movs	r2, r1
  43:cordic.c      ****             y_new = x;
  77              		.loc 1 43 0
  78 0022 1900     		movs	r1, r3
  79              	.LVL10:
  45:cordic.c      ****         }
  80              		.loc 1 45 0
  81 0024 0C48     		ldr	r0, .L9
  82              	.LVL11:
  83 0026 F8E7     		b	.L2
  84              	.LVL12:
  85              	.L6:
  86              		.loc 1 53 0
  87 0028 002A     		cmp	r2, #0
  88 002a 02DA     		bge	.L8
  89 002c 0126     		movs	r6, #1
  90 002e 7642     		rsbs	r6, r6, #0
  91 0030 00E0     		b	.L5
  92              	.L8:
  93 0032 0126     		movs	r6, #1
  94              	.L5:
  95              	.LVL13:
  54:cordic.c      ****         x_new = x + (sign * (y >> i));
  96              		.loc 1 54 0 discriminator 4
  97 0034 1400     		movs	r4, r2
  98 0036 1C41     		asrs	r4, r4, r3
  99 0038 7443     		muls	r4, r6
 100              	.LVL14:
  55:cordic.c      ****         y_new = y - (sign * (x >> i));
 101              		.loc 1 55 0 discriminator 4
 102 003a 0D00     		movs	r5, r1
 103 003c 1D41     		asrs	r5, r5, r3
 104 003e 7543     		muls	r5, r6
 105 0040 521B     		subs	r2, r2, r5
 106              	.LVL15:
  56:cordic.c      ****         z_angle -= sign * cordic_angle_table[i];
 107              		.loc 1 56 0 discriminator 4
 108 0042 9F00     		lsls	r7, r3, #2
 109 0044 054D     		ldr	r5, .L9+4
ARM GAS  C:\Users\SAIKAR~1\AppData\Local\Temp\ccHaLbQN.s 			page 4


 110 0046 7D59     		ldr	r5, [r7, r5]
 111 0048 7543     		muls	r5, r6
 112 004a 401B     		subs	r0, r0, r5
 113              	.LVL16:
  51:cordic.c      ****     {
 114              		.loc 1 51 0 discriminator 4
 115 004c 0133     		adds	r3, r3, #1
 116              	.LVL17:
  57:cordic.c      ****         x = x_new;
 117              		.loc 1 57 0 discriminator 4
 118 004e 0919     		adds	r1, r1, r4
 119              	.LVL18:
 120              	.L4:
  51:cordic.c      ****     {
 121              		.loc 1 51 0 discriminator 2
 122 0050 0F2B     		cmp	r3, #15
 123 0052 E9DD     		ble	.L6
  58:cordic.c      ****         y = y_new;
  59:cordic.c      ****     }
  60:cordic.c      ****     return z_angle;
  61:cordic.c      **** }
 124              		.loc 1 61 0
 125              		@ sp needed
 126 0054 F0BD     		pop	{r4, r5, r6, r7, pc}
 127              	.L10:
 128 0056 C046     		.align	2
 129              	.L9:
 130 0058 0000FFFF 		.word	-65536
 131 005c 00000000 		.word	.LANCHOR0
 132              		.cfi_endproc
 133              	.LFE0:
 134              		.size	cordic_atan2_core, .-cordic_atan2_core
 135              		.section	.text.cordic_sincos_core,"ax",%progbits
 136              		.align	2
 137              		.code	16
 138              		.thumb_func
 139              		.type	cordic_sincos_core, %function
 140              	cordic_sincos_core:
 141              	.LFB1:
  62:cordic.c      **** 
  63:cordic.c      **** static void cordic_sincos_core(fixed_t angle, fixed_t *s, fixed_t *c)
  64:cordic.c      **** {
 142              		.loc 1 64 0
 143              		.cfi_startproc
 144              		@ args = 0, pretend = 0, frame = 0
 145              		@ frame_needed = 0, uses_anonymous_args = 0
 146              	.LVL19:
 147 0000 F0B5     		push	{r4, r5, r6, r7, lr}
 148              		.cfi_def_cfa_offset 20
 149              		.cfi_offset 4, -20
 150              		.cfi_offset 5, -16
 151              		.cfi_offset 6, -12
 152              		.cfi_offset 7, -8
 153              		.cfi_offset 14, -4
 154 0002 4746     		mov	r7, r8
 155 0004 80B4     		push	{r7}
 156              		.cfi_def_cfa_offset 24
ARM GAS  C:\Users\SAIKAR~1\AppData\Local\Temp\ccHaLbQN.s 			page 5


 157              		.cfi_offset 8, -24
 158 0006 8846     		mov	r8, r1
 159 0008 9446     		mov	ip, r2
 160              	.LVL20:
  65:cordic.c      ****     fixed_t x, y, z;
  66:cordic.c      ****     fixed_t x_new, y_new;
  67:cordic.c      ****     int i, sign;
  68:cordic.c      **** 
  69:cordic.c      ****     x = CORDIC_K_INV;
  70:cordic.c      ****     y = 0;
  71:cordic.c      ****     z = angle;
  72:cordic.c      **** 
  73:cordic.c      ****     for (i = 0; i < CORDIC_ITERATIONS; ++i)
 161              		.loc 1 73 0
 162 000a 0023     		movs	r3, #0
  70:cordic.c      ****     z = angle;
 163              		.loc 1 70 0
 164 000c 0027     		movs	r7, #0
  69:cordic.c      ****     y = 0;
 165              		.loc 1 69 0
 166 000e 0F4A     		ldr	r2, .L16
 167              	.LVL21:
 168              		.loc 1 73 0
 169 0010 13E0     		b	.L12
 170              	.LVL22:
 171              	.L14:
  74:cordic.c      ****     {
  75:cordic.c      ****         sign = (z < 0) ? -1 : 1;
 172              		.loc 1 75 0
 173 0012 0028     		cmp	r0, #0
 174 0014 02DA     		bge	.L15
 175 0016 0126     		movs	r6, #1
 176 0018 7642     		rsbs	r6, r6, #0
 177 001a 00E0     		b	.L13
 178              	.L15:
 179 001c 0126     		movs	r6, #1
 180              	.L13:
 181              	.LVL23:
  76:cordic.c      ****         x_new = x - (sign * (y >> i));
 182              		.loc 1 76 0 discriminator 4
 183 001e 3C00     		movs	r4, r7
 184 0020 1C41     		asrs	r4, r4, r3
 185 0022 7443     		muls	r4, r6
 186              	.LVL24:
  77:cordic.c      ****         y_new = y + (sign * (x >> i));
 187              		.loc 1 77 0 discriminator 4
 188 0024 1500     		movs	r5, r2
 189 0026 1D41     		asrs	r5, r5, r3
 190 0028 7543     		muls	r5, r6
 191 002a 7F19     		adds	r7, r7, r5
 192              	.LVL25:
  78:cordic.c      ****         z -= sign * cordic_angle_table[i];
 193              		.loc 1 78 0 discriminator 4
 194 002c 9900     		lsls	r1, r3, #2
 195 002e 084D     		ldr	r5, .L16+4
 196 0030 4D59     		ldr	r5, [r1, r5]
 197 0032 7543     		muls	r5, r6
ARM GAS  C:\Users\SAIKAR~1\AppData\Local\Temp\ccHaLbQN.s 			page 6


 198 0034 401B     		subs	r0, r0, r5
 199              	.LVL26:
  73:cordic.c      ****     {
 200              		.loc 1 73 0 discriminator 4
 201 0036 0133     		adds	r3, r3, #1
 202              	.LVL27:
  79:cordic.c      ****         x = x_new;
 203              		.loc 1 79 0 discriminator 4
 204 0038 121B     		subs	r2, r2, r4
 205              	.LVL28:
 206              	.L12:
  73:cordic.c      ****     {
 207              		.loc 1 73 0 discriminator 2
 208 003a 0F2B     		cmp	r3, #15
 209 003c E9DD     		ble	.L14
  80:cordic.c      ****         y = y_new;
  81:cordic.c      ****     }
  82:cordic.c      ****     *c = x;
 210              		.loc 1 82 0
 211 003e 6346     		mov	r3, ip
 212              	.LVL29:
 213 0040 1A60     		str	r2, [r3]
  83:cordic.c      ****     *s = y;
 214              		.loc 1 83 0
 215 0042 4346     		mov	r3, r8
 216 0044 1F60     		str	r7, [r3]
  84:cordic.c      **** }
 217              		.loc 1 84 0
 218              		@ sp needed
 219              	.LVL30:
 220              	.LVL31:
 221 0046 04BC     		pop	{r2}
 222 0048 9046     		mov	r8, r2
 223 004a F0BD     		pop	{r4, r5, r6, r7, pc}
 224              	.L17:
 225              		.align	2
 226              	.L16:
 227 004c 369B0000 		.word	39734
 228 0050 00000000 		.word	.LANCHOR0
 229              		.cfi_endproc
 230              	.LFE1:
 231              		.size	cordic_sincos_core, .-cordic_sincos_core
 232              		.global	__aeabi_d2iz
 233              		.global	__aeabi_i2d
 234              		.global	__aeabi_dmul
 235              		.section	.text.fast_atan2,"ax",%progbits
 236              		.align	2
 237              		.global	fast_atan2
 238              		.code	16
 239              		.thumb_func
 240              		.type	fast_atan2, %function
 241              	fast_atan2:
 242              	.LFB2:
  85:cordic.c      **** 
  86:cordic.c      **** double fast_atan2(double y, double x)
  87:cordic.c      **** {
 243              		.loc 1 87 0
ARM GAS  C:\Users\SAIKAR~1\AppData\Local\Temp\ccHaLbQN.s 			page 7


 244              		.cfi_startproc
 245              		@ args = 0, pretend = 0, frame = 0
 246              		@ frame_needed = 0, uses_anonymous_args = 0
 247              	.LVL32:
 248 0000 D0B5     		push	{r4, r6, r7, lr}
 249              		.cfi_def_cfa_offset 16
 250              		.cfi_offset 4, -16
 251              		.cfi_offset 6, -12
 252              		.cfi_offset 7, -8
 253              		.cfi_offset 14, -4
 254 0002 1600     		movs	r6, r2
 255 0004 1F00     		movs	r7, r3
  88:cordic.c      ****     fixed_t y_fixed = DOUBLE_TO_FIXED(y);
 256              		.loc 1 88 0
 257 0006 FFF7FEFF 		bl	__aeabi_d2iz
 258              	.LVL33:
 259 000a 0404     		lsls	r4, r0, #16
 260              	.LVL34:
  89:cordic.c      ****     fixed_t x_fixed = DOUBLE_TO_FIXED(x);
 261              		.loc 1 89 0
 262 000c 3000     		movs	r0, r6
 263 000e 3900     		movs	r1, r7
 264 0010 FFF7FEFF 		bl	__aeabi_d2iz
 265              	.LVL35:
 266 0014 0104     		lsls	r1, r0, #16
 267              	.LVL36:
  90:cordic.c      ****     fixed_t angle_fixed = cordic_atan2_core(y_fixed, x_fixed);
 268              		.loc 1 90 0
 269 0016 2000     		movs	r0, r4
 270 0018 FFF7FEFF 		bl	cordic_atan2_core
 271              	.LVL37:
  91:cordic.c      ****     return FIXED_TO_DOUBLE(angle_fixed);
 272              		.loc 1 91 0
 273 001c FFF7FEFF 		bl	__aeabi_i2d
 274              	.LVL38:
 275 0020 0022     		movs	r2, #0
 276 0022 024B     		ldr	r3, .L19
 277 0024 FFF7FEFF 		bl	__aeabi_dmul
 278              	.LVL39:
  92:cordic.c      **** }
 279              		.loc 1 92 0
 280              		@ sp needed
 281              	.LVL40:
 282 0028 D0BD     		pop	{r4, r6, r7, pc}
 283              	.L20:
 284 002a C046     		.align	2
 285              	.L19:
 286 002c 0000F03E 		.word	1055916032
 287              		.cfi_endproc
 288              	.LFE2:
 289              		.size	fast_atan2, .-fast_atan2
 290              		.global	__aeabi_dadd
 291              		.global	__aeabi_dsub
 292              		.section	.text.fast_sincos,"ax",%progbits
 293              		.align	2
 294              		.global	fast_sincos
 295              		.code	16
ARM GAS  C:\Users\SAIKAR~1\AppData\Local\Temp\ccHaLbQN.s 			page 8


 296              		.thumb_func
 297              		.type	fast_sincos, %function
 298              	fast_sincos:
 299              	.LFB3:
  93:cordic.c      **** 
  94:cordic.c      **** void fast_sincos(double angle, double *s, double *c)
  95:cordic.c      **** {
 300              		.loc 1 95 0
 301              		.cfi_startproc
 302              		@ args = 0, pretend = 0, frame = 8
 303              		@ frame_needed = 0, uses_anonymous_args = 0
 304              	.LVL41:
 305 0000 30B5     		push	{r4, r5, lr}
 306              		.cfi_def_cfa_offset 12
 307              		.cfi_offset 4, -12
 308              		.cfi_offset 5, -8
 309              		.cfi_offset 14, -4
 310 0002 83B0     		sub	sp, sp, #12
 311              		.cfi_def_cfa_offset 24
 312 0004 1500     		movs	r5, r2
 313 0006 1C00     		movs	r4, r3
  96:cordic.c      ****     angle = fmod(angle + M_PI, 2.0 * M_PI) - M_PI;
 314              		.loc 1 96 0
 315 0008 134A     		ldr	r2, .L22
 316              	.LVL42:
 317 000a 144B     		ldr	r3, .L22+4
 318              	.LVL43:
 319 000c FFF7FEFF 		bl	__aeabi_dadd
 320              	.LVL44:
 321 0010 114A     		ldr	r2, .L22
 322 0012 134B     		ldr	r3, .L22+8
 323 0014 FFF7FEFF 		bl	fmod
 324              	.LVL45:
 325 0018 0F4A     		ldr	r2, .L22
 326 001a 104B     		ldr	r3, .L22+4
 327 001c FFF7FEFF 		bl	__aeabi_dsub
 328              	.LVL46:
  97:cordic.c      ****     fixed_t angle_fixed = DOUBLE_TO_FIXED(angle);
 329              		.loc 1 97 0
 330 0020 FFF7FEFF 		bl	__aeabi_d2iz
 331              	.LVL47:
 332 0024 0004     		lsls	r0, r0, #16
 333              	.LVL48:
  98:cordic.c      ****     fixed_t s_fixed, c_fixed;
  99:cordic.c      ****     cordic_sincos_core(angle_fixed, &s_fixed, &c_fixed);
 334              		.loc 1 99 0
 335 0026 6A46     		mov	r2, sp
 336 0028 01A9     		add	r1, sp, #4
 337 002a FFF7FEFF 		bl	cordic_sincos_core
 338              	.LVL49:
 100:cordic.c      ****     *s = FIXED_TO_DOUBLE(s_fixed);
 339              		.loc 1 100 0
 340 002e 0198     		ldr	r0, [sp, #4]
 341 0030 FFF7FEFF 		bl	__aeabi_i2d
 342              	.LVL50:
 343 0034 0022     		movs	r2, #0
 344 0036 0B4B     		ldr	r3, .L22+12
ARM GAS  C:\Users\SAIKAR~1\AppData\Local\Temp\ccHaLbQN.s 			page 9


 345 0038 FFF7FEFF 		bl	__aeabi_dmul
 346              	.LVL51:
 347 003c 2860     		str	r0, [r5]
 348 003e 6960     		str	r1, [r5, #4]
 101:cordic.c      ****     *c = FIXED_TO_DOUBLE(c_fixed);
 349              		.loc 1 101 0
 350 0040 0098     		ldr	r0, [sp]
 351 0042 FFF7FEFF 		bl	__aeabi_i2d
 352              	.LVL52:
 353 0046 0022     		movs	r2, #0
 354 0048 064B     		ldr	r3, .L22+12
 355 004a FFF7FEFF 		bl	__aeabi_dmul
 356              	.LVL53:
 357 004e 2060     		str	r0, [r4]
 358 0050 6160     		str	r1, [r4, #4]
 102:cordic.c      **** }...
 359              		.loc 1 102 0
 360 0052 03B0     		add	sp, sp, #12
 361              		@ sp needed
 362              	.LVL54:
 363              	.LVL55:
 364 0054 30BD     		pop	{r4, r5, pc}
 365              	.L23:
 366 0056 C046     		.align	2
 367              	.L22:
 368 0058 182D4454 		.word	1413754136
 369 005c FB210940 		.word	1074340347
 370 0060 FB211940 		.word	1075388923
 371 0064 0000F03E 		.word	1055916032
 372              		.cfi_endproc
 373              	.LFE3:
 374              		.size	fast_sincos, .-fast_sincos
 375              		.section	.rodata
 376              		.align	2
 377              		.set	.LANCHOR0,. + 0
 378              		.type	cordic_angle_table, %object
 379              		.size	cordic_angle_table, 64
 380              	cordic_angle_table:
 381 0000 10C90000 		.word	51472
 382 0004 B2760000 		.word	30386
 383 0008 B63E0000 		.word	16054
 384 000c D61F0000 		.word	8150
 385 0010 FB0F0000 		.word	4091
 386 0014 FF070000 		.word	2047
 387 0018 00040000 		.word	1024
 388 001c 00020000 		.word	512
 389 0020 00010000 		.word	256
 390 0024 80000000 		.word	128
 391 0028 40000000 		.word	64
 392 002c 20000000 		.word	32
 393 0030 10000000 		.word	16
 394 0034 08000000 		.word	8
 395 0038 04000000 		.word	4
 396 003c 02000000 		.word	2
 397              		.text
 398              	.Letext0:
 399              		.file 2 "e:\\acads\\uwm\\psoc creator\\4.4\\psoc creator\\import\\gnu\\arm\\5.4.1\\arm-none-eabi\\
ARM GAS  C:\Users\SAIKAR~1\AppData\Local\Temp\ccHaLbQN.s 			page 10


 400              		.file 3 "e:\\acads\\uwm\\psoc creator\\4.4\\psoc creator\\import\\gnu\\arm\\5.4.1\\arm-none-eabi\\
 401              		.file 4 "e:\\acads\\uwm\\psoc creator\\4.4\\psoc creator\\import\\gnu\\arm\\5.4.1\\arm-none-eabi\\