ARM GAS  C:\Users\ERICHO~1\AppData\Local\Temp\ccpfl8zJ.s 			page 1


   1              		.syntax unified
   2              		.cpu cortex-m0
   3              		.fpu softvfp
   4              		.eabi_attribute 20, 1
   5              		.eabi_attribute 21, 1
   6              		.eabi_attribute 23, 3
   7              		.eabi_attribute 24, 1
   8              		.eabi_attribute 25, 1
   9              		.eabi_attribute 26, 1
  10              		.eabi_attribute 30, 1
  11              		.eabi_attribute 34, 0
  12              		.eabi_attribute 18, 4
  13              		.thumb
  14              		.syntax unified
  15              		.file	"GyroISR.c"
  16              		.text
  17              	.Ltext0:
  18              		.cfi_sections	.debug_frame
  19              		.section	.text.GyroISR_SetVector,"ax",%progbits
  20              		.align	2
  21              		.global	GyroISR_SetVector
  22              		.code	16
  23              		.thumb_func
  24              		.type	GyroISR_SetVector, %function
  25              	GyroISR_SetVector:
  26              	.LFB5:
  27              		.file 1 "Generated_Source\\PSoC4\\GyroISR.c"
   1:Generated_Source\PSoC4/GyroISR.c **** /*******************************************************************************
   2:Generated_Source\PSoC4/GyroISR.c **** * File Name: GyroISR.c  
   3:Generated_Source\PSoC4/GyroISR.c **** * Version 1.70
   4:Generated_Source\PSoC4/GyroISR.c **** *
   5:Generated_Source\PSoC4/GyroISR.c **** *  Description:
   6:Generated_Source\PSoC4/GyroISR.c **** *   API for controlling the state of an interrupt.
   7:Generated_Source\PSoC4/GyroISR.c **** *
   8:Generated_Source\PSoC4/GyroISR.c **** *
   9:Generated_Source\PSoC4/GyroISR.c **** *  Note:
  10:Generated_Source\PSoC4/GyroISR.c **** *
  11:Generated_Source\PSoC4/GyroISR.c **** ********************************************************************************
  12:Generated_Source\PSoC4/GyroISR.c **** * Copyright 2008-2015, Cypress Semiconductor Corporation.  All rights reserved.
  13:Generated_Source\PSoC4/GyroISR.c **** * You may use this file only in accordance with the license, terms, conditions, 
  14:Generated_Source\PSoC4/GyroISR.c **** * disclaimers, and limitations in the end user license agreement accompanying 
  15:Generated_Source\PSoC4/GyroISR.c **** * the software package with which this file was provided.
  16:Generated_Source\PSoC4/GyroISR.c **** *******************************************************************************/
  17:Generated_Source\PSoC4/GyroISR.c **** 
  18:Generated_Source\PSoC4/GyroISR.c **** 
  19:Generated_Source\PSoC4/GyroISR.c **** #include <cydevice_trm.h>
  20:Generated_Source\PSoC4/GyroISR.c **** #include <CyLib.h>
  21:Generated_Source\PSoC4/GyroISR.c **** #include <GyroISR.h>
  22:Generated_Source\PSoC4/GyroISR.c **** #include "cyapicallbacks.h"
  23:Generated_Source\PSoC4/GyroISR.c **** 
  24:Generated_Source\PSoC4/GyroISR.c **** #if !defined(GyroISR__REMOVED) /* Check for removal by optimization */
  25:Generated_Source\PSoC4/GyroISR.c **** 
  26:Generated_Source\PSoC4/GyroISR.c **** /*******************************************************************************
  27:Generated_Source\PSoC4/GyroISR.c **** *  Place your includes, defines and code here 
  28:Generated_Source\PSoC4/GyroISR.c **** ********************************************************************************/
  29:Generated_Source\PSoC4/GyroISR.c **** /* `#START GyroISR_intc` */
  30:Generated_Source\PSoC4/GyroISR.c ****   #include "main.h"
ARM GAS  C:\Users\ERICHO~1\AppData\Local\Temp\ccpfl8zJ.s 			page 2


  31:Generated_Source\PSoC4/GyroISR.c **** /* `#END` */
  32:Generated_Source\PSoC4/GyroISR.c **** 
  33:Generated_Source\PSoC4/GyroISR.c **** extern cyisraddress CyRamVectors[CYINT_IRQ_BASE + CY_NUM_INTERRUPTS];
  34:Generated_Source\PSoC4/GyroISR.c **** 
  35:Generated_Source\PSoC4/GyroISR.c **** /* Declared in startup, used to set unused interrupts to. */
  36:Generated_Source\PSoC4/GyroISR.c **** CY_ISR_PROTO(IntDefaultHandler);
  37:Generated_Source\PSoC4/GyroISR.c **** 
  38:Generated_Source\PSoC4/GyroISR.c **** 
  39:Generated_Source\PSoC4/GyroISR.c **** /*******************************************************************************
  40:Generated_Source\PSoC4/GyroISR.c **** * Function Name: GyroISR_Start
  41:Generated_Source\PSoC4/GyroISR.c **** ********************************************************************************
  42:Generated_Source\PSoC4/GyroISR.c **** *
  43:Generated_Source\PSoC4/GyroISR.c **** * Summary:
  44:Generated_Source\PSoC4/GyroISR.c **** *  Set up the interrupt and enable it. This function disables the interrupt, 
  45:Generated_Source\PSoC4/GyroISR.c **** *  sets the default interrupt vector, sets the priority from the value in the
  46:Generated_Source\PSoC4/GyroISR.c **** *  Design Wide Resources Interrupt Editor, then enables the interrupt to the 
  47:Generated_Source\PSoC4/GyroISR.c **** *  interrupt controller.
  48:Generated_Source\PSoC4/GyroISR.c **** *
  49:Generated_Source\PSoC4/GyroISR.c **** * Parameters:  
  50:Generated_Source\PSoC4/GyroISR.c **** *   None
  51:Generated_Source\PSoC4/GyroISR.c **** *
  52:Generated_Source\PSoC4/GyroISR.c **** * Return:
  53:Generated_Source\PSoC4/GyroISR.c **** *   None
  54:Generated_Source\PSoC4/GyroISR.c **** *
  55:Generated_Source\PSoC4/GyroISR.c **** *******************************************************************************/
  56:Generated_Source\PSoC4/GyroISR.c **** void GyroISR_Start(void)
  57:Generated_Source\PSoC4/GyroISR.c **** {
  58:Generated_Source\PSoC4/GyroISR.c ****     /* For all we know the interrupt is active. */
  59:Generated_Source\PSoC4/GyroISR.c ****     GyroISR_Disable();
  60:Generated_Source\PSoC4/GyroISR.c **** 
  61:Generated_Source\PSoC4/GyroISR.c ****     /* Set the ISR to point to the GyroISR Interrupt. */
  62:Generated_Source\PSoC4/GyroISR.c ****     GyroISR_SetVector(&GyroISR_Interrupt);
  63:Generated_Source\PSoC4/GyroISR.c **** 
  64:Generated_Source\PSoC4/GyroISR.c ****     /* Set the priority. */
  65:Generated_Source\PSoC4/GyroISR.c ****     GyroISR_SetPriority((uint8)GyroISR_INTC_PRIOR_NUMBER);
  66:Generated_Source\PSoC4/GyroISR.c **** 
  67:Generated_Source\PSoC4/GyroISR.c ****     /* Enable it. */
  68:Generated_Source\PSoC4/GyroISR.c ****     GyroISR_Enable();
  69:Generated_Source\PSoC4/GyroISR.c **** }
  70:Generated_Source\PSoC4/GyroISR.c **** 
  71:Generated_Source\PSoC4/GyroISR.c **** 
  72:Generated_Source\PSoC4/GyroISR.c **** /*******************************************************************************
  73:Generated_Source\PSoC4/GyroISR.c **** * Function Name: GyroISR_StartEx
  74:Generated_Source\PSoC4/GyroISR.c **** ********************************************************************************
  75:Generated_Source\PSoC4/GyroISR.c **** *
  76:Generated_Source\PSoC4/GyroISR.c **** * Summary:
  77:Generated_Source\PSoC4/GyroISR.c **** *  Sets up the interrupt and enables it. This function disables the interrupt,
  78:Generated_Source\PSoC4/GyroISR.c **** *  sets the interrupt vector based on the address passed in, sets the priority 
  79:Generated_Source\PSoC4/GyroISR.c **** *  from the value in the Design Wide Resources Interrupt Editor, then enables 
  80:Generated_Source\PSoC4/GyroISR.c **** *  the interrupt to the interrupt controller.
  81:Generated_Source\PSoC4/GyroISR.c **** *  
  82:Generated_Source\PSoC4/GyroISR.c **** *  When defining ISR functions, the CY_ISR and CY_ISR_PROTO macros should be 
  83:Generated_Source\PSoC4/GyroISR.c **** *  used to provide consistent definition across compilers:
  84:Generated_Source\PSoC4/GyroISR.c **** *  
  85:Generated_Source\PSoC4/GyroISR.c **** *  Function definition example:
  86:Generated_Source\PSoC4/GyroISR.c **** *   CY_ISR(MyISR)
  87:Generated_Source\PSoC4/GyroISR.c **** *   {
ARM GAS  C:\Users\ERICHO~1\AppData\Local\Temp\ccpfl8zJ.s 			page 3


  88:Generated_Source\PSoC4/GyroISR.c **** *   }
  89:Generated_Source\PSoC4/GyroISR.c **** *   Function prototype example:
  90:Generated_Source\PSoC4/GyroISR.c **** *   CY_ISR_PROTO(MyISR);
  91:Generated_Source\PSoC4/GyroISR.c **** *
  92:Generated_Source\PSoC4/GyroISR.c **** * Parameters:  
  93:Generated_Source\PSoC4/GyroISR.c **** *   address: Address of the ISR to set in the interrupt vector table.
  94:Generated_Source\PSoC4/GyroISR.c **** *
  95:Generated_Source\PSoC4/GyroISR.c **** * Return:
  96:Generated_Source\PSoC4/GyroISR.c **** *   None
  97:Generated_Source\PSoC4/GyroISR.c **** *
  98:Generated_Source\PSoC4/GyroISR.c **** *******************************************************************************/
  99:Generated_Source\PSoC4/GyroISR.c **** void GyroISR_StartEx(cyisraddress address)
 100:Generated_Source\PSoC4/GyroISR.c **** {
 101:Generated_Source\PSoC4/GyroISR.c ****     /* For all we know the interrupt is active. */
 102:Generated_Source\PSoC4/GyroISR.c ****     GyroISR_Disable();
 103:Generated_Source\PSoC4/GyroISR.c **** 
 104:Generated_Source\PSoC4/GyroISR.c ****     /* Set the ISR to point to the GyroISR Interrupt. */
 105:Generated_Source\PSoC4/GyroISR.c ****     GyroISR_SetVector(address);
 106:Generated_Source\PSoC4/GyroISR.c **** 
 107:Generated_Source\PSoC4/GyroISR.c ****     /* Set the priority. */
 108:Generated_Source\PSoC4/GyroISR.c ****     GyroISR_SetPriority((uint8)GyroISR_INTC_PRIOR_NUMBER);
 109:Generated_Source\PSoC4/GyroISR.c **** 
 110:Generated_Source\PSoC4/GyroISR.c ****     /* Enable it. */
 111:Generated_Source\PSoC4/GyroISR.c ****     GyroISR_Enable();
 112:Generated_Source\PSoC4/GyroISR.c **** }
 113:Generated_Source\PSoC4/GyroISR.c **** 
 114:Generated_Source\PSoC4/GyroISR.c **** 
 115:Generated_Source\PSoC4/GyroISR.c **** /*******************************************************************************
 116:Generated_Source\PSoC4/GyroISR.c **** * Function Name: GyroISR_Stop
 117:Generated_Source\PSoC4/GyroISR.c **** ********************************************************************************
 118:Generated_Source\PSoC4/GyroISR.c **** *
 119:Generated_Source\PSoC4/GyroISR.c **** * Summary:
 120:Generated_Source\PSoC4/GyroISR.c **** *   Disables and removes the interrupt.
 121:Generated_Source\PSoC4/GyroISR.c **** *
 122:Generated_Source\PSoC4/GyroISR.c **** * Parameters:  
 123:Generated_Source\PSoC4/GyroISR.c **** *   None
 124:Generated_Source\PSoC4/GyroISR.c **** *
 125:Generated_Source\PSoC4/GyroISR.c **** * Return:
 126:Generated_Source\PSoC4/GyroISR.c **** *   None
 127:Generated_Source\PSoC4/GyroISR.c **** *
 128:Generated_Source\PSoC4/GyroISR.c **** *******************************************************************************/
 129:Generated_Source\PSoC4/GyroISR.c **** void GyroISR_Stop(void)
 130:Generated_Source\PSoC4/GyroISR.c **** {
 131:Generated_Source\PSoC4/GyroISR.c ****     /* Disable this interrupt. */
 132:Generated_Source\PSoC4/GyroISR.c ****     GyroISR_Disable();
 133:Generated_Source\PSoC4/GyroISR.c **** 
 134:Generated_Source\PSoC4/GyroISR.c ****     /* Set the ISR to point to the passive one. */
 135:Generated_Source\PSoC4/GyroISR.c ****     GyroISR_SetVector(&IntDefaultHandler);
 136:Generated_Source\PSoC4/GyroISR.c **** }
 137:Generated_Source\PSoC4/GyroISR.c **** 
 138:Generated_Source\PSoC4/GyroISR.c **** 
 139:Generated_Source\PSoC4/GyroISR.c **** /*******************************************************************************
 140:Generated_Source\PSoC4/GyroISR.c **** * Function Name: GyroISR_Interrupt
 141:Generated_Source\PSoC4/GyroISR.c **** ********************************************************************************
 142:Generated_Source\PSoC4/GyroISR.c **** *
 143:Generated_Source\PSoC4/GyroISR.c **** * Summary:
 144:Generated_Source\PSoC4/GyroISR.c **** *   The default Interrupt Service Routine for GyroISR.
ARM GAS  C:\Users\ERICHO~1\AppData\Local\Temp\ccpfl8zJ.s 			page 4


 145:Generated_Source\PSoC4/GyroISR.c **** *
 146:Generated_Source\PSoC4/GyroISR.c **** *   Add custom code between the START and END comments to keep the next version
 147:Generated_Source\PSoC4/GyroISR.c **** *   of this file from over-writing your code.
 148:Generated_Source\PSoC4/GyroISR.c **** *
 149:Generated_Source\PSoC4/GyroISR.c **** *   Note You may use either the default ISR by using this API, or you may define
 150:Generated_Source\PSoC4/GyroISR.c **** *   your own separate ISR through ISR_StartEx().
 151:Generated_Source\PSoC4/GyroISR.c **** *
 152:Generated_Source\PSoC4/GyroISR.c **** * Parameters:  
 153:Generated_Source\PSoC4/GyroISR.c **** *   None
 154:Generated_Source\PSoC4/GyroISR.c **** *
 155:Generated_Source\PSoC4/GyroISR.c **** * Return:
 156:Generated_Source\PSoC4/GyroISR.c **** *   None
 157:Generated_Source\PSoC4/GyroISR.c **** *
 158:Generated_Source\PSoC4/GyroISR.c **** *******************************************************************************/
 159:Generated_Source\PSoC4/GyroISR.c **** CY_ISR(GyroISR_Interrupt)
 160:Generated_Source\PSoC4/GyroISR.c **** {
 161:Generated_Source\PSoC4/GyroISR.c ****     #ifdef GyroISR_INTERRUPT_INTERRUPT_CALLBACK
 162:Generated_Source\PSoC4/GyroISR.c ****         GyroISR_Interrupt_InterruptCallback();
 163:Generated_Source\PSoC4/GyroISR.c ****     #endif /* GyroISR_INTERRUPT_INTERRUPT_CALLBACK */ 
 164:Generated_Source\PSoC4/GyroISR.c **** 
 165:Generated_Source\PSoC4/GyroISR.c ****     /*  Place your Interrupt code here. */
 166:Generated_Source\PSoC4/GyroISR.c ****     /* `#START GyroISR_Interrupt` */
 167:Generated_Source\PSoC4/GyroISR.c ****     
 168:Generated_Source\PSoC4/GyroISR.c ****     CyGlobalIntDisable;
 169:Generated_Source\PSoC4/GyroISR.c **** 
 170:Generated_Source\PSoC4/GyroISR.c ****     if (num_tasks<5) { enqueue_task(GYRO_READ,0x01); }      // higher priority than others
 171:Generated_Source\PSoC4/GyroISR.c ****     
 172:Generated_Source\PSoC4/GyroISR.c ****     GyroISR_ClearPending();
 173:Generated_Source\PSoC4/GyroISR.c ****     
 174:Generated_Source\PSoC4/GyroISR.c ****     CyGlobalIntEnable;
 175:Generated_Source\PSoC4/GyroISR.c ****     
 176:Generated_Source\PSoC4/GyroISR.c ****     /* `#END` */
 177:Generated_Source\PSoC4/GyroISR.c **** }
 178:Generated_Source\PSoC4/GyroISR.c **** 
 179:Generated_Source\PSoC4/GyroISR.c **** 
 180:Generated_Source\PSoC4/GyroISR.c **** /*******************************************************************************
 181:Generated_Source\PSoC4/GyroISR.c **** * Function Name: GyroISR_SetVector
 182:Generated_Source\PSoC4/GyroISR.c **** ********************************************************************************
 183:Generated_Source\PSoC4/GyroISR.c **** *
 184:Generated_Source\PSoC4/GyroISR.c **** * Summary:
 185:Generated_Source\PSoC4/GyroISR.c **** *   Change the ISR vector for the Interrupt. Note calling GyroISR_Start
 186:Generated_Source\PSoC4/GyroISR.c **** *   will override any effect this method would have had. To set the vector 
 187:Generated_Source\PSoC4/GyroISR.c **** *   before the component has been started use GyroISR_StartEx instead.
 188:Generated_Source\PSoC4/GyroISR.c **** * 
 189:Generated_Source\PSoC4/GyroISR.c **** *   When defining ISR functions, the CY_ISR and CY_ISR_PROTO macros should be 
 190:Generated_Source\PSoC4/GyroISR.c **** *   used to provide consistent definition across compilers:
 191:Generated_Source\PSoC4/GyroISR.c **** *
 192:Generated_Source\PSoC4/GyroISR.c **** *   Function definition example:
 193:Generated_Source\PSoC4/GyroISR.c **** *   CY_ISR(MyISR)
 194:Generated_Source\PSoC4/GyroISR.c **** *   {
 195:Generated_Source\PSoC4/GyroISR.c **** *   }
 196:Generated_Source\PSoC4/GyroISR.c **** *
 197:Generated_Source\PSoC4/GyroISR.c **** *   Function prototype example:
 198:Generated_Source\PSoC4/GyroISR.c **** *     CY_ISR_PROTO(MyISR);
 199:Generated_Source\PSoC4/GyroISR.c **** *
 200:Generated_Source\PSoC4/GyroISR.c **** * Parameters:
 201:Generated_Source\PSoC4/GyroISR.c **** *   address: Address of the ISR to set in the interrupt vector table.
ARM GAS  C:\Users\ERICHO~1\AppData\Local\Temp\ccpfl8zJ.s 			page 5


 202:Generated_Source\PSoC4/GyroISR.c **** *
 203:Generated_Source\PSoC4/GyroISR.c **** * Return:
 204:Generated_Source\PSoC4/GyroISR.c **** *   None
 205:Generated_Source\PSoC4/GyroISR.c **** *
 206:Generated_Source\PSoC4/GyroISR.c **** *******************************************************************************/
 207:Generated_Source\PSoC4/GyroISR.c **** void GyroISR_SetVector(cyisraddress address)
 208:Generated_Source\PSoC4/GyroISR.c **** {
  28              		.loc 1 208 0
  29              		.cfi_startproc
  30              		@ args = 0, pretend = 0, frame = 0
  31              		@ frame_needed = 0, uses_anonymous_args = 0
  32              		@ link register save eliminated.
  33              	.LVL0:
 209:Generated_Source\PSoC4/GyroISR.c ****     CyRamVectors[CYINT_IRQ_BASE + GyroISR__INTC_NUMBER] = address;
  34              		.loc 1 209 0
  35 0000 014B     		ldr	r3, .L2
  36 0002 5864     		str	r0, [r3, #68]
 210:Generated_Source\PSoC4/GyroISR.c **** }
  37              		.loc 1 210 0
  38              		@ sp needed
  39 0004 7047     		bx	lr
  40              	.L3:
  41 0006 C046     		.align	2
  42              	.L2:
  43 0008 00000000 		.word	CyRamVectors
  44              		.cfi_endproc
  45              	.LFE5:
  46              		.size	GyroISR_SetVector, .-GyroISR_SetVector
  47              		.section	.text.GyroISR_GetVector,"ax",%progbits
  48              		.align	2
  49              		.global	GyroISR_GetVector
  50              		.code	16
  51              		.thumb_func
  52              		.type	GyroISR_GetVector, %function
  53              	GyroISR_GetVector:
  54              	.LFB6:
 211:Generated_Source\PSoC4/GyroISR.c **** 
 212:Generated_Source\PSoC4/GyroISR.c **** 
 213:Generated_Source\PSoC4/GyroISR.c **** /*******************************************************************************
 214:Generated_Source\PSoC4/GyroISR.c **** * Function Name: GyroISR_GetVector
 215:Generated_Source\PSoC4/GyroISR.c **** ********************************************************************************
 216:Generated_Source\PSoC4/GyroISR.c **** *
 217:Generated_Source\PSoC4/GyroISR.c **** * Summary:
 218:Generated_Source\PSoC4/GyroISR.c **** *   Gets the "address" of the current ISR vector for the Interrupt.
 219:Generated_Source\PSoC4/GyroISR.c **** *
 220:Generated_Source\PSoC4/GyroISR.c **** * Parameters:
 221:Generated_Source\PSoC4/GyroISR.c **** *   None
 222:Generated_Source\PSoC4/GyroISR.c **** *
 223:Generated_Source\PSoC4/GyroISR.c **** * Return:
 224:Generated_Source\PSoC4/GyroISR.c **** *   Address of the ISR in the interrupt vector table.
 225:Generated_Source\PSoC4/GyroISR.c **** *
 226:Generated_Source\PSoC4/GyroISR.c **** *******************************************************************************/
 227:Generated_Source\PSoC4/GyroISR.c **** cyisraddress GyroISR_GetVector(void)
 228:Generated_Source\PSoC4/GyroISR.c **** {
  55              		.loc 1 228 0
  56              		.cfi_startproc
  57              		@ args = 0, pretend = 0, frame = 0
ARM GAS  C:\Users\ERICHO~1\AppData\Local\Temp\ccpfl8zJ.s 			page 6


  58              		@ frame_needed = 0, uses_anonymous_args = 0
  59              		@ link register save eliminated.
 229:Generated_Source\PSoC4/GyroISR.c ****     return CyRamVectors[CYINT_IRQ_BASE + GyroISR__INTC_NUMBER];
  60              		.loc 1 229 0
  61 0000 014B     		ldr	r3, .L5
  62 0002 586C     		ldr	r0, [r3, #68]
 230:Generated_Source\PSoC4/GyroISR.c **** }
  63              		.loc 1 230 0
  64              		@ sp needed
  65 0004 7047     		bx	lr
  66              	.L6:
  67 0006 C046     		.align	2
  68              	.L5:
  69 0008 00000000 		.word	CyRamVectors
  70              		.cfi_endproc
  71              	.LFE6:
  72              		.size	GyroISR_GetVector, .-GyroISR_GetVector
  73              		.section	.text.GyroISR_SetPriority,"ax",%progbits
  74              		.align	2
  75              		.global	GyroISR_SetPriority
  76              		.code	16
  77              		.thumb_func
  78              		.type	GyroISR_SetPriority, %function
  79              	GyroISR_SetPriority:
  80              	.LFB7:
 231:Generated_Source\PSoC4/GyroISR.c **** 
 232:Generated_Source\PSoC4/GyroISR.c **** 
 233:Generated_Source\PSoC4/GyroISR.c **** /*******************************************************************************
 234:Generated_Source\PSoC4/GyroISR.c **** * Function Name: GyroISR_SetPriority
 235:Generated_Source\PSoC4/GyroISR.c **** ********************************************************************************
 236:Generated_Source\PSoC4/GyroISR.c **** *
 237:Generated_Source\PSoC4/GyroISR.c **** * Summary:
 238:Generated_Source\PSoC4/GyroISR.c **** *   Sets the Priority of the Interrupt. 
 239:Generated_Source\PSoC4/GyroISR.c **** *
 240:Generated_Source\PSoC4/GyroISR.c **** *   Note calling GyroISR_Start or GyroISR_StartEx will 
 241:Generated_Source\PSoC4/GyroISR.c **** *   override any effect this API would have had. This API should only be called
 242:Generated_Source\PSoC4/GyroISR.c **** *   after GyroISR_Start or GyroISR_StartEx has been called. 
 243:Generated_Source\PSoC4/GyroISR.c **** *   To set the initial priority for the component, use the Design-Wide Resources
 244:Generated_Source\PSoC4/GyroISR.c **** *   Interrupt Editor.
 245:Generated_Source\PSoC4/GyroISR.c **** *
 246:Generated_Source\PSoC4/GyroISR.c **** *   Note This API has no effect on Non-maskable interrupt NMI).
 247:Generated_Source\PSoC4/GyroISR.c **** *
 248:Generated_Source\PSoC4/GyroISR.c **** * Parameters:
 249:Generated_Source\PSoC4/GyroISR.c **** *   priority: Priority of the interrupt, 0 being the highest priority
 250:Generated_Source\PSoC4/GyroISR.c **** *             PSoC 3 and PSoC 5LP: Priority is from 0 to 7.
 251:Generated_Source\PSoC4/GyroISR.c **** *             PSoC 4: Priority is from 0 to 3.
 252:Generated_Source\PSoC4/GyroISR.c **** *
 253:Generated_Source\PSoC4/GyroISR.c **** * Return:
 254:Generated_Source\PSoC4/GyroISR.c **** *   None
 255:Generated_Source\PSoC4/GyroISR.c **** *
 256:Generated_Source\PSoC4/GyroISR.c **** *******************************************************************************/
 257:Generated_Source\PSoC4/GyroISR.c **** void GyroISR_SetPriority(uint8 priority)
 258:Generated_Source\PSoC4/GyroISR.c **** {
  81              		.loc 1 258 0
  82              		.cfi_startproc
  83              		@ args = 0, pretend = 0, frame = 0
  84              		@ frame_needed = 0, uses_anonymous_args = 0
ARM GAS  C:\Users\ERICHO~1\AppData\Local\Temp\ccpfl8zJ.s 			page 7


  85              	.LVL1:
  86 0000 10B5     		push	{r4, lr}
  87              		.cfi_def_cfa_offset 8
  88              		.cfi_offset 4, -8
  89              		.cfi_offset 14, -4
  90 0002 0400     		movs	r4, r0
  91              	.LVL2:
 259:Generated_Source\PSoC4/GyroISR.c **** 	uint8 interruptState;
 260:Generated_Source\PSoC4/GyroISR.c ****     uint32 priorityOffset = ((GyroISR__INTC_NUMBER % 4u) * 8u) + 6u;
 261:Generated_Source\PSoC4/GyroISR.c ****     
 262:Generated_Source\PSoC4/GyroISR.c **** 	interruptState = CyEnterCriticalSection();
  92              		.loc 1 262 0
  93 0004 FFF7FEFF 		bl	CyEnterCriticalSection
  94              	.LVL3:
 263:Generated_Source\PSoC4/GyroISR.c ****     *GyroISR_INTC_PRIOR = (*GyroISR_INTC_PRIOR & (uint32)(~GyroISR__INTC_PRIOR_MASK)) |
  95              		.loc 1 263 0
  96 0008 044A     		ldr	r2, .L8
  97 000a 1168     		ldr	r1, [r2]
  98 000c 044B     		ldr	r3, .L8+4
  99 000e 0B40     		ands	r3, r1
 264:Generated_Source\PSoC4/GyroISR.c ****                                     ((uint32)priority << priorityOffset);
 100              		.loc 1 264 0
 101 0010 A403     		lsls	r4, r4, #14
 263:Generated_Source\PSoC4/GyroISR.c ****     *GyroISR_INTC_PRIOR = (*GyroISR_INTC_PRIOR & (uint32)(~GyroISR__INTC_PRIOR_MASK)) |
 102              		.loc 1 263 0
 103 0012 1C43     		orrs	r4, r3
 104 0014 1460     		str	r4, [r2]
 265:Generated_Source\PSoC4/GyroISR.c **** 	CyExitCriticalSection(interruptState);
 105              		.loc 1 265 0
 106 0016 FFF7FEFF 		bl	CyExitCriticalSection
 107              	.LVL4:
 266:Generated_Source\PSoC4/GyroISR.c **** }
 108              		.loc 1 266 0
 109              		@ sp needed
 110 001a 10BD     		pop	{r4, pc}
 111              	.L9:
 112              		.align	2
 113              	.L8:
 114 001c 00E400E0 		.word	-536812544
 115 0020 FF3FFFFF 		.word	-49153
 116              		.cfi_endproc
 117              	.LFE7:
 118              		.size	GyroISR_SetPriority, .-GyroISR_SetPriority
 119              		.section	.text.GyroISR_GetPriority,"ax",%progbits
 120              		.align	2
 121              		.global	GyroISR_GetPriority
 122              		.code	16
 123              		.thumb_func
 124              		.type	GyroISR_GetPriority, %function
 125              	GyroISR_GetPriority:
 126              	.LFB8:
 267:Generated_Source\PSoC4/GyroISR.c **** 
 268:Generated_Source\PSoC4/GyroISR.c **** 
 269:Generated_Source\PSoC4/GyroISR.c **** /*******************************************************************************
 270:Generated_Source\PSoC4/GyroISR.c **** * Function Name: GyroISR_GetPriority
 271:Generated_Source\PSoC4/GyroISR.c **** ********************************************************************************
 272:Generated_Source\PSoC4/GyroISR.c **** *
ARM GAS  C:\Users\ERICHO~1\AppData\Local\Temp\ccpfl8zJ.s 			page 8


 273:Generated_Source\PSoC4/GyroISR.c **** * Summary:
 274:Generated_Source\PSoC4/GyroISR.c **** *   Gets the Priority of the Interrupt.
 275:Generated_Source\PSoC4/GyroISR.c **** *
 276:Generated_Source\PSoC4/GyroISR.c **** * Parameters:
 277:Generated_Source\PSoC4/GyroISR.c **** *   None
 278:Generated_Source\PSoC4/GyroISR.c **** *
 279:Generated_Source\PSoC4/GyroISR.c **** * Return:
 280:Generated_Source\PSoC4/GyroISR.c **** *   Priority of the interrupt, 0 being the highest priority
 281:Generated_Source\PSoC4/GyroISR.c **** *    PSoC 3 and PSoC 5LP: Priority is from 0 to 7.
 282:Generated_Source\PSoC4/GyroISR.c **** *    PSoC 4: Priority is from 0 to 3.
 283:Generated_Source\PSoC4/GyroISR.c **** *
 284:Generated_Source\PSoC4/GyroISR.c **** *******************************************************************************/
 285:Generated_Source\PSoC4/GyroISR.c **** uint8 GyroISR_GetPriority(void)
 286:Generated_Source\PSoC4/GyroISR.c **** {
 127              		.loc 1 286 0
 128              		.cfi_startproc
 129              		@ args = 0, pretend = 0, frame = 0
 130              		@ frame_needed = 0, uses_anonymous_args = 0
 131              		@ link register save eliminated.
 132              	.LVL5:
 287:Generated_Source\PSoC4/GyroISR.c ****     uint32 priority;
 288:Generated_Source\PSoC4/GyroISR.c **** 	uint32 priorityOffset = ((GyroISR__INTC_NUMBER % 4u) * 8u) + 6u;
 289:Generated_Source\PSoC4/GyroISR.c **** 
 290:Generated_Source\PSoC4/GyroISR.c ****     priority = (*GyroISR_INTC_PRIOR & GyroISR__INTC_PRIOR_MASK) >> priorityOffset;
 133              		.loc 1 290 0
 134 0000 024B     		ldr	r3, .L11
 135 0002 1868     		ldr	r0, [r3]
 136 0004 800B     		lsrs	r0, r0, #14
 137              	.LVL6:
 291:Generated_Source\PSoC4/GyroISR.c **** 
 292:Generated_Source\PSoC4/GyroISR.c ****     return (uint8)priority;
 138              		.loc 1 292 0
 139 0006 0323     		movs	r3, #3
 140 0008 1840     		ands	r0, r3
 141              	.LVL7:
 293:Generated_Source\PSoC4/GyroISR.c **** }
 142              		.loc 1 293 0
 143              		@ sp needed
 144 000a 7047     		bx	lr
 145              	.L12:
 146              		.align	2
 147              	.L11:
 148 000c 00E400E0 		.word	-536812544
 149              		.cfi_endproc
 150              	.LFE8:
 151              		.size	GyroISR_GetPriority, .-GyroISR_GetPriority
 152              		.section	.text.GyroISR_Enable,"ax",%progbits
 153              		.align	2
 154              		.global	GyroISR_Enable
 155              		.code	16
 156              		.thumb_func
 157              		.type	GyroISR_Enable, %function
 158              	GyroISR_Enable:
 159              	.LFB9:
 294:Generated_Source\PSoC4/GyroISR.c **** 
 295:Generated_Source\PSoC4/GyroISR.c **** 
 296:Generated_Source\PSoC4/GyroISR.c **** /*******************************************************************************
ARM GAS  C:\Users\ERICHO~1\AppData\Local\Temp\ccpfl8zJ.s 			page 9


 297:Generated_Source\PSoC4/GyroISR.c **** * Function Name: GyroISR_Enable
 298:Generated_Source\PSoC4/GyroISR.c **** ********************************************************************************
 299:Generated_Source\PSoC4/GyroISR.c **** *
 300:Generated_Source\PSoC4/GyroISR.c **** * Summary:
 301:Generated_Source\PSoC4/GyroISR.c **** *   Enables the interrupt to the interrupt controller. Do not call this function
 302:Generated_Source\PSoC4/GyroISR.c **** *   unless ISR_Start() has been called or the functionality of the ISR_Start() 
 303:Generated_Source\PSoC4/GyroISR.c **** *   function, which sets the vector and the priority, has been called.
 304:Generated_Source\PSoC4/GyroISR.c **** *
 305:Generated_Source\PSoC4/GyroISR.c **** * Parameters:
 306:Generated_Source\PSoC4/GyroISR.c **** *   None
 307:Generated_Source\PSoC4/GyroISR.c **** *
 308:Generated_Source\PSoC4/GyroISR.c **** * Return:
 309:Generated_Source\PSoC4/GyroISR.c **** *   None
 310:Generated_Source\PSoC4/GyroISR.c **** *
 311:Generated_Source\PSoC4/GyroISR.c **** *******************************************************************************/
 312:Generated_Source\PSoC4/GyroISR.c **** void GyroISR_Enable(void)
 313:Generated_Source\PSoC4/GyroISR.c **** {
 160              		.loc 1 313 0
 161              		.cfi_startproc
 162              		@ args = 0, pretend = 0, frame = 0
 163              		@ frame_needed = 0, uses_anonymous_args = 0
 164              		@ link register save eliminated.
 314:Generated_Source\PSoC4/GyroISR.c ****     /* Enable the general interrupt. */
 315:Generated_Source\PSoC4/GyroISR.c ****     *GyroISR_INTC_SET_EN = GyroISR__INTC_MASK;
 165              		.loc 1 315 0
 166 0000 0222     		movs	r2, #2
 167 0002 014B     		ldr	r3, .L14
 168 0004 1A60     		str	r2, [r3]
 316:Generated_Source\PSoC4/GyroISR.c **** }
 169              		.loc 1 316 0
 170              		@ sp needed
 171 0006 7047     		bx	lr
 172              	.L15:
 173              		.align	2
 174              	.L14:
 175 0008 00E100E0 		.word	-536813312
 176              		.cfi_endproc
 177              	.LFE9:
 178              		.size	GyroISR_Enable, .-GyroISR_Enable
 179              		.section	.text.GyroISR_GetState,"ax",%progbits
 180              		.align	2
 181              		.global	GyroISR_GetState
 182              		.code	16
 183              		.thumb_func
 184              		.type	GyroISR_GetState, %function
 185              	GyroISR_GetState:
 186              	.LFB10:
 317:Generated_Source\PSoC4/GyroISR.c **** 
 318:Generated_Source\PSoC4/GyroISR.c **** 
 319:Generated_Source\PSoC4/GyroISR.c **** /*******************************************************************************
 320:Generated_Source\PSoC4/GyroISR.c **** * Function Name: GyroISR_GetState
 321:Generated_Source\PSoC4/GyroISR.c **** ********************************************************************************
 322:Generated_Source\PSoC4/GyroISR.c **** *
 323:Generated_Source\PSoC4/GyroISR.c **** * Summary:
 324:Generated_Source\PSoC4/GyroISR.c **** *   Gets the state (enabled, disabled) of the Interrupt.
 325:Generated_Source\PSoC4/GyroISR.c **** *
 326:Generated_Source\PSoC4/GyroISR.c **** * Parameters:
ARM GAS  C:\Users\ERICHO~1\AppData\Local\Temp\ccpfl8zJ.s 			page 10


 327:Generated_Source\PSoC4/GyroISR.c **** *   None
 328:Generated_Source\PSoC4/GyroISR.c **** *
 329:Generated_Source\PSoC4/GyroISR.c **** * Return:
 330:Generated_Source\PSoC4/GyroISR.c **** *   1 if enabled, 0 if disabled.
 331:Generated_Source\PSoC4/GyroISR.c **** *
 332:Generated_Source\PSoC4/GyroISR.c **** *******************************************************************************/
 333:Generated_Source\PSoC4/GyroISR.c **** uint8 GyroISR_GetState(void)
 334:Generated_Source\PSoC4/GyroISR.c **** {
 187              		.loc 1 334 0
 188              		.cfi_startproc
 189              		@ args = 0, pretend = 0, frame = 0
 190              		@ frame_needed = 0, uses_anonymous_args = 0
 191              		@ link register save eliminated.
 335:Generated_Source\PSoC4/GyroISR.c ****     /* Get the state of the general interrupt. */
 336:Generated_Source\PSoC4/GyroISR.c ****     return ((*GyroISR_INTC_SET_EN & (uint32)GyroISR__INTC_MASK) != 0u) ? 1u:0u;
 192              		.loc 1 336 0
 193 0000 034B     		ldr	r3, .L19
 194 0002 1B68     		ldr	r3, [r3]
 195 0004 9B07     		lsls	r3, r3, #30
 196 0006 01D5     		bpl	.L18
 197 0008 0120     		movs	r0, #1
 198 000a 00E0     		b	.L17
 199              	.L18:
 200 000c 0020     		movs	r0, #0
 201              	.L17:
 337:Generated_Source\PSoC4/GyroISR.c **** }
 202              		.loc 1 337 0 discriminator 4
 203              		@ sp needed
 204 000e 7047     		bx	lr
 205              	.L20:
 206              		.align	2
 207              	.L19:
 208 0010 00E100E0 		.word	-536813312
 209              		.cfi_endproc
 210              	.LFE10:
 211              		.size	GyroISR_GetState, .-GyroISR_GetState
 212              		.section	.text.GyroISR_Disable,"ax",%progbits
 213              		.align	2
 214              		.global	GyroISR_Disable
 215              		.code	16
 216              		.thumb_func
 217              		.type	GyroISR_Disable, %function
 218              	GyroISR_Disable:
 219              	.LFB11:
 338:Generated_Source\PSoC4/GyroISR.c **** 
 339:Generated_Source\PSoC4/GyroISR.c **** 
 340:Generated_Source\PSoC4/GyroISR.c **** /*******************************************************************************
 341:Generated_Source\PSoC4/GyroISR.c **** * Function Name: GyroISR_Disable
 342:Generated_Source\PSoC4/GyroISR.c **** ********************************************************************************
 343:Generated_Source\PSoC4/GyroISR.c **** *
 344:Generated_Source\PSoC4/GyroISR.c **** * Summary:
 345:Generated_Source\PSoC4/GyroISR.c **** *   Disables the Interrupt in the interrupt controller.
 346:Generated_Source\PSoC4/GyroISR.c **** *
 347:Generated_Source\PSoC4/GyroISR.c **** * Parameters:
 348:Generated_Source\PSoC4/GyroISR.c **** *   None
 349:Generated_Source\PSoC4/GyroISR.c **** *
 350:Generated_Source\PSoC4/GyroISR.c **** * Return:
ARM GAS  C:\Users\ERICHO~1\AppData\Local\Temp\ccpfl8zJ.s 			page 11


 351:Generated_Source\PSoC4/GyroISR.c **** *   None
 352:Generated_Source\PSoC4/GyroISR.c **** *
 353:Generated_Source\PSoC4/GyroISR.c **** *******************************************************************************/
 354:Generated_Source\PSoC4/GyroISR.c **** void GyroISR_Disable(void)
 355:Generated_Source\PSoC4/GyroISR.c **** {
 220              		.loc 1 355 0
 221              		.cfi_startproc
 222              		@ args = 0, pretend = 0, frame = 0
 223              		@ frame_needed = 0, uses_anonymous_args = 0
 224              		@ link register save eliminated.
 356:Generated_Source\PSoC4/GyroISR.c ****     /* Disable the general interrupt. */
 357:Generated_Source\PSoC4/GyroISR.c ****     *GyroISR_INTC_CLR_EN = GyroISR__INTC_MASK;
 225              		.loc 1 357 0
 226 0000 0222     		movs	r2, #2
 227 0002 014B     		ldr	r3, .L22
 228 0004 1A60     		str	r2, [r3]
 358:Generated_Source\PSoC4/GyroISR.c **** }
 229              		.loc 1 358 0
 230              		@ sp needed
 231 0006 7047     		bx	lr
 232              	.L23:
 233              		.align	2
 234              	.L22:
 235 0008 80E100E0 		.word	-536813184
 236              		.cfi_endproc
 237              	.LFE11:
 238              		.size	GyroISR_Disable, .-GyroISR_Disable
 239              		.section	.text.GyroISR_Start,"ax",%progbits
 240              		.align	2
 241              		.global	GyroISR_Start
 242              		.code	16
 243              		.thumb_func
 244              		.type	GyroISR_Start, %function
 245              	GyroISR_Start:
 246              	.LFB1:
  57:Generated_Source\PSoC4/GyroISR.c ****     /* For all we know the interrupt is active. */
 247              		.loc 1 57 0
 248              		.cfi_startproc
 249              		@ args = 0, pretend = 0, frame = 0
 250              		@ frame_needed = 0, uses_anonymous_args = 0
 251 0000 10B5     		push	{r4, lr}
 252              		.cfi_def_cfa_offset 8
 253              		.cfi_offset 4, -8
 254              		.cfi_offset 14, -4
  59:Generated_Source\PSoC4/GyroISR.c **** 
 255              		.loc 1 59 0
 256 0002 FFF7FEFF 		bl	GyroISR_Disable
 257              	.LVL8:
  62:Generated_Source\PSoC4/GyroISR.c **** 
 258              		.loc 1 62 0
 259 0006 0448     		ldr	r0, .L25
 260 0008 FFF7FEFF 		bl	GyroISR_SetVector
 261              	.LVL9:
  65:Generated_Source\PSoC4/GyroISR.c **** 
 262              		.loc 1 65 0
 263 000c 0320     		movs	r0, #3
 264 000e FFF7FEFF 		bl	GyroISR_SetPriority
ARM GAS  C:\Users\ERICHO~1\AppData\Local\Temp\ccpfl8zJ.s 			page 12


 265              	.LVL10:
  68:Generated_Source\PSoC4/GyroISR.c **** }
 266              		.loc 1 68 0
 267 0012 FFF7FEFF 		bl	GyroISR_Enable
 268              	.LVL11:
  69:Generated_Source\PSoC4/GyroISR.c **** 
 269              		.loc 1 69 0
 270              		@ sp needed
 271 0016 10BD     		pop	{r4, pc}
 272              	.L26:
 273              		.align	2
 274              	.L25:
 275 0018 00000000 		.word	GyroISR_Interrupt
 276              		.cfi_endproc
 277              	.LFE1:
 278              		.size	GyroISR_Start, .-GyroISR_Start
 279              		.section	.text.GyroISR_StartEx,"ax",%progbits
 280              		.align	2
 281              		.global	GyroISR_StartEx
 282              		.code	16
 283              		.thumb_func
 284              		.type	GyroISR_StartEx, %function
 285              	GyroISR_StartEx:
 286              	.LFB2:
 100:Generated_Source\PSoC4/GyroISR.c ****     /* For all we know the interrupt is active. */
 287              		.loc 1 100 0
 288              		.cfi_startproc
 289              		@ args = 0, pretend = 0, frame = 0
 290              		@ frame_needed = 0, uses_anonymous_args = 0
 291              	.LVL12:
 292 0000 10B5     		push	{r4, lr}
 293              		.cfi_def_cfa_offset 8
 294              		.cfi_offset 4, -8
 295              		.cfi_offset 14, -4
 296 0002 0400     		movs	r4, r0
 102:Generated_Source\PSoC4/GyroISR.c **** 
 297              		.loc 1 102 0
 298 0004 FFF7FEFF 		bl	GyroISR_Disable
 299              	.LVL13:
 105:Generated_Source\PSoC4/GyroISR.c **** 
 300              		.loc 1 105 0
 301 0008 2000     		movs	r0, r4
 302 000a FFF7FEFF 		bl	GyroISR_SetVector
 303              	.LVL14:
 108:Generated_Source\PSoC4/GyroISR.c **** 
 304              		.loc 1 108 0
 305 000e 0320     		movs	r0, #3
 306 0010 FFF7FEFF 		bl	GyroISR_SetPriority
 307              	.LVL15:
 111:Generated_Source\PSoC4/GyroISR.c **** }
 308              		.loc 1 111 0
 309 0014 FFF7FEFF 		bl	GyroISR_Enable
 310              	.LVL16:
 112:Generated_Source\PSoC4/GyroISR.c **** 
 311              		.loc 1 112 0
 312              		@ sp needed
 313              	.LVL17:
ARM GAS  C:\Users\ERICHO~1\AppData\Local\Temp\ccpfl8zJ.s 			page 13


 314 0018 10BD     		pop	{r4, pc}
 315              		.cfi_endproc
 316              	.LFE2:
 317              		.size	GyroISR_StartEx, .-GyroISR_StartEx
 318 001a C046     		.section	.text.GyroISR_Stop,"ax",%progbits
 319              		.align	2
 320              		.global	GyroISR_Stop
 321              		.code	16
 322              		.thumb_func
 323              		.type	GyroISR_Stop, %function
 324              	GyroISR_Stop:
 325              	.LFB3:
 130:Generated_Source\PSoC4/GyroISR.c ****     /* Disable this interrupt. */
 326              		.loc 1 130 0
 327              		.cfi_startproc
 328              		@ args = 0, pretend = 0, frame = 0
 329              		@ frame_needed = 0, uses_anonymous_args = 0
 330 0000 10B5     		push	{r4, lr}
 331              		.cfi_def_cfa_offset 8
 332              		.cfi_offset 4, -8
 333              		.cfi_offset 14, -4
 132:Generated_Source\PSoC4/GyroISR.c **** 
 334              		.loc 1 132 0
 335 0002 FFF7FEFF 		bl	GyroISR_Disable
 336              	.LVL18:
 135:Generated_Source\PSoC4/GyroISR.c **** }
 337              		.loc 1 135 0
 338 0006 0248     		ldr	r0, .L29
 339 0008 FFF7FEFF 		bl	GyroISR_SetVector
 340              	.LVL19:
 136:Generated_Source\PSoC4/GyroISR.c **** 
 341              		.loc 1 136 0
 342              		@ sp needed
 343 000c 10BD     		pop	{r4, pc}
 344              	.L30:
 345 000e C046     		.align	2
 346              	.L29:
 347 0010 00000000 		.word	IntDefaultHandler
 348              		.cfi_endproc
 349              	.LFE3:
 350              		.size	GyroISR_Stop, .-GyroISR_Stop
 351              		.section	.text.GyroISR_SetPending,"ax",%progbits
 352              		.align	2
 353              		.global	GyroISR_SetPending
 354              		.code	16
 355              		.thumb_func
 356              		.type	GyroISR_SetPending, %function
 357              	GyroISR_SetPending:
 358              	.LFB12:
 359:Generated_Source\PSoC4/GyroISR.c **** 
 360:Generated_Source\PSoC4/GyroISR.c **** 
 361:Generated_Source\PSoC4/GyroISR.c **** /*******************************************************************************
 362:Generated_Source\PSoC4/GyroISR.c **** * Function Name: GyroISR_SetPending
 363:Generated_Source\PSoC4/GyroISR.c **** ********************************************************************************
 364:Generated_Source\PSoC4/GyroISR.c **** *
 365:Generated_Source\PSoC4/GyroISR.c **** * Summary:
 366:Generated_Source\PSoC4/GyroISR.c **** *   Causes the Interrupt to enter the pending state, a software method of
ARM GAS  C:\Users\ERICHO~1\AppData\Local\Temp\ccpfl8zJ.s 			page 14


 367:Generated_Source\PSoC4/GyroISR.c **** *   generating the interrupt.
 368:Generated_Source\PSoC4/GyroISR.c **** *
 369:Generated_Source\PSoC4/GyroISR.c **** * Parameters:
 370:Generated_Source\PSoC4/GyroISR.c **** *   None
 371:Generated_Source\PSoC4/GyroISR.c **** *
 372:Generated_Source\PSoC4/GyroISR.c **** * Return:
 373:Generated_Source\PSoC4/GyroISR.c **** *   None
 374:Generated_Source\PSoC4/GyroISR.c **** *
 375:Generated_Source\PSoC4/GyroISR.c **** * Side Effects:
 376:Generated_Source\PSoC4/GyroISR.c **** *   If interrupts are enabled and the interrupt is set up properly, the ISR is
 377:Generated_Source\PSoC4/GyroISR.c **** *   entered (depending on the priority of this interrupt and other pending 
 378:Generated_Source\PSoC4/GyroISR.c **** *   interrupts).
 379:Generated_Source\PSoC4/GyroISR.c **** *
 380:Generated_Source\PSoC4/GyroISR.c **** *******************************************************************************/
 381:Generated_Source\PSoC4/GyroISR.c **** void GyroISR_SetPending(void)
 382:Generated_Source\PSoC4/GyroISR.c **** {
 359              		.loc 1 382 0
 360              		.cfi_startproc
 361              		@ args = 0, pretend = 0, frame = 0
 362              		@ frame_needed = 0, uses_anonymous_args = 0
 363              		@ link register save eliminated.
 383:Generated_Source\PSoC4/GyroISR.c ****     *GyroISR_INTC_SET_PD = GyroISR__INTC_MASK;
 364              		.loc 1 383 0
 365 0000 0222     		movs	r2, #2
 366 0002 014B     		ldr	r3, .L32
 367 0004 1A60     		str	r2, [r3]
 384:Generated_Source\PSoC4/GyroISR.c **** }
 368              		.loc 1 384 0
 369              		@ sp needed
 370 0006 7047     		bx	lr
 371              	.L33:
 372              		.align	2
 373              	.L32:
 374 0008 00E200E0 		.word	-536813056
 375              		.cfi_endproc
 376              	.LFE12:
 377              		.size	GyroISR_SetPending, .-GyroISR_SetPending
 378              		.section	.text.GyroISR_ClearPending,"ax",%progbits
 379              		.align	2
 380              		.global	GyroISR_ClearPending
 381              		.code	16
 382              		.thumb_func
 383              		.type	GyroISR_ClearPending, %function
 384              	GyroISR_ClearPending:
 385              	.LFB13:
 385:Generated_Source\PSoC4/GyroISR.c **** 
 386:Generated_Source\PSoC4/GyroISR.c **** 
 387:Generated_Source\PSoC4/GyroISR.c **** /*******************************************************************************
 388:Generated_Source\PSoC4/GyroISR.c **** * Function Name: GyroISR_ClearPending
 389:Generated_Source\PSoC4/GyroISR.c **** ********************************************************************************
 390:Generated_Source\PSoC4/GyroISR.c **** *
 391:Generated_Source\PSoC4/GyroISR.c **** * Summary:
 392:Generated_Source\PSoC4/GyroISR.c **** *   Clears a pending interrupt in the interrupt controller.
 393:Generated_Source\PSoC4/GyroISR.c **** *
 394:Generated_Source\PSoC4/GyroISR.c **** *   Note Some interrupt sources are clear-on-read and require the block 
 395:Generated_Source\PSoC4/GyroISR.c **** *   interrupt/status register to be read/cleared with the appropriate block API 
 396:Generated_Source\PSoC4/GyroISR.c **** *   (GPIO, UART, and so on). Otherwise the ISR will continue to remain in 
ARM GAS  C:\Users\ERICHO~1\AppData\Local\Temp\ccpfl8zJ.s 			page 15


 397:Generated_Source\PSoC4/GyroISR.c **** *   pending state even though the interrupt itself is cleared using this API.
 398:Generated_Source\PSoC4/GyroISR.c **** *
 399:Generated_Source\PSoC4/GyroISR.c **** * Parameters:
 400:Generated_Source\PSoC4/GyroISR.c **** *   None
 401:Generated_Source\PSoC4/GyroISR.c **** *
 402:Generated_Source\PSoC4/GyroISR.c **** * Return:
 403:Generated_Source\PSoC4/GyroISR.c **** *   None
 404:Generated_Source\PSoC4/GyroISR.c **** *
 405:Generated_Source\PSoC4/GyroISR.c **** *******************************************************************************/
 406:Generated_Source\PSoC4/GyroISR.c **** void GyroISR_ClearPending(void)
 407:Generated_Source\PSoC4/GyroISR.c **** {
 386              		.loc 1 407 0
 387              		.cfi_startproc
 388              		@ args = 0, pretend = 0, frame = 0
 389              		@ frame_needed = 0, uses_anonymous_args = 0
 390              		@ link register save eliminated.
 408:Generated_Source\PSoC4/GyroISR.c ****     *GyroISR_INTC_CLR_PD = GyroISR__INTC_MASK;
 391              		.loc 1 408 0
 392 0000 0222     		movs	r2, #2
 393 0002 014B     		ldr	r3, .L35
 394 0004 1A60     		str	r2, [r3]
 409:Generated_Source\PSoC4/GyroISR.c **** }
 395              		.loc 1 409 0
 396              		@ sp needed
 397 0006 7047     		bx	lr
 398              	.L36:
 399              		.align	2
 400              	.L35:
 401 0008 80E200E0 		.word	-536812928
 402              		.cfi_endproc
 403              	.LFE13:
 404              		.size	GyroISR_ClearPending, .-GyroISR_ClearPending
 405              		.section	.text.GyroISR_Interrupt,"ax",%progbits
 406              		.align	2
 407              		.global	GyroISR_Interrupt
 408              		.code	16
 409              		.thumb_func
 410              		.type	GyroISR_Interrupt, %function
 411              	GyroISR_Interrupt:
 412              	.LFB4:
 160:Generated_Source\PSoC4/GyroISR.c ****     #ifdef GyroISR_INTERRUPT_INTERRUPT_CALLBACK
 413              		.loc 1 160 0
 414              		.cfi_startproc
 415              		@ args = 0, pretend = 0, frame = 0
 416              		@ frame_needed = 0, uses_anonymous_args = 0
 417 0000 10B5     		push	{r4, lr}
 418              		.cfi_def_cfa_offset 8
 419              		.cfi_offset 4, -8
 420              		.cfi_offset 14, -4
 168:Generated_Source\PSoC4/GyroISR.c **** 
 421              		.loc 1 168 0
 422              		.syntax divided
 423              	@ 168 "Generated_Source\PSoC4\GyroISR.c" 1
 424 0002 72B6     		CPSID   i
 425              	@ 0 "" 2
 170:Generated_Source\PSoC4/GyroISR.c ****     
 426              		.loc 1 170 0
ARM GAS  C:\Users\ERICHO~1\AppData\Local\Temp\ccpfl8zJ.s 			page 16


 427              		.thumb
 428              		.syntax unified
 429 0004 064B     		ldr	r3, .L39
 430 0006 1B78     		ldrb	r3, [r3]
 431 0008 DBB2     		uxtb	r3, r3
 432 000a 042B     		cmp	r3, #4
 433 000c 03D8     		bhi	.L38
 170:Generated_Source\PSoC4/GyroISR.c ****     
 434              		.loc 1 170 0 is_stmt 0 discriminator 1
 435 000e 0121     		movs	r1, #1
 436 0010 0120     		movs	r0, #1
 437 0012 FFF7FEFF 		bl	enqueue_task
 438              	.LVL20:
 439              	.L38:
 172:Generated_Source\PSoC4/GyroISR.c ****     
 440              		.loc 1 172 0 is_stmt 1
 441 0016 FFF7FEFF 		bl	GyroISR_ClearPending
 442              	.LVL21:
 174:Generated_Source\PSoC4/GyroISR.c ****     
 443              		.loc 1 174 0
 444              		.syntax divided
 445              	@ 174 "Generated_Source\PSoC4\GyroISR.c" 1
 446 001a 62B6     		CPSIE   i
 447              	@ 0 "" 2
 177:Generated_Source\PSoC4/GyroISR.c **** 
 448              		.loc 1 177 0
 449              		.thumb
 450              		.syntax unified
 451              		@ sp needed
 452 001c 10BD     		pop	{r4, pc}
 453              	.L40:
 454 001e C046     		.align	2
 455              	.L39:
 456 0020 00000000 		.word	num_tasks
 457              		.cfi_endproc
 458              	.LFE4:
 459              		.size	GyroISR_Interrupt, .-GyroISR_Interrupt
 460              		.comm	slider_pos_last,1,1
 461              		.comm	run_mode,1,1
 462              		.comm	Init_heading,2,2
 463              		.comm	Max_Lidar,2,2
 464              		.comm	Batt_volt,2,2
 465              		.comm	ESC_curr,2,2
 466              		.comm	motor_toggles,2,2
 467              		.comm	num_tasks,1,1
 468              		.comm	num_rx_bytes_lidar_buff,1,1
 469              		.comm	num_rx_bytes_lidar,1,1
 470              		.comm	LIDAR_UART_tmr,1,1
 471              		.comm	rx_bytes_lidar_buff,16,4
 472              		.comm	rx_bytes_lidar,16,4
 473              		.comm	num_rx_bytes_ble_buff,1,1
 474              		.comm	num_rx_bytes_ble,1,1
 475              		.comm	BLE_UART_tmr,1,1
 476              		.comm	rx_bytes_ble_buff,8,4
 477              		.comm	rx_bytes_ble,8,4
 478              		.comm	num_rx_bytes_dbg_buff,1,1
 479              		.comm	num_rx_bytes_dbg,1,1
ARM GAS  C:\Users\ERICHO~1\AppData\Local\Temp\ccpfl8zJ.s 			page 17


 480              		.comm	rx_bytes_dbg_buff,8,4
 481              		.comm	rx_bytes_dbg,8,4
 482              		.text
 483              	.Letext0:
 484              		.file 2 "c:\\program files (x86)\\cypress\\psoc creator\\4.3\\psoc creator\\import\\gnu\\arm\\5.4.
 485              		.file 3 "c:\\program files (x86)\\cypress\\psoc creator\\4.3\\psoc creator\\import\\gnu\\arm\\5.4.
 486              		.file 4 "Generated_Source\\PSoC4/cytypes.h"
 487              		.file 5 "./main.h"
 488              		.file 6 "Generated_Source\\PSoC4/CyLib.h"