ARM GAS  C:\Users\ERICHO~1\AppData\Local\Temp\ccMMoPqP.s 			page 1


   1              		.syntax unified
   2              		.cpu cortex-m0
   3              		.fpu softvfp
   4              		.eabi_attribute 20, 1
   5              		.eabi_attribute 21, 1
   6              		.eabi_attribute 23, 3
   7              		.eabi_attribute 24, 1
   8              		.eabi_attribute 25, 1
   9              		.eabi_attribute 26, 1
  10              		.eabi_attribute 30, 1
  11              		.eabi_attribute 34, 0
  12              		.eabi_attribute 18, 4
  13              		.thumb
  14              		.syntax unified
  15              		.file	"MagISR.c"
  16              		.text
  17              	.Ltext0:
  18              		.cfi_sections	.debug_frame
  19              		.section	.text.MagISR_SetVector,"ax",%progbits
  20              		.align	2
  21              		.global	MagISR_SetVector
  22              		.code	16
  23              		.thumb_func
  24              		.type	MagISR_SetVector, %function
  25              	MagISR_SetVector:
  26              	.LFB5:
  27              		.file 1 "Generated_Source\\PSoC4\\MagISR.c"
   1:Generated_Source\PSoC4/MagISR.c **** /*******************************************************************************
   2:Generated_Source\PSoC4/MagISR.c **** * File Name: MagISR.c  
   3:Generated_Source\PSoC4/MagISR.c **** * Version 1.70
   4:Generated_Source\PSoC4/MagISR.c **** *
   5:Generated_Source\PSoC4/MagISR.c **** *  Description:
   6:Generated_Source\PSoC4/MagISR.c **** *   API for controlling the state of an interrupt.
   7:Generated_Source\PSoC4/MagISR.c **** *
   8:Generated_Source\PSoC4/MagISR.c **** *
   9:Generated_Source\PSoC4/MagISR.c **** *  Note:
  10:Generated_Source\PSoC4/MagISR.c **** *
  11:Generated_Source\PSoC4/MagISR.c **** ********************************************************************************
  12:Generated_Source\PSoC4/MagISR.c **** * Copyright 2008-2015, Cypress Semiconductor Corporation.  All rights reserved.
  13:Generated_Source\PSoC4/MagISR.c **** * You may use this file only in accordance with the license, terms, conditions, 
  14:Generated_Source\PSoC4/MagISR.c **** * disclaimers, and limitations in the end user license agreement accompanying 
  15:Generated_Source\PSoC4/MagISR.c **** * the software package with which this file was provided.
  16:Generated_Source\PSoC4/MagISR.c **** *******************************************************************************/
  17:Generated_Source\PSoC4/MagISR.c **** 
  18:Generated_Source\PSoC4/MagISR.c **** 
  19:Generated_Source\PSoC4/MagISR.c **** #include <cydevice_trm.h>
  20:Generated_Source\PSoC4/MagISR.c **** #include <CyLib.h>
  21:Generated_Source\PSoC4/MagISR.c **** #include <MagISR.h>
  22:Generated_Source\PSoC4/MagISR.c **** #include "cyapicallbacks.h"
  23:Generated_Source\PSoC4/MagISR.c **** 
  24:Generated_Source\PSoC4/MagISR.c **** #if !defined(MagISR__REMOVED) /* Check for removal by optimization */
  25:Generated_Source\PSoC4/MagISR.c **** 
  26:Generated_Source\PSoC4/MagISR.c **** /*******************************************************************************
  27:Generated_Source\PSoC4/MagISR.c **** *  Place your includes, defines and code here 
  28:Generated_Source\PSoC4/MagISR.c **** ********************************************************************************/
  29:Generated_Source\PSoC4/MagISR.c **** /* `#START MagISR_intc` */
  30:Generated_Source\PSoC4/MagISR.c ****     #include "main.h"
ARM GAS  C:\Users\ERICHO~1\AppData\Local\Temp\ccMMoPqP.s 			page 2


  31:Generated_Source\PSoC4/MagISR.c **** /* `#END` */
  32:Generated_Source\PSoC4/MagISR.c **** 
  33:Generated_Source\PSoC4/MagISR.c **** extern cyisraddress CyRamVectors[CYINT_IRQ_BASE + CY_NUM_INTERRUPTS];
  34:Generated_Source\PSoC4/MagISR.c **** 
  35:Generated_Source\PSoC4/MagISR.c **** /* Declared in startup, used to set unused interrupts to. */
  36:Generated_Source\PSoC4/MagISR.c **** CY_ISR_PROTO(IntDefaultHandler);
  37:Generated_Source\PSoC4/MagISR.c **** 
  38:Generated_Source\PSoC4/MagISR.c **** 
  39:Generated_Source\PSoC4/MagISR.c **** /*******************************************************************************
  40:Generated_Source\PSoC4/MagISR.c **** * Function Name: MagISR_Start
  41:Generated_Source\PSoC4/MagISR.c **** ********************************************************************************
  42:Generated_Source\PSoC4/MagISR.c **** *
  43:Generated_Source\PSoC4/MagISR.c **** * Summary:
  44:Generated_Source\PSoC4/MagISR.c **** *  Set up the interrupt and enable it. This function disables the interrupt, 
  45:Generated_Source\PSoC4/MagISR.c **** *  sets the default interrupt vector, sets the priority from the value in the
  46:Generated_Source\PSoC4/MagISR.c **** *  Design Wide Resources Interrupt Editor, then enables the interrupt to the 
  47:Generated_Source\PSoC4/MagISR.c **** *  interrupt controller.
  48:Generated_Source\PSoC4/MagISR.c **** *
  49:Generated_Source\PSoC4/MagISR.c **** * Parameters:  
  50:Generated_Source\PSoC4/MagISR.c **** *   None
  51:Generated_Source\PSoC4/MagISR.c **** *
  52:Generated_Source\PSoC4/MagISR.c **** * Return:
  53:Generated_Source\PSoC4/MagISR.c **** *   None
  54:Generated_Source\PSoC4/MagISR.c **** *
  55:Generated_Source\PSoC4/MagISR.c **** *******************************************************************************/
  56:Generated_Source\PSoC4/MagISR.c **** void MagISR_Start(void)
  57:Generated_Source\PSoC4/MagISR.c **** {
  58:Generated_Source\PSoC4/MagISR.c ****     /* For all we know the interrupt is active. */
  59:Generated_Source\PSoC4/MagISR.c ****     MagISR_Disable();
  60:Generated_Source\PSoC4/MagISR.c **** 
  61:Generated_Source\PSoC4/MagISR.c ****     /* Set the ISR to point to the MagISR Interrupt. */
  62:Generated_Source\PSoC4/MagISR.c ****     MagISR_SetVector(&MagISR_Interrupt);
  63:Generated_Source\PSoC4/MagISR.c **** 
  64:Generated_Source\PSoC4/MagISR.c ****     /* Set the priority. */
  65:Generated_Source\PSoC4/MagISR.c ****     MagISR_SetPriority((uint8)MagISR_INTC_PRIOR_NUMBER);
  66:Generated_Source\PSoC4/MagISR.c **** 
  67:Generated_Source\PSoC4/MagISR.c ****     /* Enable it. */
  68:Generated_Source\PSoC4/MagISR.c ****     MagISR_Enable();
  69:Generated_Source\PSoC4/MagISR.c **** }
  70:Generated_Source\PSoC4/MagISR.c **** 
  71:Generated_Source\PSoC4/MagISR.c **** 
  72:Generated_Source\PSoC4/MagISR.c **** /*******************************************************************************
  73:Generated_Source\PSoC4/MagISR.c **** * Function Name: MagISR_StartEx
  74:Generated_Source\PSoC4/MagISR.c **** ********************************************************************************
  75:Generated_Source\PSoC4/MagISR.c **** *
  76:Generated_Source\PSoC4/MagISR.c **** * Summary:
  77:Generated_Source\PSoC4/MagISR.c **** *  Sets up the interrupt and enables it. This function disables the interrupt,
  78:Generated_Source\PSoC4/MagISR.c **** *  sets the interrupt vector based on the address passed in, sets the priority 
  79:Generated_Source\PSoC4/MagISR.c **** *  from the value in the Design Wide Resources Interrupt Editor, then enables 
  80:Generated_Source\PSoC4/MagISR.c **** *  the interrupt to the interrupt controller.
  81:Generated_Source\PSoC4/MagISR.c **** *  
  82:Generated_Source\PSoC4/MagISR.c **** *  When defining ISR functions, the CY_ISR and CY_ISR_PROTO macros should be 
  83:Generated_Source\PSoC4/MagISR.c **** *  used to provide consistent definition across compilers:
  84:Generated_Source\PSoC4/MagISR.c **** *  
  85:Generated_Source\PSoC4/MagISR.c **** *  Function definition example:
  86:Generated_Source\PSoC4/MagISR.c **** *   CY_ISR(MyISR)
  87:Generated_Source\PSoC4/MagISR.c **** *   {
ARM GAS  C:\Users\ERICHO~1\AppData\Local\Temp\ccMMoPqP.s 			page 3


  88:Generated_Source\PSoC4/MagISR.c **** *   }
  89:Generated_Source\PSoC4/MagISR.c **** *   Function prototype example:
  90:Generated_Source\PSoC4/MagISR.c **** *   CY_ISR_PROTO(MyISR);
  91:Generated_Source\PSoC4/MagISR.c **** *
  92:Generated_Source\PSoC4/MagISR.c **** * Parameters:  
  93:Generated_Source\PSoC4/MagISR.c **** *   address: Address of the ISR to set in the interrupt vector table.
  94:Generated_Source\PSoC4/MagISR.c **** *
  95:Generated_Source\PSoC4/MagISR.c **** * Return:
  96:Generated_Source\PSoC4/MagISR.c **** *   None
  97:Generated_Source\PSoC4/MagISR.c **** *
  98:Generated_Source\PSoC4/MagISR.c **** *******************************************************************************/
  99:Generated_Source\PSoC4/MagISR.c **** void MagISR_StartEx(cyisraddress address)
 100:Generated_Source\PSoC4/MagISR.c **** {
 101:Generated_Source\PSoC4/MagISR.c ****     /* For all we know the interrupt is active. */
 102:Generated_Source\PSoC4/MagISR.c ****     MagISR_Disable();
 103:Generated_Source\PSoC4/MagISR.c **** 
 104:Generated_Source\PSoC4/MagISR.c ****     /* Set the ISR to point to the MagISR Interrupt. */
 105:Generated_Source\PSoC4/MagISR.c ****     MagISR_SetVector(address);
 106:Generated_Source\PSoC4/MagISR.c **** 
 107:Generated_Source\PSoC4/MagISR.c ****     /* Set the priority. */
 108:Generated_Source\PSoC4/MagISR.c ****     MagISR_SetPriority((uint8)MagISR_INTC_PRIOR_NUMBER);
 109:Generated_Source\PSoC4/MagISR.c **** 
 110:Generated_Source\PSoC4/MagISR.c ****     /* Enable it. */
 111:Generated_Source\PSoC4/MagISR.c ****     MagISR_Enable();
 112:Generated_Source\PSoC4/MagISR.c **** }
 113:Generated_Source\PSoC4/MagISR.c **** 
 114:Generated_Source\PSoC4/MagISR.c **** 
 115:Generated_Source\PSoC4/MagISR.c **** /*******************************************************************************
 116:Generated_Source\PSoC4/MagISR.c **** * Function Name: MagISR_Stop
 117:Generated_Source\PSoC4/MagISR.c **** ********************************************************************************
 118:Generated_Source\PSoC4/MagISR.c **** *
 119:Generated_Source\PSoC4/MagISR.c **** * Summary:
 120:Generated_Source\PSoC4/MagISR.c **** *   Disables and removes the interrupt.
 121:Generated_Source\PSoC4/MagISR.c **** *
 122:Generated_Source\PSoC4/MagISR.c **** * Parameters:  
 123:Generated_Source\PSoC4/MagISR.c **** *   None
 124:Generated_Source\PSoC4/MagISR.c **** *
 125:Generated_Source\PSoC4/MagISR.c **** * Return:
 126:Generated_Source\PSoC4/MagISR.c **** *   None
 127:Generated_Source\PSoC4/MagISR.c **** *
 128:Generated_Source\PSoC4/MagISR.c **** *******************************************************************************/
 129:Generated_Source\PSoC4/MagISR.c **** void MagISR_Stop(void)
 130:Generated_Source\PSoC4/MagISR.c **** {
 131:Generated_Source\PSoC4/MagISR.c ****     /* Disable this interrupt. */
 132:Generated_Source\PSoC4/MagISR.c ****     MagISR_Disable();
 133:Generated_Source\PSoC4/MagISR.c **** 
 134:Generated_Source\PSoC4/MagISR.c ****     /* Set the ISR to point to the passive one. */
 135:Generated_Source\PSoC4/MagISR.c ****     MagISR_SetVector(&IntDefaultHandler);
 136:Generated_Source\PSoC4/MagISR.c **** }
 137:Generated_Source\PSoC4/MagISR.c **** 
 138:Generated_Source\PSoC4/MagISR.c **** 
 139:Generated_Source\PSoC4/MagISR.c **** /*******************************************************************************
 140:Generated_Source\PSoC4/MagISR.c **** * Function Name: MagISR_Interrupt
 141:Generated_Source\PSoC4/MagISR.c **** ********************************************************************************
 142:Generated_Source\PSoC4/MagISR.c **** *
 143:Generated_Source\PSoC4/MagISR.c **** * Summary:
 144:Generated_Source\PSoC4/MagISR.c **** *   The default Interrupt Service Routine for MagISR.
ARM GAS  C:\Users\ERICHO~1\AppData\Local\Temp\ccMMoPqP.s 			page 4


 145:Generated_Source\PSoC4/MagISR.c **** *
 146:Generated_Source\PSoC4/MagISR.c **** *   Add custom code between the START and END comments to keep the next version
 147:Generated_Source\PSoC4/MagISR.c **** *   of this file from over-writing your code.
 148:Generated_Source\PSoC4/MagISR.c **** *
 149:Generated_Source\PSoC4/MagISR.c **** *   Note You may use either the default ISR by using this API, or you may define
 150:Generated_Source\PSoC4/MagISR.c **** *   your own separate ISR through ISR_StartEx().
 151:Generated_Source\PSoC4/MagISR.c **** *
 152:Generated_Source\PSoC4/MagISR.c **** * Parameters:  
 153:Generated_Source\PSoC4/MagISR.c **** *   None
 154:Generated_Source\PSoC4/MagISR.c **** *
 155:Generated_Source\PSoC4/MagISR.c **** * Return:
 156:Generated_Source\PSoC4/MagISR.c **** *   None
 157:Generated_Source\PSoC4/MagISR.c **** *
 158:Generated_Source\PSoC4/MagISR.c **** *******************************************************************************/
 159:Generated_Source\PSoC4/MagISR.c **** CY_ISR(MagISR_Interrupt)
 160:Generated_Source\PSoC4/MagISR.c **** {
 161:Generated_Source\PSoC4/MagISR.c ****     #ifdef MagISR_INTERRUPT_INTERRUPT_CALLBACK
 162:Generated_Source\PSoC4/MagISR.c ****         MagISR_Interrupt_InterruptCallback();
 163:Generated_Source\PSoC4/MagISR.c ****     #endif /* MagISR_INTERRUPT_INTERRUPT_CALLBACK */ 
 164:Generated_Source\PSoC4/MagISR.c **** 
 165:Generated_Source\PSoC4/MagISR.c ****     /*  Place your Interrupt code here. */
 166:Generated_Source\PSoC4/MagISR.c ****     /* `#START MagISR_Interrupt` */
 167:Generated_Source\PSoC4/MagISR.c ****     if (num_tasks<5) { enqueue_task(MAG_READ,0x02); }
 168:Generated_Source\PSoC4/MagISR.c ****     
 169:Generated_Source\PSoC4/MagISR.c ****     MagISR_ClearPending();
 170:Generated_Source\PSoC4/MagISR.c ****     
 171:Generated_Source\PSoC4/MagISR.c ****     /* `#END` */
 172:Generated_Source\PSoC4/MagISR.c **** }
 173:Generated_Source\PSoC4/MagISR.c **** 
 174:Generated_Source\PSoC4/MagISR.c **** 
 175:Generated_Source\PSoC4/MagISR.c **** /*******************************************************************************
 176:Generated_Source\PSoC4/MagISR.c **** * Function Name: MagISR_SetVector
 177:Generated_Source\PSoC4/MagISR.c **** ********************************************************************************
 178:Generated_Source\PSoC4/MagISR.c **** *
 179:Generated_Source\PSoC4/MagISR.c **** * Summary:
 180:Generated_Source\PSoC4/MagISR.c **** *   Change the ISR vector for the Interrupt. Note calling MagISR_Start
 181:Generated_Source\PSoC4/MagISR.c **** *   will override any effect this method would have had. To set the vector 
 182:Generated_Source\PSoC4/MagISR.c **** *   before the component has been started use MagISR_StartEx instead.
 183:Generated_Source\PSoC4/MagISR.c **** * 
 184:Generated_Source\PSoC4/MagISR.c **** *   When defining ISR functions, the CY_ISR and CY_ISR_PROTO macros should be 
 185:Generated_Source\PSoC4/MagISR.c **** *   used to provide consistent definition across compilers:
 186:Generated_Source\PSoC4/MagISR.c **** *
 187:Generated_Source\PSoC4/MagISR.c **** *   Function definition example:
 188:Generated_Source\PSoC4/MagISR.c **** *   CY_ISR(MyISR)
 189:Generated_Source\PSoC4/MagISR.c **** *   {
 190:Generated_Source\PSoC4/MagISR.c **** *   }
 191:Generated_Source\PSoC4/MagISR.c **** *
 192:Generated_Source\PSoC4/MagISR.c **** *   Function prototype example:
 193:Generated_Source\PSoC4/MagISR.c **** *     CY_ISR_PROTO(MyISR);
 194:Generated_Source\PSoC4/MagISR.c **** *
 195:Generated_Source\PSoC4/MagISR.c **** * Parameters:
 196:Generated_Source\PSoC4/MagISR.c **** *   address: Address of the ISR to set in the interrupt vector table.
 197:Generated_Source\PSoC4/MagISR.c **** *
 198:Generated_Source\PSoC4/MagISR.c **** * Return:
 199:Generated_Source\PSoC4/MagISR.c **** *   None
 200:Generated_Source\PSoC4/MagISR.c **** *
 201:Generated_Source\PSoC4/MagISR.c **** *******************************************************************************/
ARM GAS  C:\Users\ERICHO~1\AppData\Local\Temp\ccMMoPqP.s 			page 5


 202:Generated_Source\PSoC4/MagISR.c **** void MagISR_SetVector(cyisraddress address)
 203:Generated_Source\PSoC4/MagISR.c **** {
  28              		.loc 1 203 0
  29              		.cfi_startproc
  30              		@ args = 0, pretend = 0, frame = 0
  31              		@ frame_needed = 0, uses_anonymous_args = 0
  32              		@ link register save eliminated.
  33              	.LVL0:
 204:Generated_Source\PSoC4/MagISR.c ****     CyRamVectors[CYINT_IRQ_BASE + MagISR__INTC_NUMBER] = address;
  34              		.loc 1 204 0
  35 0000 014B     		ldr	r3, .L2
  36 0002 9864     		str	r0, [r3, #72]
 205:Generated_Source\PSoC4/MagISR.c **** }
  37              		.loc 1 205 0
  38              		@ sp needed
  39 0004 7047     		bx	lr
  40              	.L3:
  41 0006 C046     		.align	2
  42              	.L2:
  43 0008 00000000 		.word	CyRamVectors
  44              		.cfi_endproc
  45              	.LFE5:
  46              		.size	MagISR_SetVector, .-MagISR_SetVector
  47              		.section	.text.MagISR_GetVector,"ax",%progbits
  48              		.align	2
  49              		.global	MagISR_GetVector
  50              		.code	16
  51              		.thumb_func
  52              		.type	MagISR_GetVector, %function
  53              	MagISR_GetVector:
  54              	.LFB6:
 206:Generated_Source\PSoC4/MagISR.c **** 
 207:Generated_Source\PSoC4/MagISR.c **** 
 208:Generated_Source\PSoC4/MagISR.c **** /*******************************************************************************
 209:Generated_Source\PSoC4/MagISR.c **** * Function Name: MagISR_GetVector
 210:Generated_Source\PSoC4/MagISR.c **** ********************************************************************************
 211:Generated_Source\PSoC4/MagISR.c **** *
 212:Generated_Source\PSoC4/MagISR.c **** * Summary:
 213:Generated_Source\PSoC4/MagISR.c **** *   Gets the "address" of the current ISR vector for the Interrupt.
 214:Generated_Source\PSoC4/MagISR.c **** *
 215:Generated_Source\PSoC4/MagISR.c **** * Parameters:
 216:Generated_Source\PSoC4/MagISR.c **** *   None
 217:Generated_Source\PSoC4/MagISR.c **** *
 218:Generated_Source\PSoC4/MagISR.c **** * Return:
 219:Generated_Source\PSoC4/MagISR.c **** *   Address of the ISR in the interrupt vector table.
 220:Generated_Source\PSoC4/MagISR.c **** *
 221:Generated_Source\PSoC4/MagISR.c **** *******************************************************************************/
 222:Generated_Source\PSoC4/MagISR.c **** cyisraddress MagISR_GetVector(void)
 223:Generated_Source\PSoC4/MagISR.c **** {
  55              		.loc 1 223 0
  56              		.cfi_startproc
  57              		@ args = 0, pretend = 0, frame = 0
  58              		@ frame_needed = 0, uses_anonymous_args = 0
  59              		@ link register save eliminated.
 224:Generated_Source\PSoC4/MagISR.c ****     return CyRamVectors[CYINT_IRQ_BASE + MagISR__INTC_NUMBER];
  60              		.loc 1 224 0
  61 0000 014B     		ldr	r3, .L5
ARM GAS  C:\Users\ERICHO~1\AppData\Local\Temp\ccMMoPqP.s 			page 6


  62 0002 986C     		ldr	r0, [r3, #72]
 225:Generated_Source\PSoC4/MagISR.c **** }
  63              		.loc 1 225 0
  64              		@ sp needed
  65 0004 7047     		bx	lr
  66              	.L6:
  67 0006 C046     		.align	2
  68              	.L5:
  69 0008 00000000 		.word	CyRamVectors
  70              		.cfi_endproc
  71              	.LFE6:
  72              		.size	MagISR_GetVector, .-MagISR_GetVector
  73              		.section	.text.MagISR_SetPriority,"ax",%progbits
  74              		.align	2
  75              		.global	MagISR_SetPriority
  76              		.code	16
  77              		.thumb_func
  78              		.type	MagISR_SetPriority, %function
  79              	MagISR_SetPriority:
  80              	.LFB7:
 226:Generated_Source\PSoC4/MagISR.c **** 
 227:Generated_Source\PSoC4/MagISR.c **** 
 228:Generated_Source\PSoC4/MagISR.c **** /*******************************************************************************
 229:Generated_Source\PSoC4/MagISR.c **** * Function Name: MagISR_SetPriority
 230:Generated_Source\PSoC4/MagISR.c **** ********************************************************************************
 231:Generated_Source\PSoC4/MagISR.c **** *
 232:Generated_Source\PSoC4/MagISR.c **** * Summary:
 233:Generated_Source\PSoC4/MagISR.c **** *   Sets the Priority of the Interrupt. 
 234:Generated_Source\PSoC4/MagISR.c **** *
 235:Generated_Source\PSoC4/MagISR.c **** *   Note calling MagISR_Start or MagISR_StartEx will 
 236:Generated_Source\PSoC4/MagISR.c **** *   override any effect this API would have had. This API should only be called
 237:Generated_Source\PSoC4/MagISR.c **** *   after MagISR_Start or MagISR_StartEx has been called. 
 238:Generated_Source\PSoC4/MagISR.c **** *   To set the initial priority for the component, use the Design-Wide Resources
 239:Generated_Source\PSoC4/MagISR.c **** *   Interrupt Editor.
 240:Generated_Source\PSoC4/MagISR.c **** *
 241:Generated_Source\PSoC4/MagISR.c **** *   Note This API has no effect on Non-maskable interrupt NMI).
 242:Generated_Source\PSoC4/MagISR.c **** *
 243:Generated_Source\PSoC4/MagISR.c **** * Parameters:
 244:Generated_Source\PSoC4/MagISR.c **** *   priority: Priority of the interrupt, 0 being the highest priority
 245:Generated_Source\PSoC4/MagISR.c **** *             PSoC 3 and PSoC 5LP: Priority is from 0 to 7.
 246:Generated_Source\PSoC4/MagISR.c **** *             PSoC 4: Priority is from 0 to 3.
 247:Generated_Source\PSoC4/MagISR.c **** *
 248:Generated_Source\PSoC4/MagISR.c **** * Return:
 249:Generated_Source\PSoC4/MagISR.c **** *   None
 250:Generated_Source\PSoC4/MagISR.c **** *
 251:Generated_Source\PSoC4/MagISR.c **** *******************************************************************************/
 252:Generated_Source\PSoC4/MagISR.c **** void MagISR_SetPriority(uint8 priority)
 253:Generated_Source\PSoC4/MagISR.c **** {
  81              		.loc 1 253 0
  82              		.cfi_startproc
  83              		@ args = 0, pretend = 0, frame = 0
  84              		@ frame_needed = 0, uses_anonymous_args = 0
  85              	.LVL1:
  86 0000 10B5     		push	{r4, lr}
  87              		.cfi_def_cfa_offset 8
  88              		.cfi_offset 4, -8
  89              		.cfi_offset 14, -4
ARM GAS  C:\Users\ERICHO~1\AppData\Local\Temp\ccMMoPqP.s 			page 7


  90 0002 0400     		movs	r4, r0
  91              	.LVL2:
 254:Generated_Source\PSoC4/MagISR.c **** 	uint8 interruptState;
 255:Generated_Source\PSoC4/MagISR.c ****     uint32 priorityOffset = ((MagISR__INTC_NUMBER % 4u) * 8u) + 6u;
 256:Generated_Source\PSoC4/MagISR.c ****     
 257:Generated_Source\PSoC4/MagISR.c **** 	interruptState = CyEnterCriticalSection();
  92              		.loc 1 257 0
  93 0004 FFF7FEFF 		bl	CyEnterCriticalSection
  94              	.LVL3:
 258:Generated_Source\PSoC4/MagISR.c ****     *MagISR_INTC_PRIOR = (*MagISR_INTC_PRIOR & (uint32)(~MagISR__INTC_PRIOR_MASK)) |
  95              		.loc 1 258 0
  96 0008 044A     		ldr	r2, .L8
  97 000a 1168     		ldr	r1, [r2]
  98 000c 044B     		ldr	r3, .L8+4
  99 000e 0B40     		ands	r3, r1
 259:Generated_Source\PSoC4/MagISR.c ****                                     ((uint32)priority << priorityOffset);
 100              		.loc 1 259 0
 101 0010 A405     		lsls	r4, r4, #22
 258:Generated_Source\PSoC4/MagISR.c ****     *MagISR_INTC_PRIOR = (*MagISR_INTC_PRIOR & (uint32)(~MagISR__INTC_PRIOR_MASK)) |
 102              		.loc 1 258 0
 103 0012 1C43     		orrs	r4, r3
 104 0014 1460     		str	r4, [r2]
 260:Generated_Source\PSoC4/MagISR.c **** 	CyExitCriticalSection(interruptState);
 105              		.loc 1 260 0
 106 0016 FFF7FEFF 		bl	CyExitCriticalSection
 107              	.LVL4:
 261:Generated_Source\PSoC4/MagISR.c **** }
 108              		.loc 1 261 0
 109              		@ sp needed
 110 001a 10BD     		pop	{r4, pc}
 111              	.L9:
 112              		.align	2
 113              	.L8:
 114 001c 00E400E0 		.word	-536812544
 115 0020 FFFF3FFF 		.word	-12582913
 116              		.cfi_endproc
 117              	.LFE7:
 118              		.size	MagISR_SetPriority, .-MagISR_SetPriority
 119              		.section	.text.MagISR_GetPriority,"ax",%progbits
 120              		.align	2
 121              		.global	MagISR_GetPriority
 122              		.code	16
 123              		.thumb_func
 124              		.type	MagISR_GetPriority, %function
 125              	MagISR_GetPriority:
 126              	.LFB8:
 262:Generated_Source\PSoC4/MagISR.c **** 
 263:Generated_Source\PSoC4/MagISR.c **** 
 264:Generated_Source\PSoC4/MagISR.c **** /*******************************************************************************
 265:Generated_Source\PSoC4/MagISR.c **** * Function Name: MagISR_GetPriority
 266:Generated_Source\PSoC4/MagISR.c **** ********************************************************************************
 267:Generated_Source\PSoC4/MagISR.c **** *
 268:Generated_Source\PSoC4/MagISR.c **** * Summary:
 269:Generated_Source\PSoC4/MagISR.c **** *   Gets the Priority of the Interrupt.
 270:Generated_Source\PSoC4/MagISR.c **** *
 271:Generated_Source\PSoC4/MagISR.c **** * Parameters:
 272:Generated_Source\PSoC4/MagISR.c **** *   None
ARM GAS  C:\Users\ERICHO~1\AppData\Local\Temp\ccMMoPqP.s 			page 8


 273:Generated_Source\PSoC4/MagISR.c **** *
 274:Generated_Source\PSoC4/MagISR.c **** * Return:
 275:Generated_Source\PSoC4/MagISR.c **** *   Priority of the interrupt, 0 being the highest priority
 276:Generated_Source\PSoC4/MagISR.c **** *    PSoC 3 and PSoC 5LP: Priority is from 0 to 7.
 277:Generated_Source\PSoC4/MagISR.c **** *    PSoC 4: Priority is from 0 to 3.
 278:Generated_Source\PSoC4/MagISR.c **** *
 279:Generated_Source\PSoC4/MagISR.c **** *******************************************************************************/
 280:Generated_Source\PSoC4/MagISR.c **** uint8 MagISR_GetPriority(void)
 281:Generated_Source\PSoC4/MagISR.c **** {
 127              		.loc 1 281 0
 128              		.cfi_startproc
 129              		@ args = 0, pretend = 0, frame = 0
 130              		@ frame_needed = 0, uses_anonymous_args = 0
 131              		@ link register save eliminated.
 132              	.LVL5:
 282:Generated_Source\PSoC4/MagISR.c ****     uint32 priority;
 283:Generated_Source\PSoC4/MagISR.c **** 	uint32 priorityOffset = ((MagISR__INTC_NUMBER % 4u) * 8u) + 6u;
 284:Generated_Source\PSoC4/MagISR.c **** 
 285:Generated_Source\PSoC4/MagISR.c ****     priority = (*MagISR_INTC_PRIOR & MagISR__INTC_PRIOR_MASK) >> priorityOffset;
 133              		.loc 1 285 0
 134 0000 024B     		ldr	r3, .L11
 135 0002 1868     		ldr	r0, [r3]
 136 0004 800D     		lsrs	r0, r0, #22
 137              	.LVL6:
 286:Generated_Source\PSoC4/MagISR.c **** 
 287:Generated_Source\PSoC4/MagISR.c ****     return (uint8)priority;
 138              		.loc 1 287 0
 139 0006 0323     		movs	r3, #3
 140 0008 1840     		ands	r0, r3
 141              	.LVL7:
 288:Generated_Source\PSoC4/MagISR.c **** }
 142              		.loc 1 288 0
 143              		@ sp needed
 144 000a 7047     		bx	lr
 145              	.L12:
 146              		.align	2
 147              	.L11:
 148 000c 00E400E0 		.word	-536812544
 149              		.cfi_endproc
 150              	.LFE8:
 151              		.size	MagISR_GetPriority, .-MagISR_GetPriority
 152              		.section	.text.MagISR_Enable,"ax",%progbits
 153              		.align	2
 154              		.global	MagISR_Enable
 155              		.code	16
 156              		.thumb_func
 157              		.type	MagISR_Enable, %function
 158              	MagISR_Enable:
 159              	.LFB9:
 289:Generated_Source\PSoC4/MagISR.c **** 
 290:Generated_Source\PSoC4/MagISR.c **** 
 291:Generated_Source\PSoC4/MagISR.c **** /*******************************************************************************
 292:Generated_Source\PSoC4/MagISR.c **** * Function Name: MagISR_Enable
 293:Generated_Source\PSoC4/MagISR.c **** ********************************************************************************
 294:Generated_Source\PSoC4/MagISR.c **** *
 295:Generated_Source\PSoC4/MagISR.c **** * Summary:
 296:Generated_Source\PSoC4/MagISR.c **** *   Enables the interrupt to the interrupt controller. Do not call this function
ARM GAS  C:\Users\ERICHO~1\AppData\Local\Temp\ccMMoPqP.s 			page 9


 297:Generated_Source\PSoC4/MagISR.c **** *   unless ISR_Start() has been called or the functionality of the ISR_Start() 
 298:Generated_Source\PSoC4/MagISR.c **** *   function, which sets the vector and the priority, has been called.
 299:Generated_Source\PSoC4/MagISR.c **** *
 300:Generated_Source\PSoC4/MagISR.c **** * Parameters:
 301:Generated_Source\PSoC4/MagISR.c **** *   None
 302:Generated_Source\PSoC4/MagISR.c **** *
 303:Generated_Source\PSoC4/MagISR.c **** * Return:
 304:Generated_Source\PSoC4/MagISR.c **** *   None
 305:Generated_Source\PSoC4/MagISR.c **** *
 306:Generated_Source\PSoC4/MagISR.c **** *******************************************************************************/
 307:Generated_Source\PSoC4/MagISR.c **** void MagISR_Enable(void)
 308:Generated_Source\PSoC4/MagISR.c **** {
 160              		.loc 1 308 0
 161              		.cfi_startproc
 162              		@ args = 0, pretend = 0, frame = 0
 163              		@ frame_needed = 0, uses_anonymous_args = 0
 164              		@ link register save eliminated.
 309:Generated_Source\PSoC4/MagISR.c ****     /* Enable the general interrupt. */
 310:Generated_Source\PSoC4/MagISR.c ****     *MagISR_INTC_SET_EN = MagISR__INTC_MASK;
 165              		.loc 1 310 0
 166 0000 0422     		movs	r2, #4
 167 0002 014B     		ldr	r3, .L14
 168 0004 1A60     		str	r2, [r3]
 311:Generated_Source\PSoC4/MagISR.c **** }
 169              		.loc 1 311 0
 170              		@ sp needed
 171 0006 7047     		bx	lr
 172              	.L15:
 173              		.align	2
 174              	.L14:
 175 0008 00E100E0 		.word	-536813312
 176              		.cfi_endproc
 177              	.LFE9:
 178              		.size	MagISR_Enable, .-MagISR_Enable
 179              		.section	.text.MagISR_GetState,"ax",%progbits
 180              		.align	2
 181              		.global	MagISR_GetState
 182              		.code	16
 183              		.thumb_func
 184              		.type	MagISR_GetState, %function
 185              	MagISR_GetState:
 186              	.LFB10:
 312:Generated_Source\PSoC4/MagISR.c **** 
 313:Generated_Source\PSoC4/MagISR.c **** 
 314:Generated_Source\PSoC4/MagISR.c **** /*******************************************************************************
 315:Generated_Source\PSoC4/MagISR.c **** * Function Name: MagISR_GetState
 316:Generated_Source\PSoC4/MagISR.c **** ********************************************************************************
 317:Generated_Source\PSoC4/MagISR.c **** *
 318:Generated_Source\PSoC4/MagISR.c **** * Summary:
 319:Generated_Source\PSoC4/MagISR.c **** *   Gets the state (enabled, disabled) of the Interrupt.
 320:Generated_Source\PSoC4/MagISR.c **** *
 321:Generated_Source\PSoC4/MagISR.c **** * Parameters:
 322:Generated_Source\PSoC4/MagISR.c **** *   None
 323:Generated_Source\PSoC4/MagISR.c **** *
 324:Generated_Source\PSoC4/MagISR.c **** * Return:
 325:Generated_Source\PSoC4/MagISR.c **** *   1 if enabled, 0 if disabled.
 326:Generated_Source\PSoC4/MagISR.c **** *
ARM GAS  C:\Users\ERICHO~1\AppData\Local\Temp\ccMMoPqP.s 			page 10


 327:Generated_Source\PSoC4/MagISR.c **** *******************************************************************************/
 328:Generated_Source\PSoC4/MagISR.c **** uint8 MagISR_GetState(void)
 329:Generated_Source\PSoC4/MagISR.c **** {
 187              		.loc 1 329 0
 188              		.cfi_startproc
 189              		@ args = 0, pretend = 0, frame = 0
 190              		@ frame_needed = 0, uses_anonymous_args = 0
 191              		@ link register save eliminated.
 330:Generated_Source\PSoC4/MagISR.c ****     /* Get the state of the general interrupt. */
 331:Generated_Source\PSoC4/MagISR.c ****     return ((*MagISR_INTC_SET_EN & (uint32)MagISR__INTC_MASK) != 0u) ? 1u:0u;
 192              		.loc 1 331 0
 193 0000 034B     		ldr	r3, .L19
 194 0002 1B68     		ldr	r3, [r3]
 195 0004 5B07     		lsls	r3, r3, #29
 196 0006 01D5     		bpl	.L18
 197 0008 0120     		movs	r0, #1
 198 000a 00E0     		b	.L17
 199              	.L18:
 200 000c 0020     		movs	r0, #0
 201              	.L17:
 332:Generated_Source\PSoC4/MagISR.c **** }
 202              		.loc 1 332 0 discriminator 4
 203              		@ sp needed
 204 000e 7047     		bx	lr
 205              	.L20:
 206              		.align	2
 207              	.L19:
 208 0010 00E100E0 		.word	-536813312
 209              		.cfi_endproc
 210              	.LFE10:
 211              		.size	MagISR_GetState, .-MagISR_GetState
 212              		.section	.text.MagISR_Disable,"ax",%progbits
 213              		.align	2
 214              		.global	MagISR_Disable
 215              		.code	16
 216              		.thumb_func
 217              		.type	MagISR_Disable, %function
 218              	MagISR_Disable:
 219              	.LFB11:
 333:Generated_Source\PSoC4/MagISR.c **** 
 334:Generated_Source\PSoC4/MagISR.c **** 
 335:Generated_Source\PSoC4/MagISR.c **** /*******************************************************************************
 336:Generated_Source\PSoC4/MagISR.c **** * Function Name: MagISR_Disable
 337:Generated_Source\PSoC4/MagISR.c **** ********************************************************************************
 338:Generated_Source\PSoC4/MagISR.c **** *
 339:Generated_Source\PSoC4/MagISR.c **** * Summary:
 340:Generated_Source\PSoC4/MagISR.c **** *   Disables the Interrupt in the interrupt controller.
 341:Generated_Source\PSoC4/MagISR.c **** *
 342:Generated_Source\PSoC4/MagISR.c **** * Parameters:
 343:Generated_Source\PSoC4/MagISR.c **** *   None
 344:Generated_Source\PSoC4/MagISR.c **** *
 345:Generated_Source\PSoC4/MagISR.c **** * Return:
 346:Generated_Source\PSoC4/MagISR.c **** *   None
 347:Generated_Source\PSoC4/MagISR.c **** *
 348:Generated_Source\PSoC4/MagISR.c **** *******************************************************************************/
 349:Generated_Source\PSoC4/MagISR.c **** void MagISR_Disable(void)
 350:Generated_Source\PSoC4/MagISR.c **** {
ARM GAS  C:\Users\ERICHO~1\AppData\Local\Temp\ccMMoPqP.s 			page 11


 220              		.loc 1 350 0
 221              		.cfi_startproc
 222              		@ args = 0, pretend = 0, frame = 0
 223              		@ frame_needed = 0, uses_anonymous_args = 0
 224              		@ link register save eliminated.
 351:Generated_Source\PSoC4/MagISR.c ****     /* Disable the general interrupt. */
 352:Generated_Source\PSoC4/MagISR.c ****     *MagISR_INTC_CLR_EN = MagISR__INTC_MASK;
 225              		.loc 1 352 0
 226 0000 0422     		movs	r2, #4
 227 0002 014B     		ldr	r3, .L22
 228 0004 1A60     		str	r2, [r3]
 353:Generated_Source\PSoC4/MagISR.c **** }
 229              		.loc 1 353 0
 230              		@ sp needed
 231 0006 7047     		bx	lr
 232              	.L23:
 233              		.align	2
 234              	.L22:
 235 0008 80E100E0 		.word	-536813184
 236              		.cfi_endproc
 237              	.LFE11:
 238              		.size	MagISR_Disable, .-MagISR_Disable
 239              		.section	.text.MagISR_Start,"ax",%progbits
 240              		.align	2
 241              		.global	MagISR_Start
 242              		.code	16
 243              		.thumb_func
 244              		.type	MagISR_Start, %function
 245              	MagISR_Start:
 246              	.LFB1:
  57:Generated_Source\PSoC4/MagISR.c ****     /* For all we know the interrupt is active. */
 247              		.loc 1 57 0
 248              		.cfi_startproc
 249              		@ args = 0, pretend = 0, frame = 0
 250              		@ frame_needed = 0, uses_anonymous_args = 0
 251 0000 10B5     		push	{r4, lr}
 252              		.cfi_def_cfa_offset 8
 253              		.cfi_offset 4, -8
 254              		.cfi_offset 14, -4
  59:Generated_Source\PSoC4/MagISR.c **** 
 255              		.loc 1 59 0
 256 0002 FFF7FEFF 		bl	MagISR_Disable
 257              	.LVL8:
  62:Generated_Source\PSoC4/MagISR.c **** 
 258              		.loc 1 62 0
 259 0006 0448     		ldr	r0, .L25
 260 0008 FFF7FEFF 		bl	MagISR_SetVector
 261              	.LVL9:
  65:Generated_Source\PSoC4/MagISR.c **** 
 262              		.loc 1 65 0
 263 000c 0320     		movs	r0, #3
 264 000e FFF7FEFF 		bl	MagISR_SetPriority
 265              	.LVL10:
  68:Generated_Source\PSoC4/MagISR.c **** }
 266              		.loc 1 68 0
 267 0012 FFF7FEFF 		bl	MagISR_Enable
 268              	.LVL11:
ARM GAS  C:\Users\ERICHO~1\AppData\Local\Temp\ccMMoPqP.s 			page 12


  69:Generated_Source\PSoC4/MagISR.c **** 
 269              		.loc 1 69 0
 270              		@ sp needed
 271 0016 10BD     		pop	{r4, pc}
 272              	.L26:
 273              		.align	2
 274              	.L25:
 275 0018 00000000 		.word	MagISR_Interrupt
 276              		.cfi_endproc
 277              	.LFE1:
 278              		.size	MagISR_Start, .-MagISR_Start
 279              		.section	.text.MagISR_StartEx,"ax",%progbits
 280              		.align	2
 281              		.global	MagISR_StartEx
 282              		.code	16
 283              		.thumb_func
 284              		.type	MagISR_StartEx, %function
 285              	MagISR_StartEx:
 286              	.LFB2:
 100:Generated_Source\PSoC4/MagISR.c ****     /* For all we know the interrupt is active. */
 287              		.loc 1 100 0
 288              		.cfi_startproc
 289              		@ args = 0, pretend = 0, frame = 0
 290              		@ frame_needed = 0, uses_anonymous_args = 0
 291              	.LVL12:
 292 0000 10B5     		push	{r4, lr}
 293              		.cfi_def_cfa_offset 8
 294              		.cfi_offset 4, -8
 295              		.cfi_offset 14, -4
 296 0002 0400     		movs	r4, r0
 102:Generated_Source\PSoC4/MagISR.c **** 
 297              		.loc 1 102 0
 298 0004 FFF7FEFF 		bl	MagISR_Disable
 299              	.LVL13:
 105:Generated_Source\PSoC4/MagISR.c **** 
 300              		.loc 1 105 0
 301 0008 2000     		movs	r0, r4
 302 000a FFF7FEFF 		bl	MagISR_SetVector
 303              	.LVL14:
 108:Generated_Source\PSoC4/MagISR.c **** 
 304              		.loc 1 108 0
 305 000e 0320     		movs	r0, #3
 306 0010 FFF7FEFF 		bl	MagISR_SetPriority
 307              	.LVL15:
 111:Generated_Source\PSoC4/MagISR.c **** }
 308              		.loc 1 111 0
 309 0014 FFF7FEFF 		bl	MagISR_Enable
 310              	.LVL16:
 112:Generated_Source\PSoC4/MagISR.c **** 
 311              		.loc 1 112 0
 312              		@ sp needed
 313              	.LVL17:
 314 0018 10BD     		pop	{r4, pc}
 315              		.cfi_endproc
 316              	.LFE2:
 317              		.size	MagISR_StartEx, .-MagISR_StartEx
 318 001a C046     		.section	.text.MagISR_Stop,"ax",%progbits
ARM GAS  C:\Users\ERICHO~1\AppData\Local\Temp\ccMMoPqP.s 			page 13


 319              		.align	2
 320              		.global	MagISR_Stop
 321              		.code	16
 322              		.thumb_func
 323              		.type	MagISR_Stop, %function
 324              	MagISR_Stop:
 325              	.LFB3:
 130:Generated_Source\PSoC4/MagISR.c ****     /* Disable this interrupt. */
 326              		.loc 1 130 0
 327              		.cfi_startproc
 328              		@ args = 0, pretend = 0, frame = 0
 329              		@ frame_needed = 0, uses_anonymous_args = 0
 330 0000 10B5     		push	{r4, lr}
 331              		.cfi_def_cfa_offset 8
 332              		.cfi_offset 4, -8
 333              		.cfi_offset 14, -4
 132:Generated_Source\PSoC4/MagISR.c **** 
 334              		.loc 1 132 0
 335 0002 FFF7FEFF 		bl	MagISR_Disable
 336              	.LVL18:
 135:Generated_Source\PSoC4/MagISR.c **** }
 337              		.loc 1 135 0
 338 0006 0248     		ldr	r0, .L29
 339 0008 FFF7FEFF 		bl	MagISR_SetVector
 340              	.LVL19:
 136:Generated_Source\PSoC4/MagISR.c **** 
 341              		.loc 1 136 0
 342              		@ sp needed
 343 000c 10BD     		pop	{r4, pc}
 344              	.L30:
 345 000e C046     		.align	2
 346              	.L29:
 347 0010 00000000 		.word	IntDefaultHandler
 348              		.cfi_endproc
 349              	.LFE3:
 350              		.size	MagISR_Stop, .-MagISR_Stop
 351              		.section	.text.MagISR_SetPending,"ax",%progbits
 352              		.align	2
 353              		.global	MagISR_SetPending
 354              		.code	16
 355              		.thumb_func
 356              		.type	MagISR_SetPending, %function
 357              	MagISR_SetPending:
 358              	.LFB12:
 354:Generated_Source\PSoC4/MagISR.c **** 
 355:Generated_Source\PSoC4/MagISR.c **** 
 356:Generated_Source\PSoC4/MagISR.c **** /*******************************************************************************
 357:Generated_Source\PSoC4/MagISR.c **** * Function Name: MagISR_SetPending
 358:Generated_Source\PSoC4/MagISR.c **** ********************************************************************************
 359:Generated_Source\PSoC4/MagISR.c **** *
 360:Generated_Source\PSoC4/MagISR.c **** * Summary:
 361:Generated_Source\PSoC4/MagISR.c **** *   Causes the Interrupt to enter the pending state, a software method of
 362:Generated_Source\PSoC4/MagISR.c **** *   generating the interrupt.
 363:Generated_Source\PSoC4/MagISR.c **** *
 364:Generated_Source\PSoC4/MagISR.c **** * Parameters:
 365:Generated_Source\PSoC4/MagISR.c **** *   None
 366:Generated_Source\PSoC4/MagISR.c **** *
ARM GAS  C:\Users\ERICHO~1\AppData\Local\Temp\ccMMoPqP.s 			page 14


 367:Generated_Source\PSoC4/MagISR.c **** * Return:
 368:Generated_Source\PSoC4/MagISR.c **** *   None
 369:Generated_Source\PSoC4/MagISR.c **** *
 370:Generated_Source\PSoC4/MagISR.c **** * Side Effects:
 371:Generated_Source\PSoC4/MagISR.c **** *   If interrupts are enabled and the interrupt is set up properly, the ISR is
 372:Generated_Source\PSoC4/MagISR.c **** *   entered (depending on the priority of this interrupt and other pending 
 373:Generated_Source\PSoC4/MagISR.c **** *   interrupts).
 374:Generated_Source\PSoC4/MagISR.c **** *
 375:Generated_Source\PSoC4/MagISR.c **** *******************************************************************************/
 376:Generated_Source\PSoC4/MagISR.c **** void MagISR_SetPending(void)
 377:Generated_Source\PSoC4/MagISR.c **** {
 359              		.loc 1 377 0
 360              		.cfi_startproc
 361              		@ args = 0, pretend = 0, frame = 0
 362              		@ frame_needed = 0, uses_anonymous_args = 0
 363              		@ link register save eliminated.
 378:Generated_Source\PSoC4/MagISR.c ****     *MagISR_INTC_SET_PD = MagISR__INTC_MASK;
 364              		.loc 1 378 0
 365 0000 0422     		movs	r2, #4
 366 0002 014B     		ldr	r3, .L32
 367 0004 1A60     		str	r2, [r3]
 379:Generated_Source\PSoC4/MagISR.c **** }
 368              		.loc 1 379 0
 369              		@ sp needed
 370 0006 7047     		bx	lr
 371              	.L33:
 372              		.align	2
 373              	.L32:
 374 0008 00E200E0 		.word	-536813056
 375              		.cfi_endproc
 376              	.LFE12:
 377              		.size	MagISR_SetPending, .-MagISR_SetPending
 378              		.section	.text.MagISR_ClearPending,"ax",%progbits
 379              		.align	2
 380              		.global	MagISR_ClearPending
 381              		.code	16
 382              		.thumb_func
 383              		.type	MagISR_ClearPending, %function
 384              	MagISR_ClearPending:
 385              	.LFB13:
 380:Generated_Source\PSoC4/MagISR.c **** 
 381:Generated_Source\PSoC4/MagISR.c **** 
 382:Generated_Source\PSoC4/MagISR.c **** /*******************************************************************************
 383:Generated_Source\PSoC4/MagISR.c **** * Function Name: MagISR_ClearPending
 384:Generated_Source\PSoC4/MagISR.c **** ********************************************************************************
 385:Generated_Source\PSoC4/MagISR.c **** *
 386:Generated_Source\PSoC4/MagISR.c **** * Summary:
 387:Generated_Source\PSoC4/MagISR.c **** *   Clears a pending interrupt in the interrupt controller.
 388:Generated_Source\PSoC4/MagISR.c **** *
 389:Generated_Source\PSoC4/MagISR.c **** *   Note Some interrupt sources are clear-on-read and require the block 
 390:Generated_Source\PSoC4/MagISR.c **** *   interrupt/status register to be read/cleared with the appropriate block API 
 391:Generated_Source\PSoC4/MagISR.c **** *   (GPIO, UART, and so on). Otherwise the ISR will continue to remain in 
 392:Generated_Source\PSoC4/MagISR.c **** *   pending state even though the interrupt itself is cleared using this API.
 393:Generated_Source\PSoC4/MagISR.c **** *
 394:Generated_Source\PSoC4/MagISR.c **** * Parameters:
 395:Generated_Source\PSoC4/MagISR.c **** *   None
 396:Generated_Source\PSoC4/MagISR.c **** *
ARM GAS  C:\Users\ERICHO~1\AppData\Local\Temp\ccMMoPqP.s 			page 15


 397:Generated_Source\PSoC4/MagISR.c **** * Return:
 398:Generated_Source\PSoC4/MagISR.c **** *   None
 399:Generated_Source\PSoC4/MagISR.c **** *
 400:Generated_Source\PSoC4/MagISR.c **** *******************************************************************************/
 401:Generated_Source\PSoC4/MagISR.c **** void MagISR_ClearPending(void)
 402:Generated_Source\PSoC4/MagISR.c **** {
 386              		.loc 1 402 0
 387              		.cfi_startproc
 388              		@ args = 0, pretend = 0, frame = 0
 389              		@ frame_needed = 0, uses_anonymous_args = 0
 390              		@ link register save eliminated.
 403:Generated_Source\PSoC4/MagISR.c ****     *MagISR_INTC_CLR_PD = MagISR__INTC_MASK;
 391              		.loc 1 403 0
 392 0000 0422     		movs	r2, #4
 393 0002 014B     		ldr	r3, .L35
 394 0004 1A60     		str	r2, [r3]
 404:Generated_Source\PSoC4/MagISR.c **** }
 395              		.loc 1 404 0
 396              		@ sp needed
 397 0006 7047     		bx	lr
 398              	.L36:
 399              		.align	2
 400              	.L35:
 401 0008 80E200E0 		.word	-536812928
 402              		.cfi_endproc
 403              	.LFE13:
 404              		.size	MagISR_ClearPending, .-MagISR_ClearPending
 405              		.section	.text.MagISR_Interrupt,"ax",%progbits
 406              		.align	2
 407              		.global	MagISR_Interrupt
 408              		.code	16
 409              		.thumb_func
 410              		.type	MagISR_Interrupt, %function
 411              	MagISR_Interrupt:
 412              	.LFB4:
 160:Generated_Source\PSoC4/MagISR.c ****     #ifdef MagISR_INTERRUPT_INTERRUPT_CALLBACK
 413              		.loc 1 160 0
 414              		.cfi_startproc
 415              		@ args = 0, pretend = 0, frame = 0
 416              		@ frame_needed = 0, uses_anonymous_args = 0
 417 0000 10B5     		push	{r4, lr}
 418              		.cfi_def_cfa_offset 8
 419              		.cfi_offset 4, -8
 420              		.cfi_offset 14, -4
 167:Generated_Source\PSoC4/MagISR.c ****     
 421              		.loc 1 167 0
 422 0002 064B     		ldr	r3, .L39
 423 0004 1B78     		ldrb	r3, [r3]
 424 0006 DBB2     		uxtb	r3, r3
 425 0008 042B     		cmp	r3, #4
 426 000a 03D8     		bhi	.L38
 167:Generated_Source\PSoC4/MagISR.c ****     
 427              		.loc 1 167 0 is_stmt 0 discriminator 1
 428 000c 0221     		movs	r1, #2
 429 000e 0520     		movs	r0, #5
 430 0010 FFF7FEFF 		bl	enqueue_task
 431              	.LVL20:
ARM GAS  C:\Users\ERICHO~1\AppData\Local\Temp\ccMMoPqP.s 			page 16


 432              	.L38:
 169:Generated_Source\PSoC4/MagISR.c ****     
 433              		.loc 1 169 0 is_stmt 1
 434 0014 FFF7FEFF 		bl	MagISR_ClearPending
 435              	.LVL21:
 172:Generated_Source\PSoC4/MagISR.c **** 
 436              		.loc 1 172 0
 437              		@ sp needed
 438 0018 10BD     		pop	{r4, pc}
 439              	.L40:
 440 001a C046     		.align	2
 441              	.L39:
 442 001c 00000000 		.word	num_tasks
 443              		.cfi_endproc
 444              	.LFE4:
 445              		.size	MagISR_Interrupt, .-MagISR_Interrupt
 446              		.comm	slider_pos_last,1,1
 447              		.comm	run_mode,1,1
 448              		.comm	Init_heading,2,2
 449              		.comm	Max_Lidar,2,2
 450              		.comm	Batt_volt,2,2
 451              		.comm	ESC_curr,2,2
 452              		.comm	motor_toggles,2,2
 453              		.comm	num_tasks,1,1
 454              		.comm	num_rx_bytes_lidar_buff,1,1
 455              		.comm	num_rx_bytes_lidar,1,1
 456              		.comm	LIDAR_UART_tmr,1,1
 457              		.comm	rx_bytes_lidar_buff,16,4
 458              		.comm	rx_bytes_lidar,16,4
 459              		.comm	num_rx_bytes_ble_buff,1,1
 460              		.comm	num_rx_bytes_ble,1,1
 461              		.comm	BLE_UART_tmr,1,1
 462              		.comm	rx_bytes_ble_buff,8,4
 463              		.comm	rx_bytes_ble,8,4
 464              		.comm	num_rx_bytes_dbg_buff,1,1
 465              		.comm	num_rx_bytes_dbg,1,1
 466              		.comm	rx_bytes_dbg_buff,8,4
 467              		.comm	rx_bytes_dbg,8,4
 468              		.text
 469              	.Letext0:
 470              		.file 2 "c:\\program files (x86)\\cypress\\psoc creator\\4.3\\psoc creator\\import\\gnu\\arm\\5.4.
 471              		.file 3 "c:\\program files (x86)\\cypress\\psoc creator\\4.3\\psoc creator\\import\\gnu\\arm\\5.4.
 472              		.file 4 "Generated_Source\\PSoC4/cytypes.h"
 473              		.file 5 "./main.h"
 474              		.file 6 "Generated_Source\\PSoC4/CyLib.h"