ARM GAS  C:\Users\SAIKAR~1\AppData\Local\Temp\ccYUKoGs.s 			page 1


   1              		.syntax unified
   2              		.cpu cortex-m0
   3              		.fpu softvfp
   4              		.eabi_attribute 20, 1
   5              		.eabi_attribute 21, 1
   6              		.eabi_attribute 23, 3
   7              		.eabi_attribute 24, 1
   8              		.eabi_attribute 25, 1
   9              		.eabi_attribute 26, 1
  10              		.eabi_attribute 30, 1
  11              		.eabi_attribute 34, 0
  12              		.eabi_attribute 18, 4
  13              		.thumb
  14              		.syntax unified
  15              		.file	"main.c"
  16              		.text
  17              	.Ltext0:
  18              		.cfi_sections	.debug_frame
  19              		.section	.text.display_msg_FC,"ax",%progbits
  20              		.align	2
  21              		.global	display_msg_FC
  22              		.code	16
  23              		.thumb_func
  24              		.type	display_msg_FC, %function
  25              	display_msg_FC:
  26              	.LFB36:
  27              		.file 1 "main.c"
   1:main.c        **** /* ========================================
   2:main.c        ****  *
   3:main.c        ****  * Copyright YOUR COMPANY, THE YEAR
   4:main.c        ****  * All Rights Reserved
   5:main.c        ****  * UNPUBLISHED, LICENSED SOFTWARE.
   6:main.c        ****  *
   7:main.c        ****  * CONFIDENTIAL AND PROPRIETARY INFORMATION
   8:main.c        ****  * WHICH IS THE PROPERTY OF your company.
   9:main.c        ****  *
  10:main.c        ****  * ========================================
  11:main.c        ****  */
  12:main.c        **** #include "project.h"
  13:main.c        **** #include "main.h"
  14:main.c        **** #include "MOSI.h"
  15:main.c        **** #include "SCLK.h"
  16:main.c        **** 
  17:main.c        **** #include <stdio.h>
  18:main.c        **** #include <inttypes.h>
  19:main.c        **** 
  20:main.c        **** #include "sanitize.h"
  21:main.c        **** #include "algorithm.h"
  22:main.c        **** #include "cordic.h"
  23:main.c        **** 
  24:main.c        **** ///////////////////////////
  25:main.c        **** // Define globals below //
  26:main.c        **** /////////////////////////
  27:main.c        **** volatile char debug_msg[256];
  28:main.c        **** volatile char fc_msg[256];
  29:main.c        **** volatile uint8_t msg_ptr_head = 0, msg_ptr_tail = 0;
  30:main.c        **** volatile uint8_t fc_msg_ptr_head = 0, fc_msg_ptr_tail = 0;
ARM GAS  C:\Users\SAIKAR~1\AppData\Local\Temp\ccYUKoGs.s 			page 2


  31:main.c        **** volatile task_queue_t task_queue[MAX_NUM_TASKS]; // hold up to 4 tasks descriptions that should be 
  32:main.c        **** GP_timer_t GP_timer[MAX_NUM_TASKS];              // can have up to 5 concurrent GP timer events
  33:main.c        **** uint8_t num_GP_timers = 0;                       // number of currently active GP timers
  34:main.c        **** timer_evt_t GP_evt;                              // timer event is a timer name and how many WDT ti
  35:main.c        **** uint8_t tmr_dec;                                 // used to decimate WDT calls to compute seconds
  36:main.c        **** uint16_t sec;                                    // seconds since power up
  37:main.c        **** DroneNavigator_t virus;
  38:main.c        **** const double TARGET_LAT = 43.06;
  39:main.c        **** const double TARGET_LON = 89.28;
  40:main.c        **** const double DT_S = 0.1;
  41:main.c        **** GpsData_t gps_data;
  42:main.c        **** GPSCoordinate_t coords = {0.0,0.0};
  43:main.c        **** 
  44:main.c        **** int main(void)
  45:main.c        **** {
  46:main.c        ****   static task_t active_task;
  47:main.c        ****   uint16_t x;             // generic loop index variable
  48:main.c        ****   uint8_t curr_GP_timers; // used to hold current number of GP_timers
  49:main.c        **** 
  50:main.c        ****   CyGlobalIntEnable; /* Enable global interrupts. */
  51:main.c        **** 
  52:main.c        ****   /////////////////////////
  53:main.c        ****   // Initialize Globals //
  54:main.c        ****   ///////////////////////
  55:main.c        ****   for (x = 0; x < 4; x++)
  56:main.c        ****   { // ensure no GP timers set
  57:main.c        ****     GP_timer[x].time = 0;
  58:main.c        ****   }
  59:main.c        ****   num_rx_bytes_dbg_buff = 0;
  60:main.c        ****   num_rx_bytes_gps_buff = 0;
  61:main.c        ****   num_rx_bytes_FC = 0;
  62:main.c        **** 
  63:main.c        ****   ////////////////////////
  64:main.c        ****   // Initialize locals //
  65:main.c        ****   //////////////////////
  66:main.c        ****   sec = 0;
  67:main.c        **** 
  68:main.c        ****   //////////////////////////////////////////////
  69:main.c        ****   // Fire up peripherals needed for main app //
  70:main.c        ****   ////////////////////////////////////////////
  71:main.c        ****   init_periphs();
  72:main.c        **** 
  73:main.c        ****   ///////////////////////////
  74:main.c        ****   // Main loop start here //
  75:main.c        ****   /////////////////////////
  76:main.c        ****   for (;;)
  77:main.c        ****   {
  78:main.c        **** 
  79:main.c        ****     //////////////////////////
  80:main.c        ****     // Task Handler below: //
  81:main.c        ****     ////////////////////////
  82:main.c        ****     if (num_tasks)
  83:main.c        ****     {
  84:main.c        ****       CyGlobalIntDisable;
  85:main.c        ****       active_task = dequeue_task();
  86:main.c        ****       CyGlobalIntEnable;
  87:main.c        ****       switch (active_task)
ARM GAS  C:\Users\SAIKAR~1\AppData\Local\Temp\ccYUKoGs.s 			page 3


  88:main.c        ****       {
  89:main.c        ****       case TMR_UPDT:
  90:main.c        ****       { // roughly 200 time/sec
  91:main.c        ****         tmr_dec++;
  92:main.c        ****         if (tmr_dec == 199)
  93:main.c        ****         { // ~1Hz rate
  94:main.c        ****           tmr_dec = 0;
  95:main.c        ****           sec++; // increment seconds
  96:main.c        ****           if (sec == 6)
  97:main.c        ****           {
  98:main.c        ****             // set_GP_timer(TIMER1,1200);
  99:main.c        ****             //  do something at 6 seconds in (left in as an example)
 100:main.c        ****             // append_msg("I am alive!\n");
 101:main.c        ****           }
 102:main.c        ****           LED_display(sec);
 103:main.c        ****         }
 104:main.c        ****         GPS_UART_tmr++;
 105:main.c        ****         /////////////////////////////////////////////////////
 106:main.c        ****         // When not in middle of a reception the tmr goes //
 107:main.c        ****         // from 6 -> 0x18.  If in a reception it starts  //
 108:main.c        ****         // at 0 and if it hits 5 a timeout occurs.      //
 109:main.c        ****         /////////////////////////////////////////////////
 110:main.c        ****         if (GPS_UART_tmr == 0x18)
 111:main.c        ****           GPS_UART_tmr = 6;    // beyond timeout
 112:main.c        ****         if (GPS_UART_tmr == 5) // UART timeout, discard current buffer
 113:main.c        ****           num_rx_bytes_gps_buff = 0;
 114:main.c        **** 
 115:main.c        ****         //////////////////////////////////////////////////
 116:main.c        ****         // Decrement GP timers and look for expiration //
 117:main.c        ****         ////////////////////////////////////////////////
 118:main.c        ****         x = 0;
 119:main.c        ****         curr_GP_timers = num_GP_timers; // num_GP timers might get incremented whild processing GP 
 120:main.c        ****         while (x < curr_GP_timers)
 121:main.c        ****         {
 122:main.c        ****           if (GP_timer[x].time)
 123:main.c        ****           {
 124:main.c        ****             GP_timer[x].time--;
 125:main.c        ****             if (GP_timer[x].time == 0)
 126:main.c        ****             {
 127:main.c        ****               process_GP_timer_evt(GP_timer[x].evt);
 128:main.c        ****               if (x < (curr_GP_timers - 1))
 129:main.c        ****                 x--; // if we shifted valid timer up we need to process it.
 130:main.c        ****             }
 131:main.c        ****           }
 132:main.c        ****           x++;
 133:main.c        ****         }
 134:main.c        ****         break;
 135:main.c        ****       }
 136:main.c        ****       case DBG_CMD_PROC:
 137:main.c        ****       {
 138:main.c        ****         /// A command ending in carriage return (0x0D) has come in via the debug port ///
 139:main.c        ****         /// The data bytes reside in an array called rx_bytes_dbg[]
 140:main.c        ****         /// The number of bytes there is contained in num_rx_bytes_dbg
 141:main.c        ****         processDbgCmd();
 142:main.c        ****         break;
 143:main.c        ****       }
 144:main.c        ****       case GPS_PCKT_PROC:
ARM GAS  C:\Users\SAIKAR~1\AppData\Local\Temp\ccYUKoGs.s 			page 4


 145:main.c        ****       {
 146:main.c        ****         /// A packet has come in the GPS port ///
 147:main.c        ****         /// The data bytes reside in an array called rx_bytes_gps[]
 148:main.c        ****         /// The number of bytes there is contained in num_rx_bytes_gps
 149:main.c        ****         processGPS_Pckt();
 150:main.c        ****         break;
 151:main.c        ****       }
 152:main.c        ****       case FC_PCKT_PROC:
 153:main.c        ****       {
 154:main.c        ****         /// A packet has come in the FC port ///
 155:main.c        ****         /// The data bytes reside in an array called rx_bytes_FC[]
 156:main.c        ****         /// The number of bytes is always 5 [0:4]
 157:main.c        ****         processFC_Pckt();
 158:main.c        ****         break;
 159:main.c        ****       }
 160:main.c        ****       default:
 161:main.c        ****       {
 162:main.c        ****         append_msg("ERR: unhandle task in task queue ");
 163:main.c        ****         append_num16((uint8)active_task);
 164:main.c        ****         append_msg("\r");
 165:main.c        ****         break;
 166:main.c        ****       }
 167:main.c        ****       }
 168:main.c        ****     }
 169:main.c        ****     //////////////////////////////////////////////////////
 170:main.c        ****     // If there is data in debug message then print it //
 171:main.c        ****     ////////////////////////////////////////////////////
 172:main.c        ****     /*if ((msg_ptr_tail!=msg_ptr_head) && (num_tasks==0)) {
 173:main.c        ****         display_msg();
 174:main.c        ****     }*/
 175:main.c        ****     if ((fc_msg_ptr_tail != fc_msg_ptr_head) && (num_tasks == 0))
 176:main.c        ****     {
 177:main.c        ****       display_msg_FC();
 178:main.c        ****     }
 179:main.c        ****   }
 180:main.c        **** }
 181:main.c        **** 
 182:main.c        **** void display_msg_FC(void)
 183:main.c        **** {
  28              		.loc 1 183 0
  29              		.cfi_startproc
  30              		@ args = 0, pretend = 0, frame = 0
  31              		@ frame_needed = 0, uses_anonymous_args = 0
  32 0000 70B5     		push	{r4, r5, r6, lr}
  33              		.cfi_def_cfa_offset 16
  34              		.cfi_offset 4, -16
  35              		.cfi_offset 5, -12
  36              		.cfi_offset 6, -8
  37              		.cfi_offset 14, -4
  38              	.LVL0:
 184:main.c        ****   //// Send a max of 4-bytes at a time ////
 185:main.c        ****   uint8_t cnt;
 186:main.c        **** 
 187:main.c        ****   cnt = 0;
  39              		.loc 1 187 0
  40 0002 0024     		movs	r4, #0
 188:main.c        ****   /// Wait for tx buffer empty ///
ARM GAS  C:\Users\SAIKAR~1\AppData\Local\Temp\ccYUKoGs.s 			page 5


 189:main.c        ****   // while (UART_FC_SpiUartGetTxBufferSize()) { ; }
 190:main.c        **** 
 191:main.c        ****   /// Send 4-bytes or remainder of message ///
 192:main.c        ****   while ((fc_msg_ptr_tail != fc_msg_ptr_head) && (cnt < 4))
  41              		.loc 1 192 0
  42 0004 0DE0     		b	.L2
  43              	.LVL1:
  44              	.L4:
 193:main.c        ****   {
 194:main.c        ****     UART_FC_UartPutChar(fc_msg[fc_msg_ptr_tail]);
  45              		.loc 1 194 0
  46 0006 0C4D     		ldr	r5, .L5
  47 0008 2B78     		ldrb	r3, [r5]
  48 000a DBB2     		uxtb	r3, r3
  49 000c 0B4A     		ldr	r2, .L5+4
  50 000e D05C     		ldrb	r0, [r2, r3]
  51 0010 C0B2     		uxtb	r0, r0
  52 0012 FFF7FEFF 		bl	UART_FC_SpiUartWriteTxData
  53              	.LVL2:
 195:main.c        ****     fc_msg_ptr_tail = ((fc_msg_ptr_tail + 1) & 0x00FF); // modulo 256
  54              		.loc 1 195 0
  55 0016 2B78     		ldrb	r3, [r5]
  56 0018 0133     		adds	r3, r3, #1
  57 001a DBB2     		uxtb	r3, r3
  58 001c 2B70     		strb	r3, [r5]
 196:main.c        ****     cnt++;
  59              		.loc 1 196 0
  60 001e 0134     		adds	r4, r4, #1
  61              	.LVL3:
  62 0020 E4B2     		uxtb	r4, r4
  63              	.LVL4:
  64              	.L2:
 192:main.c        ****   {
  65              		.loc 1 192 0
  66 0022 054B     		ldr	r3, .L5
  67 0024 1A78     		ldrb	r2, [r3]
  68 0026 D2B2     		uxtb	r2, r2
  69 0028 5B78     		ldrb	r3, [r3, #1]
  70 002a DBB2     		uxtb	r3, r3
  71 002c 9A42     		cmp	r2, r3
  72 002e 01D0     		beq	.L1
 192:main.c        ****   {
  73              		.loc 1 192 0 is_stmt 0 discriminator 1
  74 0030 032C     		cmp	r4, #3
  75 0032 E8D9     		bls	.L4
  76              	.L1:
 197:main.c        ****   }
 198:main.c        **** }
  77              		.loc 1 198 0 is_stmt 1
  78              		@ sp needed
  79              	.LVL5:
  80 0034 70BD     		pop	{r4, r5, r6, pc}
  81              	.L6:
  82 0036 C046     		.align	2
  83              	.L5:
  84 0038 00000000 		.word	.LANCHOR0
  85 003c 00000000 		.word	fc_msg
ARM GAS  C:\Users\SAIKAR~1\AppData\Local\Temp\ccYUKoGs.s 			page 6


  86              		.cfi_endproc
  87              	.LFE36:
  88              		.size	display_msg_FC, .-display_msg_FC
  89              		.section	.text.display_msg,"ax",%progbits
  90              		.align	2
  91              		.global	display_msg
  92              		.code	16
  93              		.thumb_func
  94              		.type	display_msg, %function
  95              	display_msg:
  96              	.LFB37:
 199:main.c        **** 
 200:main.c        **** void display_msg(void)
 201:main.c        **** {
  97              		.loc 1 201 0
  98              		.cfi_startproc
  99              		@ args = 0, pretend = 0, frame = 0
 100              		@ frame_needed = 0, uses_anonymous_args = 0
 101 0000 70B5     		push	{r4, r5, r6, lr}
 102              		.cfi_def_cfa_offset 16
 103              		.cfi_offset 4, -16
 104              		.cfi_offset 5, -12
 105              		.cfi_offset 6, -8
 106              		.cfi_offset 14, -4
 107              	.LVL6:
 202:main.c        ****   //// Send a max of 4-bytes at a time ////
 203:main.c        ****   uint8_t cnt;
 204:main.c        **** 
 205:main.c        ****   cnt = 0;
 108              		.loc 1 205 0
 109 0002 0024     		movs	r4, #0
 206:main.c        ****   /// Wait for tx buffer empty ///
 207:main.c        ****   // while (UART_DBG_SpiUartGetTxBufferSize()) { ; }
 208:main.c        **** 
 209:main.c        ****   /// Send 4-bytes or remainder of message ///
 210:main.c        ****   while ((msg_ptr_tail != msg_ptr_head) && (cnt < 4))
 110              		.loc 1 210 0
 111 0004 0DE0     		b	.L8
 112              	.LVL7:
 113              	.L10:
 211:main.c        ****   {
 212:main.c        ****     UART_DBG_UartPutChar(debug_msg[msg_ptr_tail]);
 114              		.loc 1 212 0
 115 0006 0C4D     		ldr	r5, .L11
 116 0008 AB78     		ldrb	r3, [r5, #2]
 117 000a DBB2     		uxtb	r3, r3
 118 000c 0B4A     		ldr	r2, .L11+4
 119 000e D05C     		ldrb	r0, [r2, r3]
 120 0010 C0B2     		uxtb	r0, r0
 121 0012 FFF7FEFF 		bl	UART_DBG_SpiUartWriteTxData
 122              	.LVL8:
 213:main.c        ****     msg_ptr_tail = ((msg_ptr_tail + 1) & 0x00FF); // modulo 256
 123              		.loc 1 213 0
 124 0016 AB78     		ldrb	r3, [r5, #2]
 125 0018 0133     		adds	r3, r3, #1
 126 001a DBB2     		uxtb	r3, r3
 127 001c AB70     		strb	r3, [r5, #2]
ARM GAS  C:\Users\SAIKAR~1\AppData\Local\Temp\ccYUKoGs.s 			page 7


 214:main.c        ****     cnt++;
 128              		.loc 1 214 0
 129 001e 0134     		adds	r4, r4, #1
 130              	.LVL9:
 131 0020 E4B2     		uxtb	r4, r4
 132              	.LVL10:
 133              	.L8:
 210:main.c        ****   {
 134              		.loc 1 210 0
 135 0022 054B     		ldr	r3, .L11
 136 0024 9A78     		ldrb	r2, [r3, #2]
 137 0026 D2B2     		uxtb	r2, r2
 138 0028 DB78     		ldrb	r3, [r3, #3]
 139 002a DBB2     		uxtb	r3, r3
 140 002c 9A42     		cmp	r2, r3
 141 002e 01D0     		beq	.L7
 210:main.c        ****   {
 142              		.loc 1 210 0 is_stmt 0 discriminator 1
 143 0030 032C     		cmp	r4, #3
 144 0032 E8D9     		bls	.L10
 145              	.L7:
 215:main.c        ****   }
 216:main.c        **** }
 146              		.loc 1 216 0 is_stmt 1
 147              		@ sp needed
 148              	.LVL11:
 149 0034 70BD     		pop	{r4, r5, r6, pc}
 150              	.L12:
 151 0036 C046     		.align	2
 152              	.L11:
 153 0038 00000000 		.word	.LANCHOR0
 154 003c 00000000 		.word	debug_msg
 155              		.cfi_endproc
 156              	.LFE37:
 157              		.size	display_msg, .-display_msg
 158              		.section	.text.append_msg,"ax",%progbits
 159              		.align	2
 160              		.global	append_msg
 161              		.code	16
 162              		.thumb_func
 163              		.type	append_msg, %function
 164              	append_msg:
 165              	.LFB38:
 217:main.c        **** 
 218:main.c        **** void append_msg(char *new_msg)
 219:main.c        **** {
 166              		.loc 1 219 0
 167              		.cfi_startproc
 168              		@ args = 0, pretend = 0, frame = 0
 169              		@ frame_needed = 0, uses_anonymous_args = 0
 170              	.LVL12:
 171 0000 10B5     		push	{r4, lr}
 172              		.cfi_def_cfa_offset 8
 173              		.cfi_offset 4, -8
 174              		.cfi_offset 14, -4
 220:main.c        ****   while (*new_msg != 0x00)
 175              		.loc 1 220 0
ARM GAS  C:\Users\SAIKAR~1\AppData\Local\Temp\ccYUKoGs.s 			page 8


 176 0002 09E0     		b	.L14
 177              	.L15:
 221:main.c        ****   {
 222:main.c        ****     debug_msg[msg_ptr_head] = *new_msg;
 178              		.loc 1 222 0
 179 0004 064A     		ldr	r2, .L16
 180 0006 D378     		ldrb	r3, [r2, #3]
 181 0008 DBB2     		uxtb	r3, r3
 182 000a 064C     		ldr	r4, .L16+4
 183 000c E154     		strb	r1, [r4, r3]
 223:main.c        ****     msg_ptr_head = ((msg_ptr_head + 1) & 0x00FF); // modulo 256
 184              		.loc 1 223 0
 185 000e D378     		ldrb	r3, [r2, #3]
 186 0010 0133     		adds	r3, r3, #1
 187 0012 DBB2     		uxtb	r3, r3
 188 0014 D370     		strb	r3, [r2, #3]
 224:main.c        ****     new_msg++;
 189              		.loc 1 224 0
 190 0016 0130     		adds	r0, r0, #1
 191              	.LVL13:
 192              	.L14:
 220:main.c        ****   {
 193              		.loc 1 220 0
 194 0018 0178     		ldrb	r1, [r0]
 195 001a 0029     		cmp	r1, #0
 196 001c F2D1     		bne	.L15
 225:main.c        ****   }
 226:main.c        **** }
 197              		.loc 1 226 0
 198              		@ sp needed
 199 001e 10BD     		pop	{r4, pc}
 200              	.L17:
 201              		.align	2
 202              	.L16:
 203 0020 00000000 		.word	.LANCHOR0
 204 0024 00000000 		.word	debug_msg
 205              		.cfi_endproc
 206              	.LFE38:
 207              		.size	append_msg, .-append_msg
 208              		.section	.text.append_msg_FC,"ax",%progbits
 209              		.align	2
 210              		.global	append_msg_FC
 211              		.code	16
 212              		.thumb_func
 213              		.type	append_msg_FC, %function
 214              	append_msg_FC:
 215              	.LFB39:
 227:main.c        **** 
 228:main.c        **** void append_msg_FC(char *new_msg)
 229:main.c        **** {
 216              		.loc 1 229 0
 217              		.cfi_startproc
 218              		@ args = 0, pretend = 0, frame = 0
 219              		@ frame_needed = 0, uses_anonymous_args = 0
 220              	.LVL14:
 221 0000 10B5     		push	{r4, lr}
 222              		.cfi_def_cfa_offset 8
ARM GAS  C:\Users\SAIKAR~1\AppData\Local\Temp\ccYUKoGs.s 			page 9


 223              		.cfi_offset 4, -8
 224              		.cfi_offset 14, -4
 230:main.c        ****   while (*new_msg != 0x00)
 225              		.loc 1 230 0
 226 0002 09E0     		b	.L19
 227              	.L20:
 231:main.c        ****   {
 232:main.c        ****     fc_msg[fc_msg_ptr_head] = *new_msg;
 228              		.loc 1 232 0
 229 0004 064A     		ldr	r2, .L21
 230 0006 5378     		ldrb	r3, [r2, #1]
 231 0008 DBB2     		uxtb	r3, r3
 232 000a 064C     		ldr	r4, .L21+4
 233 000c E154     		strb	r1, [r4, r3]
 233:main.c        ****     fc_msg_ptr_head = ((fc_msg_ptr_head + 1) & 0x00FF); // modulo 256
 234              		.loc 1 233 0
 235 000e 5378     		ldrb	r3, [r2, #1]
 236 0010 0133     		adds	r3, r3, #1
 237 0012 DBB2     		uxtb	r3, r3
 238 0014 5370     		strb	r3, [r2, #1]
 234:main.c        ****     new_msg++;
 239              		.loc 1 234 0
 240 0016 0130     		adds	r0, r0, #1
 241              	.LVL15:
 242              	.L19:
 230:main.c        ****   {
 243              		.loc 1 230 0
 244 0018 0178     		ldrb	r1, [r0]
 245 001a 0029     		cmp	r1, #0
 246 001c F2D1     		bne	.L20
 235:main.c        ****   }
 236:main.c        **** }
 247              		.loc 1 236 0
 248              		@ sp needed
 249 001e 10BD     		pop	{r4, pc}
 250              	.L22:
 251              		.align	2
 252              	.L21:
 253 0020 00000000 		.word	.LANCHOR0
 254 0024 00000000 		.word	fc_msg
 255              		.cfi_endproc
 256              	.LFE39:
 257              		.size	append_msg_FC, .-append_msg_FC
 258              		.section	.text.append_char,"ax",%progbits
 259              		.align	2
 260              		.global	append_char
 261              		.code	16
 262              		.thumb_func
 263              		.type	append_char, %function
 264              	append_char:
 265              	.LFB40:
 237:main.c        **** 
 238:main.c        **** void append_char(char byte)
 239:main.c        **** {
 266              		.loc 1 239 0
 267              		.cfi_startproc
 268              		@ args = 0, pretend = 0, frame = 0
ARM GAS  C:\Users\SAIKAR~1\AppData\Local\Temp\ccYUKoGs.s 			page 10


 269              		@ frame_needed = 0, uses_anonymous_args = 0
 270              		@ link register save eliminated.
 271              	.LVL16:
 240:main.c        ****   debug_msg[msg_ptr_head] = byte;
 272              		.loc 1 240 0
 273 0000 044A     		ldr	r2, .L24
 274 0002 D378     		ldrb	r3, [r2, #3]
 275 0004 DBB2     		uxtb	r3, r3
 276 0006 0449     		ldr	r1, .L24+4
 277 0008 C854     		strb	r0, [r1, r3]
 241:main.c        ****   msg_ptr_head = ((msg_ptr_head + 1) & 0x00FF); // modulo 256
 278              		.loc 1 241 0
 279 000a D378     		ldrb	r3, [r2, #3]
 280 000c 0133     		adds	r3, r3, #1
 281 000e DBB2     		uxtb	r3, r3
 282 0010 D370     		strb	r3, [r2, #3]
 242:main.c        **** }
 283              		.loc 1 242 0
 284              		@ sp needed
 285 0012 7047     		bx	lr
 286              	.L25:
 287              		.align	2
 288              	.L24:
 289 0014 00000000 		.word	.LANCHOR0
 290 0018 00000000 		.word	debug_msg
 291              		.cfi_endproc
 292              	.LFE40:
 293              		.size	append_char, .-append_char
 294              		.section	.text.append_char_FC,"ax",%progbits
 295              		.align	2
 296              		.global	append_char_FC
 297              		.code	16
 298              		.thumb_func
 299              		.type	append_char_FC, %function
 300              	append_char_FC:
 301              	.LFB41:
 243:main.c        **** 
 244:main.c        **** void append_char_FC(char byte)
 245:main.c        **** {
 302              		.loc 1 245 0
 303              		.cfi_startproc
 304              		@ args = 0, pretend = 0, frame = 0
 305              		@ frame_needed = 0, uses_anonymous_args = 0
 306              		@ link register save eliminated.
 307              	.LVL17:
 246:main.c        ****   fc_msg[fc_msg_ptr_head] = byte;
 308              		.loc 1 246 0
 309 0000 044A     		ldr	r2, .L27
 310 0002 5378     		ldrb	r3, [r2, #1]
 311 0004 DBB2     		uxtb	r3, r3
 312 0006 0449     		ldr	r1, .L27+4
 313 0008 C854     		strb	r0, [r1, r3]
 247:main.c        ****   fc_msg_ptr_head = ((fc_msg_ptr_head + 1) & 0x00FF); // modulo 256
 314              		.loc 1 247 0
 315 000a 5378     		ldrb	r3, [r2, #1]
 316 000c 0133     		adds	r3, r3, #1
 317 000e DBB2     		uxtb	r3, r3
ARM GAS  C:\Users\SAIKAR~1\AppData\Local\Temp\ccYUKoGs.s 			page 11


 318 0010 5370     		strb	r3, [r2, #1]
 248:main.c        **** }
 319              		.loc 1 248 0
 320              		@ sp needed
 321 0012 7047     		bx	lr
 322              	.L28:
 323              		.align	2
 324              	.L27:
 325 0014 00000000 		.word	.LANCHOR0
 326 0018 00000000 		.word	fc_msg
 327              		.cfi_endproc
 328              	.LFE41:
 329              		.size	append_char_FC, .-append_char_FC
 330              		.section	.text.append_num16,"ax",%progbits
 331              		.align	2
 332              		.global	append_num16
 333              		.code	16
 334              		.thumb_func
 335              		.type	append_num16, %function
 336              	append_num16:
 337              	.LFB42:
 249:main.c        **** 
 250:main.c        **** void append_num16(uint16 num)
 251:main.c        **** {
 338              		.loc 1 251 0
 339              		.cfi_startproc
 340              		@ args = 0, pretend = 0, frame = 24
 341              		@ frame_needed = 0, uses_anonymous_args = 0
 342              	.LVL18:
 343 0000 F0B5     		push	{r4, r5, r6, r7, lr}
 344              		.cfi_def_cfa_offset 20
 345              		.cfi_offset 4, -20
 346              		.cfi_offset 5, -16
 347              		.cfi_offset 6, -12
 348              		.cfi_offset 7, -8
 349              		.cfi_offset 14, -4
 350 0002 87B0     		sub	sp, sp, #28
 351              		.cfi_def_cfa_offset 48
 252:main.c        ****   uint16 count[5];
 253:main.c        ****   uint16 base[5];
 254:main.c        ****   char nonzero_found;
 255:main.c        ****   int16 digit;
 256:main.c        ****   char temp[2];
 257:main.c        **** 
 258:main.c        ****   base[0] = 1;
 352              		.loc 1 258 0
 353 0004 0123     		movs	r3, #1
 354 0006 6A46     		mov	r2, sp
 355 0008 1380     		strh	r3, [r2]
 259:main.c        ****   base[1] = 10;
 356              		.loc 1 259 0
 357 000a 0933     		adds	r3, r3, #9
 358 000c 5380     		strh	r3, [r2, #2]
 260:main.c        ****   base[2] = 100;
 359              		.loc 1 260 0
 360 000e 5A33     		adds	r3, r3, #90
 361 0010 9380     		strh	r3, [r2, #4]
ARM GAS  C:\Users\SAIKAR~1\AppData\Local\Temp\ccYUKoGs.s 			page 12


 261:main.c        ****   base[3] = 1000;
 362              		.loc 1 261 0
 363 0012 FA23     		movs	r3, #250
 364 0014 9B00     		lsls	r3, r3, #2
 365 0016 D380     		strh	r3, [r2, #6]
 262:main.c        ****   base[4] = 10000;
 366              		.loc 1 262 0
 367 0018 1B4B     		ldr	r3, .L36
 368 001a 1381     		strh	r3, [r2, #8]
 369              	.LVL19:
 263:main.c        ****   temp[1] = 0;       // null terminate
 264:main.c        ****   nonzero_found = 0; // flag as to when to print digit
 265:main.c        **** 
 266:main.c        ****   for (digit = 4; digit >= 0; digit--)
 370              		.loc 1 266 0
 371 001c 0426     		movs	r6, #4
 264:main.c        **** 
 372              		.loc 1 264 0
 373 001e 0027     		movs	r7, #0
 374              		.loc 1 266 0
 375 0020 27E0     		b	.L30
 376              	.LVL20:
 377              	.L35:
 267:main.c        ****   {
 268:main.c        ****     count[digit] = 0;
 378              		.loc 1 268 0
 379 0022 3500     		movs	r5, r6
 380 0024 7300     		lsls	r3, r6, #1
 381 0026 0021     		movs	r1, #0
 382 0028 03AA     		add	r2, sp, #12
 383 002a 9952     		strh	r1, [r3, r2]
 269:main.c        ****     while (num >= base[digit])
 384              		.loc 1 269 0
 385 002c 06E0     		b	.L31
 386              	.L32:
 270:main.c        ****     {
 271:main.c        ****       count[digit]++;
 387              		.loc 1 271 0
 388 002e 03A9     		add	r1, sp, #12
 389 0030 6C00     		lsls	r4, r5, #1
 390 0032 625A     		ldrh	r2, [r4, r1]
 391 0034 0132     		adds	r2, r2, #1
 392 0036 6252     		strh	r2, [r4, r1]
 272:main.c        ****       num -= base[digit];
 393              		.loc 1 272 0
 394 0038 C31A     		subs	r3, r0, r3
 395 003a 98B2     		uxth	r0, r3
 396              	.LVL21:
 397              	.L31:
 269:main.c        ****     while (num >= base[digit])
 398              		.loc 1 269 0
 399 003c 6A00     		lsls	r2, r5, #1
 400 003e 6B46     		mov	r3, sp
 401 0040 D35A     		ldrh	r3, [r2, r3]
 402 0042 9842     		cmp	r0, r3
 403 0044 F3D2     		bcs	.L32
 273:main.c        ****     }
ARM GAS  C:\Users\SAIKAR~1\AppData\Local\Temp\ccYUKoGs.s 			page 13


 274:main.c        ****     if ((count[digit]) || (nonzero_found) || (digit == 0))
 404              		.loc 1 274 0
 405 0046 03AB     		add	r3, sp, #12
 406 0048 D35A     		ldrh	r3, [r2, r3]
 407 004a 002B     		cmp	r3, #0
 408 004c 03D1     		bne	.L33
 409              		.loc 1 274 0 is_stmt 0 discriminator 1
 410 004e 002F     		cmp	r7, #0
 411 0050 01D1     		bne	.L33
 412              		.loc 1 274 0 discriminator 2
 413 0052 002E     		cmp	r6, #0
 414 0054 0BD1     		bne	.L34
 415              	.L33:
 416              	.LVL22:
 275:main.c        ****     {
 276:main.c        ****       nonzero_found = 1;
 277:main.c        ****       temp[0] = (char)(count[digit] + 48);
 417              		.loc 1 277 0 is_stmt 1
 418 0056 3033     		adds	r3, r3, #48
 419 0058 DBB2     		uxtb	r3, r3
 278:main.c        ****       debug_msg[msg_ptr_head] = temp[0];
 420              		.loc 1 278 0
 421 005a 0C4A     		ldr	r2, .L36+4
 422 005c D178     		ldrb	r1, [r2, #3]
 423 005e C9B2     		uxtb	r1, r1
 424 0060 0B4C     		ldr	r4, .L36+8
 425 0062 6354     		strb	r3, [r4, r1]
 279:main.c        ****       msg_ptr_head = ((msg_ptr_head + 1) & 0x00FF); // modulo 256
 426              		.loc 1 279 0
 427 0064 D378     		ldrb	r3, [r2, #3]
 428 0066 0133     		adds	r3, r3, #1
 429 0068 DBB2     		uxtb	r3, r3
 430 006a D370     		strb	r3, [r2, #3]
 276:main.c        ****       temp[0] = (char)(count[digit] + 48);
 431              		.loc 1 276 0
 432 006c 0127     		movs	r7, #1
 433              	.LVL23:
 434              	.L34:
 266:main.c        ****   {
 435              		.loc 1 266 0 discriminator 2
 436 006e 013E     		subs	r6, r6, #1
 437              	.LVL24:
 438 0070 36B2     		sxth	r6, r6
 439              	.LVL25:
 440              	.L30:
 266:main.c        ****   {
 441              		.loc 1 266 0 is_stmt 0 discriminator 1
 442 0072 002E     		cmp	r6, #0
 443 0074 D5DA     		bge	.L35
 280:main.c        ****     }
 281:main.c        ****   }
 282:main.c        ****   debug_msg[msg_ptr_head] = 0x00; // null terminate
 444              		.loc 1 282 0 is_stmt 1
 445 0076 054B     		ldr	r3, .L36+4
 446 0078 DB78     		ldrb	r3, [r3, #3]
 447 007a DBB2     		uxtb	r3, r3
 448 007c 0021     		movs	r1, #0
ARM GAS  C:\Users\SAIKAR~1\AppData\Local\Temp\ccYUKoGs.s 			page 14


 449 007e 044A     		ldr	r2, .L36+8
 450 0080 D154     		strb	r1, [r2, r3]
 283:main.c        **** }
 451              		.loc 1 283 0
 452 0082 07B0     		add	sp, sp, #28
 453              		@ sp needed
 454              	.LVL26:
 455              	.LVL27:
 456 0084 F0BD     		pop	{r4, r5, r6, r7, pc}
 457              	.L37:
 458 0086 C046     		.align	2
 459              	.L36:
 460 0088 10270000 		.word	10000
 461 008c 00000000 		.word	.LANCHOR0
 462 0090 00000000 		.word	debug_msg
 463              		.cfi_endproc
 464              	.LFE42:
 465              		.size	append_num16, .-append_num16
 466              		.section	.text.append_num32_FC,"ax",%progbits
 467              		.align	2
 468              		.global	append_num32_FC
 469              		.code	16
 470              		.thumb_func
 471              		.type	append_num32_FC, %function
 472              	append_num32_FC:
 473              	.LFB43:
 284:main.c        **** void append_num32_FC(uint32_t num)
 285:main.c        **** {
 474              		.loc 1 285 0
 475              		.cfi_startproc
 476              		@ args = 0, pretend = 0, frame = 56
 477              		@ frame_needed = 0, uses_anonymous_args = 0
 478              	.LVL28:
 479 0000 70B5     		push	{r4, r5, r6, lr}
 480              		.cfi_def_cfa_offset 16
 481              		.cfi_offset 4, -16
 482              		.cfi_offset 5, -12
 483              		.cfi_offset 6, -8
 484              		.cfi_offset 14, -4
 485 0002 8EB0     		sub	sp, sp, #56
 486              		.cfi_def_cfa_offset 72
 286:main.c        ****   uint8 count[10];
 287:main.c        ****   uint32 base[10];
 288:main.c        ****   char nonzero_found;
 289:main.c        ****   int8 digit;
 290:main.c        ****   char temp[2];
 291:main.c        **** 
 292:main.c        ****   base[0] = 1;
 487              		.loc 1 292 0
 488 0004 0123     		movs	r3, #1
 489 0006 0193     		str	r3, [sp, #4]
 293:main.c        ****   base[1] = 10;
 490              		.loc 1 293 0
 491 0008 0933     		adds	r3, r3, #9
 492 000a 0293     		str	r3, [sp, #8]
 294:main.c        ****   base[2] = 100;
 493              		.loc 1 294 0
ARM GAS  C:\Users\SAIKAR~1\AppData\Local\Temp\ccYUKoGs.s 			page 15


 494 000c 5A33     		adds	r3, r3, #90
 495 000e 0393     		str	r3, [sp, #12]
 295:main.c        ****   base[3] = 1000;
 496              		.loc 1 295 0
 497 0010 FA23     		movs	r3, #250
 498 0012 9B00     		lsls	r3, r3, #2
 499 0014 0493     		str	r3, [sp, #16]
 296:main.c        ****   base[4] = 10000;
 500              		.loc 1 296 0
 501 0016 1E4B     		ldr	r3, .L45
 502 0018 0593     		str	r3, [sp, #20]
 297:main.c        ****   base[5] = 100000;
 503              		.loc 1 297 0
 504 001a 1E4B     		ldr	r3, .L45+4
 505 001c 0693     		str	r3, [sp, #24]
 298:main.c        ****   base[6] = 1000000;
 506              		.loc 1 298 0
 507 001e 1E4B     		ldr	r3, .L45+8
 508 0020 0793     		str	r3, [sp, #28]
 299:main.c        ****   base[7] = 10000000;
 509              		.loc 1 299 0
 510 0022 1E4B     		ldr	r3, .L45+12
 511 0024 0893     		str	r3, [sp, #32]
 300:main.c        ****   base[8] = 100000000;
 512              		.loc 1 300 0
 513 0026 1E4B     		ldr	r3, .L45+16
 514 0028 0993     		str	r3, [sp, #36]
 301:main.c        ****   base[9] = 1000000000;
 515              		.loc 1 301 0
 516 002a 1E4B     		ldr	r3, .L45+20
 517 002c 0A93     		str	r3, [sp, #40]
 518              	.LVL29:
 302:main.c        ****   temp[1] = 0;       // null terminate
 303:main.c        ****   nonzero_found = 0; // flag as to when to print digit
 304:main.c        **** 
 305:main.c        ****   for (digit = 9; digit >= 0; digit--)
 519              		.loc 1 305 0
 520 002e 0925     		movs	r5, #9
 303:main.c        **** 
 521              		.loc 1 303 0
 522 0030 0026     		movs	r6, #0
 523              		.loc 1 305 0
 524 0032 23E0     		b	.L39
 525              	.LVL30:
 526              	.L44:
 306:main.c        ****   {
 307:main.c        ****     count[digit] = 0;
 527              		.loc 1 307 0
 528 0034 2A00     		movs	r2, r5
 529 0036 0021     		movs	r1, #0
 530 0038 0BAB     		add	r3, sp, #44
 531 003a 5955     		strb	r1, [r3, r5]
 308:main.c        ****     while (num >= base[digit])
 532              		.loc 1 308 0
 533 003c 04E0     		b	.L40
 534              	.L41:
 309:main.c        ****     {
ARM GAS  C:\Users\SAIKAR~1\AppData\Local\Temp\ccYUKoGs.s 			page 16


 310:main.c        ****       count[digit]++;
 535              		.loc 1 310 0
 536 003e 0BAC     		add	r4, sp, #44
 537 0040 A35C     		ldrb	r3, [r4, r2]
 538 0042 0133     		adds	r3, r3, #1
 539 0044 A354     		strb	r3, [r4, r2]
 311:main.c        ****       num -= base[digit];
 540              		.loc 1 311 0
 541 0046 401A     		subs	r0, r0, r1
 542              	.LVL31:
 543              	.L40:
 308:main.c        ****     while (num >= base[digit])
 544              		.loc 1 308 0
 545 0048 9300     		lsls	r3, r2, #2
 546 004a 01A9     		add	r1, sp, #4
 547 004c 5958     		ldr	r1, [r3, r1]
 548 004e 8842     		cmp	r0, r1
 549 0050 F5D2     		bcs	.L41
 312:main.c        ****     }
 313:main.c        ****     if ((count[digit]) || (nonzero_found) || (digit == 0))
 550              		.loc 1 313 0
 551 0052 0BAB     		add	r3, sp, #44
 552 0054 9B5C     		ldrb	r3, [r3, r2]
 553 0056 3200     		movs	r2, r6
 554 0058 1A43     		orrs	r2, r3
 555 005a 01D1     		bne	.L42
 556              		.loc 1 313 0 is_stmt 0 discriminator 1
 557 005c 002D     		cmp	r5, #0
 558 005e 0BD1     		bne	.L43
 559              	.L42:
 560              	.LVL32:
 314:main.c        ****     {
 315:main.c        ****       nonzero_found = 1;
 316:main.c        ****       temp[0] = (char)(count[digit] + 48);
 561              		.loc 1 316 0 is_stmt 1
 562 0060 3033     		adds	r3, r3, #48
 563 0062 DBB2     		uxtb	r3, r3
 317:main.c        ****       fc_msg[fc_msg_ptr_head] = temp[0];
 564              		.loc 1 317 0
 565 0064 104A     		ldr	r2, .L45+24
 566 0066 5178     		ldrb	r1, [r2, #1]
 567 0068 C9B2     		uxtb	r1, r1
 568 006a 104C     		ldr	r4, .L45+28
 569 006c 6354     		strb	r3, [r4, r1]
 318:main.c        ****       fc_msg_ptr_head = ((fc_msg_ptr_head + 1) & 0x00FF); // modulo 256
 570              		.loc 1 318 0
 571 006e 5378     		ldrb	r3, [r2, #1]
 572 0070 0133     		adds	r3, r3, #1
 573 0072 DBB2     		uxtb	r3, r3
 574 0074 5370     		strb	r3, [r2, #1]
 315:main.c        ****       temp[0] = (char)(count[digit] + 48);
 575              		.loc 1 315 0
 576 0076 0126     		movs	r6, #1
 577              	.LVL33:
 578              	.L43:
 305:main.c        ****   {
 579              		.loc 1 305 0 discriminator 2
ARM GAS  C:\Users\SAIKAR~1\AppData\Local\Temp\ccYUKoGs.s 			page 17


 580 0078 013D     		subs	r5, r5, #1
 581              	.LVL34:
 582 007a 6DB2     		sxtb	r5, r5
 583              	.LVL35:
 584              	.L39:
 305:main.c        ****   {
 585              		.loc 1 305 0 is_stmt 0 discriminator 1
 586 007c 002D     		cmp	r5, #0
 587 007e D9DA     		bge	.L44
 319:main.c        ****     }
 320:main.c        ****   }
 321:main.c        ****   fc_msg[fc_msg_ptr_head] = 0x00; // null terminate
 588              		.loc 1 321 0 is_stmt 1
 589 0080 094B     		ldr	r3, .L45+24
 590 0082 5B78     		ldrb	r3, [r3, #1]
 591 0084 DBB2     		uxtb	r3, r3
 592 0086 0021     		movs	r1, #0
 593 0088 084A     		ldr	r2, .L45+28
 594 008a D154     		strb	r1, [r2, r3]
 322:main.c        **** }
 595              		.loc 1 322 0
 596 008c 0EB0     		add	sp, sp, #56
 597              		@ sp needed
 598              	.LVL36:
 599              	.LVL37:
 600 008e 70BD     		pop	{r4, r5, r6, pc}
 601              	.L46:
 602              		.align	2
 603              	.L45:
 604 0090 10270000 		.word	10000
 605 0094 A0860100 		.word	100000
 606 0098 40420F00 		.word	1000000
 607 009c 80969800 		.word	10000000
 608 00a0 00E1F505 		.word	100000000
 609 00a4 00CA9A3B 		.word	1000000000
 610 00a8 00000000 		.word	.LANCHOR0
 611 00ac 00000000 		.word	fc_msg
 612              		.cfi_endproc
 613              	.LFE43:
 614              		.size	append_num32_FC, .-append_num32_FC
 615              		.section	.text.append_num32,"ax",%progbits
 616              		.align	2
 617              		.global	append_num32
 618              		.code	16
 619              		.thumb_func
 620              		.type	append_num32, %function
 621              	append_num32:
 622              	.LFB44:
 323:main.c        **** 
 324:main.c        **** void append_num32(uint32_t num)
 325:main.c        **** {
 623              		.loc 1 325 0
 624              		.cfi_startproc
 625              		@ args = 0, pretend = 0, frame = 56
 626              		@ frame_needed = 0, uses_anonymous_args = 0
 627              	.LVL38:
 628 0000 70B5     		push	{r4, r5, r6, lr}
ARM GAS  C:\Users\SAIKAR~1\AppData\Local\Temp\ccYUKoGs.s 			page 18


 629              		.cfi_def_cfa_offset 16
 630              		.cfi_offset 4, -16
 631              		.cfi_offset 5, -12
 632              		.cfi_offset 6, -8
 633              		.cfi_offset 14, -4
 634 0002 8EB0     		sub	sp, sp, #56
 635              		.cfi_def_cfa_offset 72
 326:main.c        ****   uint8 count[10];
 327:main.c        ****   uint32 base[10];
 328:main.c        ****   char nonzero_found;
 329:main.c        ****   int8 digit;
 330:main.c        ****   char temp[2];
 331:main.c        **** 
 332:main.c        ****   base[0] = 1;
 636              		.loc 1 332 0
 637 0004 0123     		movs	r3, #1
 638 0006 0193     		str	r3, [sp, #4]
 333:main.c        ****   base[1] = 10;
 639              		.loc 1 333 0
 640 0008 0933     		adds	r3, r3, #9
 641 000a 0293     		str	r3, [sp, #8]
 334:main.c        ****   base[2] = 100;
 642              		.loc 1 334 0
 643 000c 5A33     		adds	r3, r3, #90
 644 000e 0393     		str	r3, [sp, #12]
 335:main.c        ****   base[3] = 1000;
 645              		.loc 1 335 0
 646 0010 FA23     		movs	r3, #250
 647 0012 9B00     		lsls	r3, r3, #2
 648 0014 0493     		str	r3, [sp, #16]
 336:main.c        ****   base[4] = 10000;
 649              		.loc 1 336 0
 650 0016 1E4B     		ldr	r3, .L54
 651 0018 0593     		str	r3, [sp, #20]
 337:main.c        ****   base[5] = 100000;
 652              		.loc 1 337 0
 653 001a 1E4B     		ldr	r3, .L54+4
 654 001c 0693     		str	r3, [sp, #24]
 338:main.c        ****   base[6] = 1000000;
 655              		.loc 1 338 0
 656 001e 1E4B     		ldr	r3, .L54+8
 657 0020 0793     		str	r3, [sp, #28]
 339:main.c        ****   base[7] = 10000000;
 658              		.loc 1 339 0
 659 0022 1E4B     		ldr	r3, .L54+12
 660 0024 0893     		str	r3, [sp, #32]
 340:main.c        ****   base[8] = 100000000;
 661              		.loc 1 340 0
 662 0026 1E4B     		ldr	r3, .L54+16
 663 0028 0993     		str	r3, [sp, #36]
 341:main.c        ****   base[9] = 1000000000;
 664              		.loc 1 341 0
 665 002a 1E4B     		ldr	r3, .L54+20
 666 002c 0A93     		str	r3, [sp, #40]
 667              	.LVL39:
 342:main.c        ****   temp[1] = 0;       // null terminate
 343:main.c        ****   nonzero_found = 0; // flag as to when to print digit
ARM GAS  C:\Users\SAIKAR~1\AppData\Local\Temp\ccYUKoGs.s 			page 19


 344:main.c        **** 
 345:main.c        ****   for (digit = 9; digit >= 0; digit--)
 668              		.loc 1 345 0
 669 002e 0925     		movs	r5, #9
 343:main.c        **** 
 670              		.loc 1 343 0
 671 0030 0026     		movs	r6, #0
 672              		.loc 1 345 0
 673 0032 23E0     		b	.L48
 674              	.LVL40:
 675              	.L53:
 346:main.c        ****   {
 347:main.c        ****     count[digit] = 0;
 676              		.loc 1 347 0
 677 0034 2A00     		movs	r2, r5
 678 0036 0021     		movs	r1, #0
 679 0038 0BAB     		add	r3, sp, #44
 680 003a 5955     		strb	r1, [r3, r5]
 348:main.c        ****     while (num >= base[digit])
 681              		.loc 1 348 0
 682 003c 04E0     		b	.L49
 683              	.L50:
 349:main.c        ****     {
 350:main.c        ****       count[digit]++;
 684              		.loc 1 350 0
 685 003e 0BAC     		add	r4, sp, #44
 686 0040 A35C     		ldrb	r3, [r4, r2]
 687 0042 0133     		adds	r3, r3, #1
 688 0044 A354     		strb	r3, [r4, r2]
 351:main.c        ****       num -= base[digit];
 689              		.loc 1 351 0
 690 0046 401A     		subs	r0, r0, r1
 691              	.LVL41:
 692              	.L49:
 348:main.c        ****     while (num >= base[digit])
 693              		.loc 1 348 0
 694 0048 9300     		lsls	r3, r2, #2
 695 004a 01A9     		add	r1, sp, #4
 696 004c 5958     		ldr	r1, [r3, r1]
 697 004e 8842     		cmp	r0, r1
 698 0050 F5D2     		bcs	.L50
 352:main.c        ****     }
 353:main.c        ****     if ((count[digit]) || (nonzero_found) || (digit == 0))
 699              		.loc 1 353 0
 700 0052 0BAB     		add	r3, sp, #44
 701 0054 9B5C     		ldrb	r3, [r3, r2]
 702 0056 3200     		movs	r2, r6
 703 0058 1A43     		orrs	r2, r3
 704 005a 01D1     		bne	.L51
 705              		.loc 1 353 0 is_stmt 0 discriminator 1
 706 005c 002D     		cmp	r5, #0
 707 005e 0BD1     		bne	.L52
 708              	.L51:
 709              	.LVL42:
 354:main.c        ****     {
 355:main.c        ****       nonzero_found = 1;
 356:main.c        ****       temp[0] = (char)(count[digit] + 48);
ARM GAS  C:\Users\SAIKAR~1\AppData\Local\Temp\ccYUKoGs.s 			page 20


 710              		.loc 1 356 0 is_stmt 1
 711 0060 3033     		adds	r3, r3, #48
 712 0062 DBB2     		uxtb	r3, r3
 357:main.c        ****       debug_msg[msg_ptr_head] = temp[0];
 713              		.loc 1 357 0
 714 0064 104A     		ldr	r2, .L54+24
 715 0066 D178     		ldrb	r1, [r2, #3]
 716 0068 C9B2     		uxtb	r1, r1
 717 006a 104C     		ldr	r4, .L54+28
 718 006c 6354     		strb	r3, [r4, r1]
 358:main.c        ****       msg_ptr_head = ((msg_ptr_head + 1) & 0x00FF); // modulo 256
 719              		.loc 1 358 0
 720 006e D378     		ldrb	r3, [r2, #3]
 721 0070 0133     		adds	r3, r3, #1
 722 0072 DBB2     		uxtb	r3, r3
 723 0074 D370     		strb	r3, [r2, #3]
 355:main.c        ****       temp[0] = (char)(count[digit] + 48);
 724              		.loc 1 355 0
 725 0076 0126     		movs	r6, #1
 726              	.LVL43:
 727              	.L52:
 345:main.c        ****   {
 728              		.loc 1 345 0 discriminator 2
 729 0078 013D     		subs	r5, r5, #1
 730              	.LVL44:
 731 007a 6DB2     		sxtb	r5, r5
 732              	.LVL45:
 733              	.L48:
 345:main.c        ****   {
 734              		.loc 1 345 0 is_stmt 0 discriminator 1
 735 007c 002D     		cmp	r5, #0
 736 007e D9DA     		bge	.L53
 359:main.c        ****     }
 360:main.c        ****   }
 361:main.c        ****   debug_msg[msg_ptr_head] = 0x00; // null terminate
 737              		.loc 1 361 0 is_stmt 1
 738 0080 094B     		ldr	r3, .L54+24
 739 0082 DB78     		ldrb	r3, [r3, #3]
 740 0084 DBB2     		uxtb	r3, r3
 741 0086 0021     		movs	r1, #0
 742 0088 084A     		ldr	r2, .L54+28
 743 008a D154     		strb	r1, [r2, r3]
 362:main.c        **** }
 744              		.loc 1 362 0
 745 008c 0EB0     		add	sp, sp, #56
 746              		@ sp needed
 747              	.LVL46:
 748              	.LVL47:
 749 008e 70BD     		pop	{r4, r5, r6, pc}
 750              	.L55:
 751              		.align	2
 752              	.L54:
 753 0090 10270000 		.word	10000
 754 0094 A0860100 		.word	100000
 755 0098 40420F00 		.word	1000000
 756 009c 80969800 		.word	10000000
 757 00a0 00E1F505 		.word	100000000
ARM GAS  C:\Users\SAIKAR~1\AppData\Local\Temp\ccYUKoGs.s 			page 21


 758 00a4 00CA9A3B 		.word	1000000000
 759 00a8 00000000 		.word	.LANCHOR0
 760 00ac 00000000 		.word	debug_msg
 761              		.cfi_endproc
 762              	.LFE44:
 763              		.size	append_num32, .-append_num32
 764              		.global	__aeabi_dcmplt
 765              		.global	__aeabi_d2uiz
 766              		.global	__aeabi_ui2d
 767              		.global	__aeabi_dsub
 768              		.global	__aeabi_dmul
 769              		.global	__aeabi_d2iz
 770              		.global	__aeabi_i2d
 771              		.section	.text.append_float_FC,"ax",%progbits
 772              		.align	2
 773              		.global	append_float_FC
 774              		.code	16
 775              		.thumb_func
 776              		.type	append_float_FC, %function
 777              	append_float_FC:
 778              	.LFB45:
 363:main.c        **** 
 364:main.c        **** void append_float_FC(double val, int precision)
 365:main.c        **** {
 779              		.loc 1 365 0
 780              		.cfi_startproc
 781              		@ args = 0, pretend = 0, frame = 8
 782              		@ frame_needed = 0, uses_anonymous_args = 0
 783              	.LVL48:
 784 0000 F0B5     		push	{r4, r5, r6, r7, lr}
 785              		.cfi_def_cfa_offset 20
 786              		.cfi_offset 4, -20
 787              		.cfi_offset 5, -16
 788              		.cfi_offset 6, -12
 789              		.cfi_offset 7, -8
 790              		.cfi_offset 14, -4
 791 0002 83B0     		sub	sp, sp, #12
 792              		.cfi_def_cfa_offset 32
 793 0004 0500     		movs	r5, r0
 794 0006 0C00     		movs	r4, r1
 795 0008 1600     		movs	r6, r2
 366:main.c        ****   if (val < 0)
 796              		.loc 1 366 0
 797 000a 0022     		movs	r2, #0
 798              	.LVL49:
 799 000c 0023     		movs	r3, #0
 800 000e 2800     		movs	r0, r5
 801              	.LVL50:
 802 0010 2100     		movs	r1, r4
 803 0012 FFF7FEFF 		bl	__aeabi_dcmplt
 804              	.LVL51:
 805 0016 0028     		cmp	r0, #0
 806 0018 06D0     		beq	.L57
 367:main.c        ****   {
 368:main.c        ****     append_char_FC('-');
 807              		.loc 1 368 0
 808 001a 2D20     		movs	r0, #45
ARM GAS  C:\Users\SAIKAR~1\AppData\Local\Temp\ccYUKoGs.s 			page 22


 809 001c FFF7FEFF 		bl	append_char_FC
 810              	.LVL52:
 369:main.c        ****     val = -val;
 811              		.loc 1 369 0
 812 0020 8023     		movs	r3, #128
 813 0022 1B06     		lsls	r3, r3, #24
 814 0024 9C46     		mov	ip, r3
 815 0026 6444     		add	r4, r4, ip
 816              	.LVL53:
 817              	.L57:
 370:main.c        ****   }
 371:main.c        **** 
 372:main.c        ****   uint32_t int_part = (uint32_t)val;
 818              		.loc 1 372 0
 819 0028 2800     		movs	r0, r5
 820 002a 2100     		movs	r1, r4
 821 002c FFF7FEFF 		bl	__aeabi_d2uiz
 822              	.LVL54:
 823 0030 0700     		movs	r7, r0
 824              	.LVL55:
 373:main.c        ****   append_num32_FC(int_part);
 825              		.loc 1 373 0
 826 0032 FFF7FEFF 		bl	append_num32_FC
 827              	.LVL56:
 374:main.c        ****   append_char_FC('.');
 828              		.loc 1 374 0
 829 0036 2E20     		movs	r0, #46
 830 0038 FFF7FEFF 		bl	append_char_FC
 831              	.LVL57:
 375:main.c        **** 
 376:main.c        ****   double frac_part = val - int_part;
 832              		.loc 1 376 0
 833 003c 3800     		movs	r0, r7
 834 003e FFF7FEFF 		bl	__aeabi_ui2d
 835              	.LVL58:
 836 0042 0200     		movs	r2, r0
 837 0044 0B00     		movs	r3, r1
 838 0046 2800     		movs	r0, r5
 839 0048 2100     		movs	r1, r4
 840 004a FFF7FEFF 		bl	__aeabi_dsub
 841              	.LVL59:
 842              	.LBB2:
 377:main.c        ****   for (int i = 0; i < precision; i++) {
 843              		.loc 1 377 0
 844 004e 0024     		movs	r4, #0
 845              	.LVL60:
 846 0050 17E0     		b	.L59
 847              	.LVL61:
 848              	.L60:
 849              	.LBB3:
 378:main.c        ****     frac_part *= 10.0;
 850              		.loc 1 378 0 discriminator 3
 851 0052 0022     		movs	r2, #0
 852 0054 0D4B     		ldr	r3, .L62
 853 0056 FFF7FEFF 		bl	__aeabi_dmul
 854              	.LVL62:
 379:main.c        ****     int digit = (int)frac_part;
ARM GAS  C:\Users\SAIKAR~1\AppData\Local\Temp\ccYUKoGs.s 			page 23


 855              		.loc 1 379 0 discriminator 3
 856 005a 0090     		str	r0, [sp]
 857 005c 0191     		str	r1, [sp, #4]
 858 005e FFF7FEFF 		bl	__aeabi_d2iz
 859              	.LVL63:
 860 0062 0700     		movs	r7, r0
 861              	.LVL64:
 380:main.c        ****     append_char_FC((char)(digit + '0'));
 862              		.loc 1 380 0 discriminator 3
 863 0064 0300     		movs	r3, r0
 864 0066 3033     		adds	r3, r3, #48
 865 0068 D8B2     		uxtb	r0, r3
 866              	.LVL65:
 867 006a FFF7FEFF 		bl	append_char_FC
 868              	.LVL66:
 381:main.c        ****     frac_part -= digit;
 869              		.loc 1 381 0 discriminator 3
 870 006e 3800     		movs	r0, r7
 871 0070 FFF7FEFF 		bl	__aeabi_i2d
 872              	.LVL67:
 873 0074 0200     		movs	r2, r0
 874 0076 0B00     		movs	r3, r1
 875 0078 0098     		ldr	r0, [sp]
 876 007a 0199     		ldr	r1, [sp, #4]
 877 007c FFF7FEFF 		bl	__aeabi_dsub
 878              	.LVL68:
 879              	.LBE3:
 377:main.c        ****     frac_part *= 10.0;
 880              		.loc 1 377 0 discriminator 3
 881 0080 0134     		adds	r4, r4, #1
 882              	.LVL69:
 883              	.L59:
 377:main.c        ****     frac_part *= 10.0;
 884              		.loc 1 377 0 is_stmt 0 discriminator 1
 885 0082 B442     		cmp	r4, r6
 886 0084 E5DB     		blt	.L60
 887              	.LBE2:
 382:main.c        ****   }
 383:main.c        **** }
 888              		.loc 1 383 0 is_stmt 1
 889 0086 03B0     		add	sp, sp, #12
 890              		@ sp needed
 891              	.LVL70:
 892              	.LVL71:
 893 0088 F0BD     		pop	{r4, r5, r6, r7, pc}
 894              	.L63:
 895 008a C046     		.align	2
 896              	.L62:
 897 008c 00002440 		.word	1076101120
 898              		.cfi_endproc
 899              	.LFE45:
 900              		.size	append_float_FC, .-append_float_FC
 901              		.section	.text.set_GP_timer,"ax",%progbits
 902              		.align	2
 903              		.global	set_GP_timer
 904              		.code	16
 905              		.thumb_func
ARM GAS  C:\Users\SAIKAR~1\AppData\Local\Temp\ccYUKoGs.s 			page 24


 906              		.type	set_GP_timer, %function
 907              	set_GP_timer:
 908              	.LFB46:
 384:main.c        **** 
 385:main.c        **** void set_GP_timer(timer_evt_t EVT, uint16_t ticks)
 386:main.c        **** ////////////////////////////////////////////
 387:main.c        **** // Every count of ticks = 1/64 of second //
 388:main.c        **** //////////////////////////////////////////
 389:main.c        **** {
 909              		.loc 1 389 0
 910              		.cfi_startproc
 911              		@ args = 0, pretend = 0, frame = 0
 912              		@ frame_needed = 0, uses_anonymous_args = 0
 913              	.LVL72:
 914 0000 70B5     		push	{r4, r5, r6, lr}
 915              		.cfi_def_cfa_offset 16
 916              		.cfi_offset 4, -16
 917              		.cfi_offset 5, -12
 918              		.cfi_offset 6, -8
 919              		.cfi_offset 14, -4
 920 0002 0400     		movs	r4, r0
 390:main.c        ****   uint8_t indx;
 391:main.c        **** 
 392:main.c        ****   if (num_GP_timers < 5)
 921              		.loc 1 392 0
 922 0004 134B     		ldr	r3, .L72
 923 0006 1D79     		ldrb	r5, [r3, #4]
 924 0008 042D     		cmp	r5, #4
 925 000a 0CD9     		bls	.L70
 926 000c 18E0     		b	.L71
 927              	.LVL73:
 928              	.L68:
 393:main.c        ****   {
 394:main.c        ****     indx = 0;
 395:main.c        ****     //////  Look for a timer of that EVT type already and update time ////
 396:main.c        ****     while (indx < num_GP_timers)
 397:main.c        ****     {
 398:main.c        ****       if (GP_timer[indx].evt == EVT)
 929              		.loc 1 398 0
 930 000e 9A00     		lsls	r2, r3, #2
 931 0010 1148     		ldr	r0, .L72+4
 932 0012 125C     		ldrb	r2, [r2, r0]
 933 0014 A242     		cmp	r2, r4
 934 0016 03D1     		bne	.L67
 399:main.c        ****       {
 400:main.c        ****         // append_msg("updating timer");
 401:main.c        ****         // append_num16((uint16_t)(EVT));
 402:main.c        ****         // append_msg("\r\n");
 403:main.c        ****         GP_timer[indx].time = ticks;
 935              		.loc 1 403 0
 936 0018 9B00     		lsls	r3, r3, #2
 937              	.LVL74:
 938 001a C318     		adds	r3, r0, r3
 939 001c 5980     		strh	r1, [r3, #2]
 940              	.LVL75:
 404:main.c        ****         indx = 5; // set greater as indication of found
 941              		.loc 1 404 0
ARM GAS  C:\Users\SAIKAR~1\AppData\Local\Temp\ccYUKoGs.s 			page 25


 942 001e 0523     		movs	r3, #5
 943              	.LVL76:
 944              	.L67:
 405:main.c        ****       }
 406:main.c        ****       indx++;
 945              		.loc 1 406 0
 946 0020 0133     		adds	r3, r3, #1
 947              	.LVL77:
 948 0022 DBB2     		uxtb	r3, r3
 949              	.LVL78:
 950 0024 00E0     		b	.L65
 951              	.LVL79:
 952              	.L70:
 953 0026 0023     		movs	r3, #0
 954              	.LVL80:
 955              	.L65:
 396:main.c        ****     {
 956              		.loc 1 396 0
 957 0028 AB42     		cmp	r3, r5
 958 002a F0D3     		bcc	.L68
 407:main.c        ****     }
 408:main.c        ****     if (indx == num_GP_timers)
 959              		.loc 1 408 0
 960 002c 11D1     		bne	.L64
 409:main.c        ****     {
 410:main.c        ****       //// This is a new timer event so create it ////
 411:main.c        ****       GP_timer[num_GP_timers].evt = EVT;
 961              		.loc 1 411 0
 962 002e 0A4A     		ldr	r2, .L72+4
 963 0030 AB00     		lsls	r3, r5, #2
 964              	.LVL81:
 965 0032 9C54     		strb	r4, [r3, r2]
 412:main.c        ****       GP_timer[num_GP_timers].time = ticks;
 966              		.loc 1 412 0
 967 0034 D318     		adds	r3, r2, r3
 968 0036 5980     		strh	r1, [r3, #2]
 413:main.c        ****       num_GP_timers++;
 969              		.loc 1 413 0
 970 0038 0135     		adds	r5, r5, #1
 971 003a 064B     		ldr	r3, .L72
 972 003c 1D71     		strb	r5, [r3, #4]
 973 003e 08E0     		b	.L64
 974              	.LVL82:
 975              	.L71:
 414:main.c        ****     }
 415:main.c        ****   }
 416:main.c        ****   else
 417:main.c        ****   {
 418:main.c        ****     append_msg("ERR: can't add timer EVT ");
 976              		.loc 1 418 0
 977 0040 0648     		ldr	r0, .L72+8
 978              	.LVL83:
 979 0042 FFF7FEFF 		bl	append_msg
 980              	.LVL84:
 419:main.c        ****     append_num16((uint16_t)(EVT));
 981              		.loc 1 419 0
 982 0046 A0B2     		uxth	r0, r4
ARM GAS  C:\Users\SAIKAR~1\AppData\Local\Temp\ccYUKoGs.s 			page 26


 983 0048 FFF7FEFF 		bl	append_num16
 984              	.LVL85:
 420:main.c        ****     append_msg("\r\n");
 985              		.loc 1 420 0
 986 004c 0448     		ldr	r0, .L72+12
 987 004e FFF7FEFF 		bl	append_msg
 988              	.LVL86:
 989              	.L64:
 421:main.c        ****   }
 422:main.c        **** }
 990              		.loc 1 422 0
 991              		@ sp needed
 992 0052 70BD     		pop	{r4, r5, r6, pc}
 993              	.L73:
 994              		.align	2
 995              	.L72:
 996 0054 00000000 		.word	.LANCHOR0
 997 0058 00000000 		.word	GP_timer
 998 005c 00000000 		.word	.LC20
 999 0060 1C000000 		.word	.LC22
 1000              		.cfi_endproc
 1001              	.LFE46:
 1002              		.size	set_GP_timer, .-set_GP_timer
 1003              		.section	.text.cancel_GP_timer,"ax",%progbits
 1004              		.align	2
 1005              		.global	cancel_GP_timer
 1006              		.code	16
 1007              		.thumb_func
 1008              		.type	cancel_GP_timer, %function
 1009              	cancel_GP_timer:
 1010              	.LFB47:
 423:main.c        **** 
 424:main.c        **** void cancel_GP_timer(timer_evt_t EVT)
 425:main.c        **** {
 1011              		.loc 1 425 0
 1012              		.cfi_startproc
 1013              		@ args = 0, pretend = 0, frame = 0
 1014              		@ frame_needed = 0, uses_anonymous_args = 0
 1015              	.LVL87:
 1016 0000 F8B5     		push	{r3, r4, r5, r6, r7, lr}
 1017              		.cfi_def_cfa_offset 24
 1018              		.cfi_offset 3, -24
 1019              		.cfi_offset 4, -20
 1020              		.cfi_offset 5, -16
 1021              		.cfi_offset 6, -12
 1022              		.cfi_offset 7, -8
 1023              		.cfi_offset 14, -4
 1024 0002 0700     		movs	r7, r0
 1025              	.LVL88:
 426:main.c        ****   uint8_t x, y;
 427:main.c        ****   uint8_t found = 0;
 1026              		.loc 1 427 0
 1027 0004 0021     		movs	r1, #0
 428:main.c        **** 
 429:main.c        ****   for (x = 0; x < num_GP_timers; x++)
 1028              		.loc 1 429 0
 1029 0006 0025     		movs	r5, #0
ARM GAS  C:\Users\SAIKAR~1\AppData\Local\Temp\ccYUKoGs.s 			page 27


 1030 0008 1DE0     		b	.L75
 1031              	.LVL89:
 1032              	.L79:
 430:main.c        ****   {
 431:main.c        ****     if (GP_timer[x].evt == EVT)
 1033              		.loc 1 431 0
 1034 000a AB00     		lsls	r3, r5, #2
 1035 000c 164A     		ldr	r2, .L81
 1036 000e 9B5C     		ldrb	r3, [r3, r2]
 1037 0010 BB42     		cmp	r3, r7
 1038 0012 16D1     		bne	.L76
 1039              	.LVL90:
 432:main.c        ****     {
 433:main.c        ****       found = 1;
 434:main.c        ****       GP_timer[x].time = 0;
 1040              		.loc 1 434 0
 1041 0014 AB00     		lsls	r3, r5, #2
 1042 0016 D318     		adds	r3, r2, r3
 1043 0018 0022     		movs	r2, #0
 1044 001a 5A80     		strh	r2, [r3, #2]
 435:main.c        ****       num_GP_timers--;
 1045              		.loc 1 435 0
 1046 001c 013E     		subs	r6, r6, #1
 1047 001e F6B2     		uxtb	r6, r6
 1048 0020 124B     		ldr	r3, .L81+4
 1049 0022 1E71     		strb	r6, [r3, #4]
 1050              	.LVL91:
 436:main.c        ****       for (y = x; y < num_GP_timers; y++)
 1051              		.loc 1 436 0
 1052 0024 2800     		movs	r0, r5
 1053 0026 09E0     		b	.L77
 1054              	.LVL92:
 1055              	.L78:
 437:main.c        ****       {
 438:main.c        ****         GP_timer[y] = GP_timer[y + 1];
 1056              		.loc 1 438 0 discriminator 3
 1057 0028 441C     		adds	r4, r0, #1
 1058 002a 0F49     		ldr	r1, .L81
 1059 002c 8000     		lsls	r0, r0, #2
 1060              	.LVL93:
 1061 002e A300     		lsls	r3, r4, #2
 1062 0030 0818     		adds	r0, r1, r0
 1063 0032 C918     		adds	r1, r1, r3
 1064 0034 0422     		movs	r2, #4
 1065 0036 FFF7FEFF 		bl	memcpy
 1066              	.LVL94:
 436:main.c        ****       for (y = x; y < num_GP_timers; y++)
 1067              		.loc 1 436 0 discriminator 3
 1068 003a E0B2     		uxtb	r0, r4
 1069              	.LVL95:
 1070              	.L77:
 436:main.c        ****       for (y = x; y < num_GP_timers; y++)
 1071              		.loc 1 436 0 is_stmt 0 discriminator 1
 1072 003c B042     		cmp	r0, r6
 1073 003e F3D3     		bcc	.L78
 433:main.c        ****       GP_timer[x].time = 0;
 1074              		.loc 1 433 0 is_stmt 1
ARM GAS  C:\Users\SAIKAR~1\AppData\Local\Temp\ccYUKoGs.s 			page 28


 1075 0040 0121     		movs	r1, #1
 1076              	.LVL96:
 1077              	.L76:
 429:main.c        ****   {
 1078              		.loc 1 429 0 discriminator 2
 1079 0042 0135     		adds	r5, r5, #1
 1080              	.LVL97:
 1081 0044 EDB2     		uxtb	r5, r5
 1082              	.LVL98:
 1083              	.L75:
 429:main.c        ****   {
 1084              		.loc 1 429 0 is_stmt 0 discriminator 1
 1085 0046 094B     		ldr	r3, .L81+4
 1086 0048 1E79     		ldrb	r6, [r3, #4]
 1087 004a B542     		cmp	r5, r6
 1088 004c DDD3     		bcc	.L79
 439:main.c        ****       }
 440:main.c        ****     }
 441:main.c        ****   }
 442:main.c        ****   if (!found)
 1089              		.loc 1 442 0 is_stmt 1
 1090 004e 0029     		cmp	r1, #0
 1091 0050 08D1     		bne	.L74
 443:main.c        ****   {
 444:main.c        ****     append_msg("WARN: could not cancel timer EVT ");
 1092              		.loc 1 444 0
 1093 0052 0748     		ldr	r0, .L81+8
 1094 0054 FFF7FEFF 		bl	append_msg
 1095              	.LVL99:
 445:main.c        ****     append_num16((uint16_t)(EVT));
 1096              		.loc 1 445 0
 1097 0058 B8B2     		uxth	r0, r7
 1098 005a FFF7FEFF 		bl	append_num16
 1099              	.LVL100:
 446:main.c        ****     append_msg("\n\r");
 1100              		.loc 1 446 0
 1101 005e 0548     		ldr	r0, .L81+12
 1102 0060 FFF7FEFF 		bl	append_msg
 1103              	.LVL101:
 1104              	.L74:
 447:main.c        ****   }
 448:main.c        **** }
 1105              		.loc 1 448 0
 1106              		@ sp needed
 1107              	.LVL102:
 1108 0064 F8BD     		pop	{r3, r4, r5, r6, r7, pc}
 1109              	.L82:
 1110 0066 C046     		.align	2
 1111              	.L81:
 1112 0068 00000000 		.word	GP_timer
 1113 006c 00000000 		.word	.LANCHOR0
 1114 0070 20000000 		.word	.LC26
 1115 0074 44000000 		.word	.LC28
 1116              		.cfi_endproc
 1117              	.LFE47:
 1118              		.size	cancel_GP_timer, .-cancel_GP_timer
 1119              		.section	.text.process_GP_timer_evt,"ax",%progbits
ARM GAS  C:\Users\SAIKAR~1\AppData\Local\Temp\ccYUKoGs.s 			page 29


 1120              		.align	2
 1121              		.global	process_GP_timer_evt
 1122              		.code	16
 1123              		.thumb_func
 1124              		.type	process_GP_timer_evt, %function
 1125              	process_GP_timer_evt:
 1126              	.LFB48:
 449:main.c        **** 
 450:main.c        **** void process_GP_timer_evt(timer_evt_t EVT)
 451:main.c        **** {
 1127              		.loc 1 451 0
 1128              		.cfi_startproc
 1129              		@ args = 0, pretend = 0, frame = 0
 1130              		@ frame_needed = 0, uses_anonymous_args = 0
 1131              	.LVL103:
 1132 0000 10B5     		push	{r4, lr}
 1133              		.cfi_def_cfa_offset 8
 1134              		.cfi_offset 4, -8
 1135              		.cfi_offset 14, -4
 1136 0002 0400     		movs	r4, r0
 452:main.c        ****   cancel_GP_timer(EVT); // cancel current timer event now we are processing it
 1137              		.loc 1 452 0
 1138 0004 FFF7FEFF 		bl	cancel_GP_timer
 1139              	.LVL104:
 453:main.c        ****   switch (EVT)
 1140              		.loc 1 453 0
 1141 0008 002C     		cmp	r4, #0
 1142 000a 03D1     		bne	.L87
 454:main.c        ****   {
 455:main.c        ****   case TIMER1:
 456:main.c        ****   {
 457:main.c        ****     append_msg("Hello World!");
 1143              		.loc 1 457 0
 1144 000c 0348     		ldr	r0, .L88
 1145 000e FFF7FEFF 		bl	append_msg
 1146              	.LVL105:
 458:main.c        ****     break;
 1147              		.loc 1 458 0
 1148 0012 02E0     		b	.L83
 1149              	.L87:
 459:main.c        ****   }
 460:main.c        **** 
 461:main.c        ****   default:
 462:main.c        ****   {
 463:main.c        ****     append_msg("ERR: unknown GP timer event\r\n");
 1150              		.loc 1 463 0
 1151 0014 0248     		ldr	r0, .L88+4
 1152 0016 FFF7FEFF 		bl	append_msg
 1153              	.LVL106:
 1154              	.L83:
 464:main.c        ****     break;
 465:main.c        ****   }
 466:main.c        ****   }
 467:main.c        **** }
 1155              		.loc 1 467 0
 1156              		@ sp needed
 1157 001a 10BD     		pop	{r4, pc}
ARM GAS  C:\Users\SAIKAR~1\AppData\Local\Temp\ccYUKoGs.s 			page 30


 1158              	.L89:
 1159              		.align	2
 1160              	.L88:
 1161 001c 48000000 		.word	.LC30
 1162 0020 58000000 		.word	.LC32
 1163              		.cfi_endproc
 1164              	.LFE48:
 1165              		.size	process_GP_timer_evt, .-process_GP_timer_evt
 1166              		.section	.text.enqueue_task,"ax",%progbits
 1167              		.align	2
 1168              		.global	enqueue_task
 1169              		.code	16
 1170              		.thumb_func
 1171              		.type	enqueue_task, %function
 1172              	enqueue_task:
 1173              	.LFB49:
 468:main.c        **** 
 469:main.c        **** void enqueue_task(task_t task_name, uint8_t priority)
 470:main.c        **** {
 1174              		.loc 1 470 0
 1175              		.cfi_startproc
 1176              		@ args = 0, pretend = 0, frame = 0
 1177              		@ frame_needed = 0, uses_anonymous_args = 0
 1178              	.LVL107:
 1179 0000 70B5     		push	{r4, r5, r6, lr}
 1180              		.cfi_def_cfa_offset 16
 1181              		.cfi_offset 4, -16
 1182              		.cfi_offset 5, -12
 1183              		.cfi_offset 6, -8
 1184              		.cfi_offset 14, -4
 1185 0002 0400     		movs	r4, r0
 471:main.c        ****   if (num_tasks < MAX_NUM_TASKS)
 1186              		.loc 1 471 0
 1187 0004 0C4B     		ldr	r3, .L93
 1188 0006 1B78     		ldrb	r3, [r3]
 1189 0008 DBB2     		uxtb	r3, r3
 1190 000a 042B     		cmp	r3, #4
 1191 000c 0DD8     		bhi	.L91
 472:main.c        ****   {
 473:main.c        ****     task_queue[num_tasks].task = task_name;
 1192              		.loc 1 473 0
 1193 000e 0A4A     		ldr	r2, .L93
 1194 0010 1078     		ldrb	r0, [r2]
 1195              	.LVL108:
 1196 0012 0A4D     		ldr	r5, .L93+4
 1197 0014 4000     		lsls	r0, r0, #1
 1198 0016 4455     		strb	r4, [r0, r5]
 474:main.c        ****     task_queue[num_tasks].priority = priority;
 1199              		.loc 1 474 0
 1200 0018 1378     		ldrb	r3, [r2]
 1201 001a 5B00     		lsls	r3, r3, #1
 1202 001c EB18     		adds	r3, r5, r3
 1203 001e 5970     		strb	r1, [r3, #1]
 475:main.c        ****     num_tasks++;
 1204              		.loc 1 475 0
 1205 0020 1378     		ldrb	r3, [r2]
 1206 0022 0133     		adds	r3, r3, #1
ARM GAS  C:\Users\SAIKAR~1\AppData\Local\Temp\ccYUKoGs.s 			page 31


 1207 0024 DBB2     		uxtb	r3, r3
 1208 0026 1370     		strb	r3, [r2]
 1209 0028 05E0     		b	.L90
 1210              	.LVL109:
 1211              	.L91:
 476:main.c        ****   }
 477:main.c        ****   else
 478:main.c        ****   {
 479:main.c        ****     append_msg("ERR: tsk Q full:");
 1212              		.loc 1 479 0
 1213 002a 0548     		ldr	r0, .L93+8
 1214              	.LVL110:
 1215 002c FFF7FEFF 		bl	append_msg
 1216              	.LVL111:
 480:main.c        ****     append_num16((uint16)task_name);
 1217              		.loc 1 480 0
 1218 0030 A0B2     		uxth	r0, r4
 1219 0032 FFF7FEFF 		bl	append_num16
 1220              	.LVL112:
 1221              	.L90:
 481:main.c        ****   }
 482:main.c        **** }
 1222              		.loc 1 482 0
 1223              		@ sp needed
 1224 0036 70BD     		pop	{r4, r5, r6, pc}
 1225              	.L94:
 1226              		.align	2
 1227              	.L93:
 1228 0038 00000000 		.word	num_tasks
 1229 003c 00000000 		.word	task_queue
 1230 0040 78000000 		.word	.LC36
 1231              		.cfi_endproc
 1232              	.LFE49:
 1233              		.size	enqueue_task, .-enqueue_task
 1234              		.section	.text.dequeue_task,"ax",%progbits
 1235              		.align	2
 1236              		.global	dequeue_task
 1237              		.code	16
 1238              		.thumb_func
 1239              		.type	dequeue_task, %function
 1240              	dequeue_task:
 1241              	.LFB50:
 483:main.c        **** 
 484:main.c        **** task_t dequeue_task(void)
 485:main.c        **** {
 1242              		.loc 1 485 0
 1243              		.cfi_startproc
 1244              		@ args = 0, pretend = 0, frame = 0
 1245              		@ frame_needed = 0, uses_anonymous_args = 0
 1246 0000 70B5     		push	{r4, r5, r6, lr}
 1247              		.cfi_def_cfa_offset 16
 1248              		.cfi_offset 4, -16
 1249              		.cfi_offset 5, -12
 1250              		.cfi_offset 6, -8
 1251              		.cfi_offset 14, -4
 486:main.c        ****   uint8 x, highest_prior, highest_location;
 487:main.c        ****   task_t highest_task;
ARM GAS  C:\Users\SAIKAR~1\AppData\Local\Temp\ccYUKoGs.s 			page 32


 488:main.c        **** 
 489:main.c        ****   if (num_tasks)
 1252              		.loc 1 489 0
 1253 0002 1F4B     		ldr	r3, .L103
 1254 0004 1B78     		ldrb	r3, [r3]
 1255 0006 002B     		cmp	r3, #0
 1256 0008 35D0     		beq	.L96
 1257              	.LVL113:
 490:main.c        ****   {
 491:main.c        ****     highest_location = 0;
 492:main.c        ****     highest_task = task_queue[0].task;
 1258              		.loc 1 492 0
 1259 000a 1E4B     		ldr	r3, .L103+4
 1260 000c 1C78     		ldrb	r4, [r3]
 1261 000e E4B2     		uxtb	r4, r4
 1262              	.LVL114:
 493:main.c        ****     highest_prior = task_queue[0].priority;
 1263              		.loc 1 493 0
 1264 0010 5878     		ldrb	r0, [r3, #1]
 1265 0012 C0B2     		uxtb	r0, r0
 1266              	.LVL115:
 491:main.c        ****     highest_task = task_queue[0].task;
 1267              		.loc 1 491 0
 1268 0014 0023     		movs	r3, #0
 494:main.c        **** 
 495:main.c        ****     for (x = 1; x < num_tasks; x++)
 1269              		.loc 1 495 0
 1270 0016 0122     		movs	r2, #1
 1271 0018 0FE0     		b	.L97
 1272              	.LVL116:
 1273              	.L99:
 496:main.c        ****     {
 497:main.c        ****       if (task_queue[x].priority < highest_prior)
 1274              		.loc 1 497 0
 1275 001a 5100     		lsls	r1, r2, #1
 1276 001c 194D     		ldr	r5, .L103+4
 1277 001e 6918     		adds	r1, r5, r1
 1278 0020 4978     		ldrb	r1, [r1, #1]
 1279 0022 C9B2     		uxtb	r1, r1
 1280 0024 8842     		cmp	r0, r1
 1281 0026 06D9     		bls	.L98
 1282              	.LVL117:
 498:main.c        ****       {
 499:main.c        ****         highest_location = x;
 500:main.c        ****         highest_prior = task_queue[x].priority;
 1283              		.loc 1 500 0
 1284 0028 5100     		lsls	r1, r2, #1
 1285 002a 6818     		adds	r0, r5, r1
 1286              	.LVL118:
 1287 002c 4078     		ldrb	r0, [r0, #1]
 1288 002e C0B2     		uxtb	r0, r0
 1289              	.LVL119:
 501:main.c        ****         highest_task = task_queue[x].task;
 1290              		.loc 1 501 0
 1291 0030 4C5D     		ldrb	r4, [r1, r5]
 1292              	.LVL120:
 1293 0032 E4B2     		uxtb	r4, r4
ARM GAS  C:\Users\SAIKAR~1\AppData\Local\Temp\ccYUKoGs.s 			page 33


 1294              	.LVL121:
 499:main.c        ****         highest_prior = task_queue[x].priority;
 1295              		.loc 1 499 0
 1296 0034 1300     		movs	r3, r2
 1297              	.LVL122:
 1298              	.L98:
 495:main.c        ****     {
 1299              		.loc 1 495 0 discriminator 2
 1300 0036 0132     		adds	r2, r2, #1
 1301              	.LVL123:
 1302 0038 D2B2     		uxtb	r2, r2
 1303              	.LVL124:
 1304              	.L97:
 495:main.c        ****     {
 1305              		.loc 1 495 0 is_stmt 0 discriminator 1
 1306 003a 1149     		ldr	r1, .L103
 1307 003c 0978     		ldrb	r1, [r1]
 1308 003e C9B2     		uxtb	r1, r1
 1309 0040 8A42     		cmp	r2, r1
 1310 0042 EAD3     		bcc	.L99
 502:main.c        ****       }
 503:main.c        ****     }
 504:main.c        ****     ////// Now delete the entry found //////
 505:main.c        ****     num_tasks--;
 1311              		.loc 1 505 0 is_stmt 1
 1312 0044 0E49     		ldr	r1, .L103
 1313 0046 0A78     		ldrb	r2, [r1]
 1314              	.LVL125:
 1315 0048 013A     		subs	r2, r2, #1
 1316 004a D2B2     		uxtb	r2, r2
 1317 004c 0A70     		strb	r2, [r1]
 1318              	.LVL126:
 506:main.c        ****     for (x = highest_location; x < num_tasks; x++)
 1319              		.loc 1 506 0
 1320 004e 0CE0     		b	.L100
 1321              	.LVL127:
 1322              	.L101:
 507:main.c        ****     {
 508:main.c        ****       task_queue[x].task = task_queue[x + 1].task;
 1323              		.loc 1 508 0 discriminator 3
 1324 0050 5D1C     		adds	r5, r3, #1
 1325 0052 0C4A     		ldr	r2, .L103+4
 1326 0054 6900     		lsls	r1, r5, #1
 1327 0056 885C     		ldrb	r0, [r1, r2]
 1328 0058 C0B2     		uxtb	r0, r0
 1329 005a 5B00     		lsls	r3, r3, #1
 1330              	.LVL128:
 1331 005c 9854     		strb	r0, [r3, r2]
 509:main.c        ****       task_queue[x].priority = task_queue[x + 1].priority;
 1332              		.loc 1 509 0 discriminator 3
 1333 005e 5118     		adds	r1, r2, r1
 1334 0060 4978     		ldrb	r1, [r1, #1]
 1335 0062 C9B2     		uxtb	r1, r1
 1336 0064 D318     		adds	r3, r2, r3
 1337 0066 5970     		strb	r1, [r3, #1]
 506:main.c        ****     for (x = highest_location; x < num_tasks; x++)
 1338              		.loc 1 506 0 discriminator 3
ARM GAS  C:\Users\SAIKAR~1\AppData\Local\Temp\ccYUKoGs.s 			page 34


 1339 0068 EBB2     		uxtb	r3, r5
 1340              	.LVL129:
 1341              	.L100:
 506:main.c        ****     for (x = highest_location; x < num_tasks; x++)
 1342              		.loc 1 506 0 is_stmt 0 discriminator 1
 1343 006a 054A     		ldr	r2, .L103
 1344 006c 1278     		ldrb	r2, [r2]
 1345 006e D2B2     		uxtb	r2, r2
 1346 0070 9342     		cmp	r3, r2
 1347 0072 EDD3     		bcc	.L101
 1348 0074 02E0     		b	.L102
 1349              	.LVL130:
 1350              	.L96:
 510:main.c        ****     }
 511:main.c        ****   }
 512:main.c        ****   else
 513:main.c        ****   {
 514:main.c        ****     append_msg("ERR: no tasks in queue to dequeue\r");
 1351              		.loc 1 514 0 is_stmt 1
 1352 0076 0448     		ldr	r0, .L103+8
 1353 0078 FFF7FEFF 		bl	append_msg
 1354              	.LVL131:
 1355              	.L102:
 515:main.c        ****   }
 516:main.c        ****   return (highest_task);
 517:main.c        **** }
 1356              		.loc 1 517 0
 1357 007c 2000     		movs	r0, r4
 1358              		@ sp needed
 1359              	.LVL132:
 1360 007e 70BD     		pop	{r4, r5, r6, pc}
 1361              	.L104:
 1362              		.align	2
 1363              	.L103:
 1364 0080 00000000 		.word	num_tasks
 1365 0084 00000000 		.word	task_queue
 1366 0088 8C000000 		.word	.LC40
 1367              		.cfi_endproc
 1368              	.LFE50:
 1369              		.size	dequeue_task, .-dequeue_task
 1370              		.section	.text.LED_display,"ax",%progbits
 1371              		.align	2
 1372              		.global	LED_display
 1373              		.code	16
 1374              		.thumb_func
 1375              		.type	LED_display, %function
 1376              	LED_display:
 1377              	.LFB52:
 518:main.c        **** 
 519:main.c        **** /////////////////////////////
 520:main.c        **** // Initialize Peripherals //
 521:main.c        **** ///////////////////////////
 522:main.c        **** void init_periphs(void)
 523:main.c        **** {
 524:main.c        ****   UART_DBG_Start(); // start debug/command interface UART
 525:main.c        ****   UART_DBG_SCB_IRQ_Start();
 526:main.c        **** 
ARM GAS  C:\Users\SAIKAR~1\AppData\Local\Temp\ccYUKoGs.s 			page 35


 527:main.c        ****   UART_GPS_Start(); // start UART for GPS interface
 528:main.c        ****   UART_GPS_SCB_IRQ_Start();
 529:main.c        **** 
 530:main.c        ****   UART_FC_Start();
 531:main.c        ****   UART_FC_SCB_IRQ_Start();
 532:main.c        **** 
 533:main.c        ****   WDT_ISR_Start();
 534:main.c        ****   LED_display(0x00);
 535:main.c        **** }
 536:main.c        **** 
 537:main.c        **** void LED_display(uint8_t LEDs)
 538:main.c        **** {
 1378              		.loc 1 538 0
 1379              		.cfi_startproc
 1380              		@ args = 0, pretend = 0, frame = 0
 1381              		@ frame_needed = 0, uses_anonymous_args = 0
 1382              	.LVL133:
 1383 0000 10B5     		push	{r4, lr}
 1384              		.cfi_def_cfa_offset 8
 1385              		.cfi_offset 4, -8
 1386              		.cfi_offset 14, -4
 1387 0002 0400     		movs	r4, r0
 539:main.c        ****   if (LEDs & 0x40)
 1388              		.loc 1 539 0
 1389 0004 4306     		lsls	r3, r0, #25
 1390 0006 03D5     		bpl	.L106
 540:main.c        ****     LED6_Write(0x01);
 1391              		.loc 1 540 0
 1392 0008 0120     		movs	r0, #1
 1393              	.LVL134:
 1394 000a FFF7FEFF 		bl	LED6_Write
 1395              	.LVL135:
 1396 000e 02E0     		b	.L107
 1397              	.LVL136:
 1398              	.L106:
 541:main.c        ****   else
 542:main.c        ****     LED6_Write(0x00);
 1399              		.loc 1 542 0
 1400 0010 0020     		movs	r0, #0
 1401              	.LVL137:
 1402 0012 FFF7FEFF 		bl	LED6_Write
 1403              	.LVL138:
 1404              	.L107:
 543:main.c        ****   if (LEDs & 0x20)
 1405              		.loc 1 543 0
 1406 0016 A306     		lsls	r3, r4, #26
 1407 0018 03D5     		bpl	.L108
 544:main.c        ****     LED5_Write(0x01);
 1408              		.loc 1 544 0
 1409 001a 0120     		movs	r0, #1
 1410 001c FFF7FEFF 		bl	LED5_Write
 1411              	.LVL139:
 1412 0020 02E0     		b	.L109
 1413              	.L108:
 545:main.c        ****   else
 546:main.c        ****     LED5_Write(0x00);
 1414              		.loc 1 546 0
ARM GAS  C:\Users\SAIKAR~1\AppData\Local\Temp\ccYUKoGs.s 			page 36


 1415 0022 0020     		movs	r0, #0
 1416 0024 FFF7FEFF 		bl	LED5_Write
 1417              	.LVL140:
 1418              	.L109:
 547:main.c        ****   if (LEDs & 0x10)
 1419              		.loc 1 547 0
 1420 0028 E306     		lsls	r3, r4, #27
 1421 002a 03D5     		bpl	.L110
 548:main.c        ****     LED4_Write(0x01);
 1422              		.loc 1 548 0
 1423 002c 0120     		movs	r0, #1
 1424 002e FFF7FEFF 		bl	LED4_Write
 1425              	.LVL141:
 1426 0032 02E0     		b	.L111
 1427              	.L110:
 549:main.c        ****   else
 550:main.c        ****     LED4_Write(0x00);
 1428              		.loc 1 550 0
 1429 0034 0020     		movs	r0, #0
 1430 0036 FFF7FEFF 		bl	LED4_Write
 1431              	.LVL142:
 1432              	.L111:
 551:main.c        ****   if (LEDs & 0x08)
 1433              		.loc 1 551 0
 1434 003a 2307     		lsls	r3, r4, #28
 1435 003c 03D5     		bpl	.L112
 552:main.c        ****     LED3_Write(0x01);
 1436              		.loc 1 552 0
 1437 003e 0120     		movs	r0, #1
 1438 0040 FFF7FEFF 		bl	LED3_Write
 1439              	.LVL143:
 1440 0044 02E0     		b	.L113
 1441              	.L112:
 553:main.c        ****   else
 554:main.c        ****     LED3_Write(0x00);
 1442              		.loc 1 554 0
 1443 0046 0020     		movs	r0, #0
 1444 0048 FFF7FEFF 		bl	LED3_Write
 1445              	.LVL144:
 1446              	.L113:
 555:main.c        ****   if (LEDs & 0x04)
 1447              		.loc 1 555 0
 1448 004c 6307     		lsls	r3, r4, #29
 1449 004e 03D5     		bpl	.L114
 556:main.c        ****     LED2_Write(0x01);
 1450              		.loc 1 556 0
 1451 0050 0120     		movs	r0, #1
 1452 0052 FFF7FEFF 		bl	LED2_Write
 1453              	.LVL145:
 1454 0056 02E0     		b	.L115
 1455              	.L114:
 557:main.c        ****   else
 558:main.c        ****     LED2_Write(0x00);
 1456              		.loc 1 558 0
 1457 0058 0020     		movs	r0, #0
 1458 005a FFF7FEFF 		bl	LED2_Write
 1459              	.LVL146:
ARM GAS  C:\Users\SAIKAR~1\AppData\Local\Temp\ccYUKoGs.s 			page 37


 1460              	.L115:
 559:main.c        ****   if (LEDs & 0x02)
 1461              		.loc 1 559 0
 1462 005e A307     		lsls	r3, r4, #30
 1463 0060 03D5     		bpl	.L116
 560:main.c        ****     LED1_Write(0x01);
 1464              		.loc 1 560 0
 1465 0062 0120     		movs	r0, #1
 1466 0064 FFF7FEFF 		bl	LED1_Write
 1467              	.LVL147:
 1468 0068 02E0     		b	.L117
 1469              	.L116:
 561:main.c        ****   else
 562:main.c        ****     LED1_Write(0x00);
 1470              		.loc 1 562 0
 1471 006a 0020     		movs	r0, #0
 1472 006c FFF7FEFF 		bl	LED1_Write
 1473              	.LVL148:
 1474              	.L117:
 563:main.c        ****   if (LEDs & 0x01)
 1475              		.loc 1 563 0
 1476 0070 E307     		lsls	r3, r4, #31
 1477 0072 03D5     		bpl	.L118
 564:main.c        ****     LED0_Write(0x01);
 1478              		.loc 1 564 0
 1479 0074 0120     		movs	r0, #1
 1480 0076 FFF7FEFF 		bl	LED0_Write
 1481              	.LVL149:
 1482 007a 02E0     		b	.L105
 1483              	.L118:
 565:main.c        ****   else
 566:main.c        ****     LED0_Write(0x00);
 1484              		.loc 1 566 0
 1485 007c 0020     		movs	r0, #0
 1486 007e FFF7FEFF 		bl	LED0_Write
 1487              	.LVL150:
 1488              	.L105:
 567:main.c        **** }
 1489              		.loc 1 567 0
 1490              		@ sp needed
 1491 0082 10BD     		pop	{r4, pc}
 1492              		.cfi_endproc
 1493              	.LFE52:
 1494              		.size	LED_display, .-LED_display
 1495              		.section	.text.init_periphs,"ax",%progbits
 1496              		.align	2
 1497              		.global	init_periphs
 1498              		.code	16
 1499              		.thumb_func
 1500              		.type	init_periphs, %function
 1501              	init_periphs:
 1502              	.LFB51:
 523:main.c        ****   UART_DBG_Start(); // start debug/command interface UART
 1503              		.loc 1 523 0
 1504              		.cfi_startproc
 1505              		@ args = 0, pretend = 0, frame = 0
 1506              		@ frame_needed = 0, uses_anonymous_args = 0
ARM GAS  C:\Users\SAIKAR~1\AppData\Local\Temp\ccYUKoGs.s 			page 38


 1507 0000 10B5     		push	{r4, lr}
 1508              		.cfi_def_cfa_offset 8
 1509              		.cfi_offset 4, -8
 1510              		.cfi_offset 14, -4
 524:main.c        ****   UART_DBG_SCB_IRQ_Start();
 1511              		.loc 1 524 0
 1512 0002 FFF7FEFF 		bl	UART_DBG_Start
 1513              	.LVL151:
 525:main.c        **** 
 1514              		.loc 1 525 0
 1515 0006 FFF7FEFF 		bl	UART_DBG_SCB_IRQ_Start
 1516              	.LVL152:
 527:main.c        ****   UART_GPS_SCB_IRQ_Start();
 1517              		.loc 1 527 0
 1518 000a FFF7FEFF 		bl	UART_GPS_Start
 1519              	.LVL153:
 528:main.c        **** 
 1520              		.loc 1 528 0
 1521 000e FFF7FEFF 		bl	UART_GPS_SCB_IRQ_Start
 1522              	.LVL154:
 530:main.c        ****   UART_FC_SCB_IRQ_Start();
 1523              		.loc 1 530 0
 1524 0012 FFF7FEFF 		bl	UART_FC_Start
 1525              	.LVL155:
 531:main.c        **** 
 1526              		.loc 1 531 0
 1527 0016 FFF7FEFF 		bl	UART_FC_SCB_IRQ_Start
 1528              	.LVL156:
 533:main.c        ****   LED_display(0x00);
 1529              		.loc 1 533 0
 1530 001a FFF7FEFF 		bl	WDT_ISR_Start
 1531              	.LVL157:
 534:main.c        **** }
 1532              		.loc 1 534 0
 1533 001e 0020     		movs	r0, #0
 1534 0020 FFF7FEFF 		bl	LED_display
 1535              	.LVL158:
 535:main.c        **** 
 1536              		.loc 1 535 0
 1537              		@ sp needed
 1538 0024 10BD     		pop	{r4, pc}
 1539              		.cfi_endproc
 1540              	.LFE51:
 1541              		.size	init_periphs, .-init_periphs
 1542              		.global	__aeabi_ddiv
 1543 0026 C046     		.section	.text.processDbgCmd,"ax",%progbits
 1544              		.align	2
 1545              		.global	processDbgCmd
 1546              		.code	16
 1547              		.thumb_func
 1548              		.type	processDbgCmd, %function
 1549              	processDbgCmd:
 1550              	.LFB53:
 568:main.c        **** 
 569:main.c        **** void processDbgCmd(void)
 570:main.c        **** {
 1551              		.loc 1 570 0
ARM GAS  C:\Users\SAIKAR~1\AppData\Local\Temp\ccYUKoGs.s 			page 39


 1552              		.cfi_startproc
 1553              		@ args = 0, pretend = 0, frame = 0
 1554              		@ frame_needed = 0, uses_anonymous_args = 0
 1555 0000 70B5     		push	{r4, r5, r6, lr}
 1556              		.cfi_def_cfa_offset 16
 1557              		.cfi_offset 4, -16
 1558              		.cfi_offset 5, -12
 1559              		.cfi_offset 6, -8
 1560              		.cfi_offset 14, -4
 571:main.c        ****   // append_msg_FC(rx_bytes_dbg);
 572:main.c        **** 
 573:main.c        ****   parse_gps(rx_bytes_dbg, &gps_data);
 1561              		.loc 1 573 0
 1562 0002 0C4C     		ldr	r4, .L122
 1563 0004 2100     		movs	r1, r4
 1564 0006 0C48     		ldr	r0, .L122+4
 1565 0008 FFF7FEFF 		bl	parse_gps
 1566              	.LVL159:
 574:main.c        **** 
 575:main.c        ****   /*//-----------Debug----------//
 576:main.c        ****   char latitude[35];
 577:main.c        ****   char longitude[35];
 578:main.c        ****   int valid = gps_data.is_valid;
 579:main.c        ****   snprintf(latitude, sizeof(latitude), "%" PRId32 "\n", gps_data.lat_dege6);
 580:main.c        ****   snprintf(longitude, sizeof(longitude), "%" PRId32 "\n", gps_data.lon_dege6);
 581:main.c        ****   append_msg_FC(latitude);
 582:main.c        ****   append_msg_FC(longitude);
 583:main.c        ****   append_num32_FC(valid);
 584:main.c        ****   append_msg_FC("\n--------------------\n");
 585:main.c        ****   //---------Debug----------//*/
 586:main.c        **** 
 587:main.c        ****   coords.lat = ((double)gps_data.lat_dege6) / 1000000.0;
 1567              		.loc 1 587 0
 1568 000c 2068     		ldr	r0, [r4]
 1569 000e FFF7FEFF 		bl	__aeabi_i2d
 1570              	.LVL160:
 1571 0012 0022     		movs	r2, #0
 1572 0014 094B     		ldr	r3, .L122+8
 1573 0016 FFF7FEFF 		bl	__aeabi_ddiv
 1574              	.LVL161:
 1575 001a 094D     		ldr	r5, .L122+12
 1576 001c A860     		str	r0, [r5, #8]
 1577 001e E960     		str	r1, [r5, #12]
 588:main.c        ****   coords.lon = ((double)gps_data.lon_dege6) / 1000000.0;
 1578              		.loc 1 588 0
 1579 0020 6068     		ldr	r0, [r4, #4]
 1580 0022 FFF7FEFF 		bl	__aeabi_i2d
 1581              	.LVL162:
 1582 0026 0022     		movs	r2, #0
 1583 0028 044B     		ldr	r3, .L122+8
 1584 002a FFF7FEFF 		bl	__aeabi_ddiv
 1585              	.LVL163:
 1586 002e 2861     		str	r0, [r5, #16]
 1587 0030 6961     		str	r1, [r5, #20]
 589:main.c        ****   // Debug print for coords
 590:main.c        ****   /*append_msg_FC("DBG: lat=");
 591:main.c        ****   append_float_FC(coords.lat, 6);
ARM GAS  C:\Users\SAIKAR~1\AppData\Local\Temp\ccYUKoGs.s 			page 40


 592:main.c        ****   append_msg_FC(" lon=");
 593:main.c        ****   append_float_FC(coords.lon, 6);
 594:main.c        ****   append_msg_FC("\n");*/
 595:main.c        **** 
 596:main.c        ****   // uint8_t indx;
 597:main.c        **** 
 598:main.c        ****   /* if (!strncmp("DoSomething1",rx_bytes_dbg,12)) {
 599:main.c        ****     append_msg("You typed DoSomething1\n");
 600:main.c        ****   }
 601:main.c        ****   else if (!strncmp("DoSomething2",rx_bytes_dbg,12)) {
 602:main.c        ****     append_msg("You typed DoSomething2\n");
 603:main.c        ****   }
 604:main.c        ****   else {
 605:main.c        ****       append_msg("Unrecognized command\r\n");
 606:main.c        ****       for (indx=0; indx<num_rx_bytes_dbg; indx++) {
 607:main.c        ****           append_char(rx_bytes_dbg[indx]);
 608:main.c        ****       }
 609:main.c        ****       append_msg("\n");
 610:main.c        ****   }*/
 611:main.c        **** }
 1588              		.loc 1 611 0
 1589              		@ sp needed
 1590 0032 70BD     		pop	{r4, r5, r6, pc}
 1591              	.L123:
 1592              		.align	2
 1593              	.L122:
 1594 0034 00000000 		.word	gps_data
 1595 0038 00000000 		.word	rx_bytes_dbg
 1596 003c 80842E41 		.word	1093567616
 1597 0040 00000000 		.word	.LANCHOR0
 1598              		.cfi_endproc
 1599              	.LFE53:
 1600              		.size	processDbgCmd, .-processDbgCmd
 1601              		.global	__aeabi_dcmpeq
 1602              		.section	.text.processFC_Pckt,"ax",%progbits
 1603              		.align	2
 1604              		.global	processFC_Pckt
 1605              		.code	16
 1606              		.thumb_func
 1607              		.type	processFC_Pckt, %function
 1608              	processFC_Pckt:
 1609              	.LFB54:
 612:main.c        **** 
 613:main.c        **** void processFC_Pckt(void)
 614:main.c        **** {
 1610              		.loc 1 614 0
 1611              		.cfi_startproc
 1612              		@ args = 0, pretend = 0, frame = 16
 1613              		@ frame_needed = 0, uses_anonymous_args = 0
 1614 0000 70B5     		push	{r4, r5, r6, lr}
 1615              		.cfi_def_cfa_offset 16
 1616              		.cfi_offset 4, -16
 1617              		.cfi_offset 5, -12
 1618              		.cfi_offset 6, -8
 1619              		.cfi_offset 14, -4
 1620 0002 8EB0     		sub	sp, sp, #56
 1621              		.cfi_def_cfa_offset 72
ARM GAS  C:\Users\SAIKAR~1\AppData\Local\Temp\ccYUKoGs.s 			page 41


 1622              	.LVL164:
 1623              	.LBB4:
 615:main.c        **** 
 616:main.c        ****   // cancel_GP_timer(TIMER1);
 617:main.c        ****   // append_msg("Cancelled timer1");
 618:main.c        **** 
 619:main.c        ****   uint8_t packet_type = 0x00;
 620:main.c        ****   uint8_t payload_bytes[4];
 621:main.c        ****   for (uint8_t i = 0; i < num_rx_bytes_FC - 1; i++)
 1624              		.loc 1 621 0
 1625 0004 0024     		movs	r4, #0
 1626              	.LBE4:
 619:main.c        ****   uint8_t payload_bytes[4];
 1627              		.loc 1 619 0
 1628 0006 0025     		movs	r5, #0
 1629              	.LBB6:
 1630              		.loc 1 621 0
 1631 0008 12E0     		b	.L125
 1632              	.LVL165:
 1633              	.L129:
 1634              	.LBB5:
 622:main.c        ****   {
 623:main.c        ****     append_char_FC(rx_bytes_FC[i]);
 1635              		.loc 1 623 0
 1636 000a 3F4E     		ldr	r6, .L140
 1637 000c 305D     		ldrb	r0, [r6, r4]
 1638 000e C0B2     		uxtb	r0, r0
 1639 0010 FFF7FEFF 		bl	append_char_FC
 1640              	.LVL166:
 624:main.c        ****     uint8_t value = rx_bytes_FC[i] - '0';
 1641              		.loc 1 624 0
 1642 0014 335D     		ldrb	r3, [r6, r4]
 1643 0016 303B     		subs	r3, r3, #48
 1644 0018 DBB2     		uxtb	r3, r3
 1645              	.LVL167:
 625:main.c        ****     //append_num32_FC(value);
 626:main.c        ****     //append_msg_FC("\n");
 627:main.c        ****     if (value < 0 || value > 9)
 1646              		.loc 1 627 0
 1647 001a 092B     		cmp	r3, #9
 1648 001c 03D9     		bls	.L126
 628:main.c        ****     {
 629:main.c        ****       append_msg_FC("Unreal_FC");
 1649              		.loc 1 629 0
 1650 001e 3B48     		ldr	r0, .L140+4
 1651 0020 FFF7FEFF 		bl	append_msg_FC
 1652              	.LVL168:
 630:main.c        ****       return;
 1653              		.loc 1 630 0
 1654 0024 6EE0     		b	.L124
 1655              	.LVL169:
 1656              	.L126:
 631:main.c        ****     }
 632:main.c        ****     else
 633:main.c        ****     {
 634:main.c        ****       if (i == 0)
 1657              		.loc 1 634 0
ARM GAS  C:\Users\SAIKAR~1\AppData\Local\Temp\ccYUKoGs.s 			page 42


 1658 0026 002C     		cmp	r4, #0
 1659 0028 00D1     		bne	.L128
 635:main.c        ****       {
 636:main.c        ****         packet_type = value;
 1660              		.loc 1 636 0
 1661 002a 1D00     		movs	r5, r3
 1662              	.LVL170:
 1663              	.L128:
 1664              	.LBE5:
 621:main.c        ****   {
 1665              		.loc 1 621 0 discriminator 2
 1666 002c 0134     		adds	r4, r4, #1
 1667              	.LVL171:
 1668 002e E4B2     		uxtb	r4, r4
 1669              	.LVL172:
 1670              	.L125:
 621:main.c        ****   {
 1671              		.loc 1 621 0 is_stmt 0 discriminator 1
 1672 0030 374B     		ldr	r3, .L140+8
 1673 0032 1B78     		ldrb	r3, [r3]
 1674 0034 013B     		subs	r3, r3, #1
 1675 0036 9C42     		cmp	r4, r3
 1676 0038 E7DB     		blt	.L129
 1677              	.LBE6:
 637:main.c        ****       }
 638:main.c        ****       else
 639:main.c        ****       {
 640:main.c        ****         payload_bytes[i - 1] = value;
 641:main.c        ****       }
 642:main.c        ****     }
 643:main.c        ****   }
 644:main.c        ****   /*append_num32_FC(payload_bytes[0]);
 645:main.c        ****   append_num32_FC(payload_bytes[1]);
 646:main.c        ****   append_num32_FC(payload_bytes[2]);
 647:main.c        ****   append_num32_FC(payload_bytes[3]);*/
 648:main.c        **** 
 649:main.c        ****   switch (packet_type)
 1678              		.loc 1 649 0 is_stmt 1
 1679 003a 042D     		cmp	r5, #4
 1680 003c 06D0     		beq	.L131
 1681 003e 02D8     		bhi	.L132
 1682 0040 002D     		cmp	r5, #0
 1683 0042 5CD0     		beq	.L130
 1684 0044 5EE0     		b	.L124
 1685              	.L132:
 1686 0046 052D     		cmp	r5, #5
 1687 0048 5CD0     		beq	.L124
 1688 004a 58E0     		b	.L130
 1689              	.L131:
 1690              	.LBB7:
 650:main.c        ****   {
 651:main.c        ****   case 0x01:
 652:main.c        ****   {
 653:main.c        ****     // Pilot control (learn attitude vs direction)
 654:main.c        ****   }
 655:main.c        ****   break;
 656:main.c        ****   case 0x02:
ARM GAS  C:\Users\SAIKAR~1\AppData\Local\Temp\ccYUKoGs.s 			page 43


 657:main.c        ****   {
 658:main.c        ****     // recheck attitude vs direction (pass bearing to virus/initalize navigation)
 659:main.c        ****   }
 660:main.c        ****   break;
 661:main.c        ****   case 0x03:
 662:main.c        ****   {
 663:main.c        ****     // try to hover with home coords (gather last pitch and roll commands and start virus to hover 
 664:main.c        ****     // wait to start the navigation till you have a lock on the gps coords
 665:main.c        ****   }
 666:main.c        ****   break;
 667:main.c        ****   case 0x04:
 668:main.c        ****   {
 669:main.c        ****     // Check if coords are set
 670:main.c        ****     if (coords.lat == 0.0 && coords.lon == 0.0)
 1691              		.loc 1 670 0
 1692 004c 314B     		ldr	r3, .L140+12
 1693 004e 9868     		ldr	r0, [r3, #8]
 1694 0050 D968     		ldr	r1, [r3, #12]
 1695 0052 0022     		movs	r2, #0
 1696 0054 0023     		movs	r3, #0
 1697 0056 FFF7FEFF 		bl	__aeabi_dcmpeq
 1698              	.LVL173:
 1699 005a 0028     		cmp	r0, #0
 1700 005c 0BD0     		beq	.L134
 1701              		.loc 1 670 0 is_stmt 0 discriminator 1
 1702 005e 2D4B     		ldr	r3, .L140+12
 1703 0060 1869     		ldr	r0, [r3, #16]
 1704 0062 5969     		ldr	r1, [r3, #20]
 1705 0064 0022     		movs	r2, #0
 1706 0066 0023     		movs	r3, #0
 1707 0068 FFF7FEFF 		bl	__aeabi_dcmpeq
 1708              	.LVL174:
 1709 006c 0028     		cmp	r0, #0
 1710 006e 02D0     		beq	.L134
 671:main.c        ****     {
 672:main.c        ****       append_msg_FC("Coords not set or invalid GPS\n");
 1711              		.loc 1 672 0 is_stmt 1
 1712 0070 2948     		ldr	r0, .L140+16
 1713 0072 FFF7FEFF 		bl	append_msg_FC
 1714              	.LVL175:
 1715              	.L134:
 673:main.c        ****     }
 674:main.c        ****     /*append_msg_FC("lat: ");
 675:main.c        ****     append_float_FC(coords.lat, 6);
 676:main.c        ****     append_msg_FC("\nlon: ");
 677:main.c        ****     append_float_FC(coords.lon, 6);
 678:main.c        ****     append_msg_FC("\n");*/
 679:main.c        **** 
 680:main.c        ****     double pitch_cmd;
 681:main.c        ****     double roll_cmd;
 682:main.c        ****     // stop algorithm if started and restart to navigate home
 683:main.c        ****     // reset/re-initalize the navigation and set target coords as selected home position (have a gl
 684:main.c        ****     navigator_init(
 1716              		.loc 1 684 0 discriminator 4
 1717 0076 294D     		ldr	r5, .L140+20
 1718              	.LVL176:
 1719 0078 0022     		movs	r2, #0
ARM GAS  C:\Users\SAIKAR~1\AppData\Local\Temp\ccYUKoGs.s 			page 44


 1720 007a 294B     		ldr	r3, .L140+24
 1721 007c 0892     		str	r2, [sp, #32]
 1722 007e 0993     		str	r3, [sp, #36]
 1723 0080 0022     		movs	r2, #0
 1724 0082 284B     		ldr	r3, .L140+28
 1725 0084 0692     		str	r2, [sp, #24]
 1726 0086 0793     		str	r3, [sp, #28]
 1727 0088 0492     		str	r2, [sp, #16]
 1728 008a 0593     		str	r3, [sp, #20]
 1729 008c 264A     		ldr	r2, .L140+32
 1730 008e 274B     		ldr	r3, .L140+36
 1731 0090 0292     		str	r2, [sp, #8]
 1732 0092 0393     		str	r3, [sp, #12]
 1733 0094 264A     		ldr	r2, .L140+40
 1734 0096 274B     		ldr	r3, .L140+44
 1735 0098 0092     		str	r2, [sp]
 1736 009a 0193     		str	r3, [sp, #4]
 1737 009c 264A     		ldr	r2, .L140+48
 1738 009e 274B     		ldr	r3, .L140+52
 1739 00a0 2800     		movs	r0, r5
 1740 00a2 FFF7FEFF 		bl	navigator_init
 1741              	.LVL177:
 685:main.c        ****       &virus,
 686:main.c        ****       TARGET_LAT,
 687:main.c        ****       TARGET_LON,
 688:main.c        ****       0.6,
 689:main.c        ****       15.0,
 690:main.c        ****       15.0,
 691:main.c        ****       5.0);
 692:main.c        ****     append_msg_FC("Reached case 4!");
 1742              		.loc 1 692 0 discriminator 4
 1743 00a6 2648     		ldr	r0, .L140+56
 1744 00a8 FFF7FEFF 		bl	append_msg_FC
 1745              	.LVL178:
 693:main.c        **** 
 694:main.c        ****     bool target_reached = navigator_update(
 1746              		.loc 1 694 0 discriminator 4
 1747 00ac 194C     		ldr	r4, .L140+12
 1748              	.LVL179:
 1749 00ae 0CAB     		add	r3, sp, #48
 1750 00b0 0793     		str	r3, [sp, #28]
 1751 00b2 0AAB     		add	r3, sp, #40
 1752 00b4 0693     		str	r3, [sp, #24]
 1753 00b6 234A     		ldr	r2, .L140+60
 1754 00b8 234B     		ldr	r3, .L140+64
 1755 00ba 0492     		str	r2, [sp, #16]
 1756 00bc 0593     		str	r3, [sp, #20]
 1757 00be 0022     		movs	r2, #0
 1758 00c0 0023     		movs	r3, #0
 1759 00c2 0292     		str	r2, [sp, #8]
 1760 00c4 0393     		str	r3, [sp, #12]
 1761 00c6 2100     		movs	r1, r4
 1762 00c8 1031     		adds	r1, r1, #16
 1763 00ca 0822     		movs	r2, #8
 1764 00cc 6846     		mov	r0, sp
 1765 00ce FFF7FEFF 		bl	memcpy
 1766              	.LVL180:
ARM GAS  C:\Users\SAIKAR~1\AppData\Local\Temp\ccYUKoGs.s 			page 45


 1767 00d2 A268     		ldr	r2, [r4, #8]
 1768 00d4 E368     		ldr	r3, [r4, #12]
 1769 00d6 2800     		movs	r0, r5
 1770 00d8 FFF7FEFF 		bl	navigator_update
 1771              	.LVL181:
 695:main.c        ****       &virus,
 696:main.c        ****       coords,
 697:main.c        ****       0.0, //heading to be updated after calculation (case 1)
 698:main.c        ****       DT_S,
 699:main.c        ****       &pitch_cmd,
 700:main.c        ****       &roll_cmd);
 701:main.c        ****     append_msg_FC("PITCH:");
 1772              		.loc 1 701 0 discriminator 4
 1773 00dc 1B48     		ldr	r0, .L140+68
 1774 00de FFF7FEFF 		bl	append_msg_FC
 1775              	.LVL182:
 702:main.c        ****     append_float_FC(pitch_cmd,6);
 1776              		.loc 1 702 0 discriminator 4
 1777 00e2 0622     		movs	r2, #6
 1778 00e4 0A98     		ldr	r0, [sp, #40]
 1779 00e6 0B99     		ldr	r1, [sp, #44]
 1780 00e8 FFF7FEFF 		bl	append_float_FC
 1781              	.LVL183:
 703:main.c        ****     append_msg_FC(",ROLL:");
 1782              		.loc 1 703 0 discriminator 4
 1783 00ec 1848     		ldr	r0, .L140+72
 1784 00ee FFF7FEFF 		bl	append_msg_FC
 1785              	.LVL184:
 704:main.c        ****     append_float_FC(roll_cmd, 6);
 1786              		.loc 1 704 0 discriminator 4
 1787 00f2 0622     		movs	r2, #6
 1788 00f4 0C98     		ldr	r0, [sp, #48]
 1789 00f6 0D99     		ldr	r1, [sp, #52]
 1790 00f8 FFF7FEFF 		bl	append_float_FC
 1791              	.LVL185:
 1792              	.LBE7:
 705:main.c        ****     
 706:main.c        ****   }
 707:main.c        ****   break;
 1793              		.loc 1 707 0 discriminator 4
 1794 00fc 02E0     		b	.L124
 1795              	.LVL186:
 1796              	.L130:
 708:main.c        ****   case 0x05:
 709:main.c        ****   {
 710:main.c        ****     // stop algorithm and give pilot back the control
 711:main.c        ****   }
 712:main.c        ****   break;
 713:main.c        ****   default:
 714:main.c        ****   {
 715:main.c        ****     append_msg_FC("[ERROR]Unknown_packet_type");
 1797              		.loc 1 715 0
 1798 00fe 1548     		ldr	r0, .L140+76
 1799 0100 FFF7FEFF 		bl	append_msg_FC
 1800              	.LVL187:
 1801              	.L124:
 716:main.c        ****     return;
ARM GAS  C:\Users\SAIKAR~1\AppData\Local\Temp\ccYUKoGs.s 			page 46


 717:main.c        ****   }
 718:main.c        ****   break;
 719:main.c        ****   }
 720:main.c        **** 
 721:main.c        ****   /*for (uint8_t i = 0; i < num_rx_bytes_FC; i++) {
 722:main.c        ****       fc_msg[fc_msg_ptr_head] = rx_bytes_FC[i];
 723:main.c        ****       fc_msg_ptr_head = ((fc_msg_ptr_head+1)&0x00FF);       // modulo 256
 724:main.c        ****   }
 725:main.c        ****   num_rx_bytes_FC = 0;
 726:main.c        ****   display_msg_FC();*/
 727:main.c        **** }
 1802              		.loc 1 727 0
 1803 0104 0EB0     		add	sp, sp, #56
 1804              		@ sp needed
 1805 0106 70BD     		pop	{r4, r5, r6, pc}
 1806              	.L141:
 1807              		.align	2
 1808              	.L140:
 1809 0108 00000000 		.word	rx_bytes_FC
 1810 010c B0000000 		.word	.LC46
 1811 0110 00000000 		.word	num_rx_bytes_FC
 1812 0114 00000000 		.word	.LANCHOR0
 1813 0118 BC000000 		.word	.LC50
 1814 011c 00000000 		.word	virus
 1815 0120 00001440 		.word	1075052544
 1816 0124 00002E40 		.word	1076756480
 1817 0128 33333333 		.word	858993459
 1818 012c 3333E33F 		.word	1071854387
 1819 0130 52B81E85 		.word	-2061584302
 1820 0134 EB515640 		.word	1079398891
 1821 0138 48E17A14 		.word	343597384
 1822 013c AE874540 		.word	1078298542
 1823 0140 DC000000 		.word	.LC53
 1824 0144 9A999999 		.word	-1717986918
 1825 0148 9999B93F 		.word	1069128089
 1826 014c EC000000 		.word	.LC55
 1827 0150 F4000000 		.word	.LC57
 1828 0154 FC000000 		.word	.LC59
 1829              		.cfi_endproc
 1830              	.LFE54:
 1831              		.size	processFC_Pckt, .-processFC_Pckt
 1832              		.section	.text.main,"ax",%progbits
 1833              		.align	2
 1834              		.global	main
 1835              		.code	16
 1836              		.thumb_func
 1837              		.type	main, %function
 1838              	main:
 1839              	.LFB35:
  45:main.c        ****   static task_t active_task;
 1840              		.loc 1 45 0
 1841              		.cfi_startproc
 1842              		@ args = 0, pretend = 0, frame = 0
 1843              		@ frame_needed = 0, uses_anonymous_args = 0
 1844 0000 70B5     		push	{r4, r5, r6, lr}
 1845              		.cfi_def_cfa_offset 16
 1846              		.cfi_offset 4, -16
ARM GAS  C:\Users\SAIKAR~1\AppData\Local\Temp\ccYUKoGs.s 			page 47


 1847              		.cfi_offset 5, -12
 1848              		.cfi_offset 6, -8
 1849              		.cfi_offset 14, -4
  50:main.c        **** 
 1850              		.loc 1 50 0
 1851              		.syntax divided
 1852              	@ 50 "main.c" 1
 1853 0002 62B6     		CPSIE   i
 1854              	@ 0 "" 2
 1855              	.LVL188:
  55:main.c        ****   { // ensure no GP timers set
 1856              		.loc 1 55 0
 1857              		.thumb
 1858              		.syntax unified
 1859 0004 0023     		movs	r3, #0
 1860 0006 06E0     		b	.L143
 1861              	.LVL189:
 1862              	.L144:
  57:main.c        ****   }
 1863              		.loc 1 57 0 discriminator 3
 1864 0008 9A00     		lsls	r2, r3, #2
 1865 000a 4449     		ldr	r1, .L159
 1866 000c 8A18     		adds	r2, r1, r2
 1867 000e 0021     		movs	r1, #0
 1868 0010 5180     		strh	r1, [r2, #2]
  55:main.c        ****   { // ensure no GP timers set
 1869              		.loc 1 55 0 discriminator 3
 1870 0012 0133     		adds	r3, r3, #1
 1871              	.LVL190:
 1872 0014 9BB2     		uxth	r3, r3
 1873              	.LVL191:
 1874              	.L143:
  55:main.c        ****   { // ensure no GP timers set
 1875              		.loc 1 55 0 is_stmt 0 discriminator 1
 1876 0016 032B     		cmp	r3, #3
 1877 0018 F6D9     		bls	.L144
  59:main.c        ****   num_rx_bytes_gps_buff = 0;
 1878              		.loc 1 59 0 is_stmt 1
 1879 001a 0023     		movs	r3, #0
 1880              	.LVL192:
 1881 001c 404A     		ldr	r2, .L159+4
 1882 001e 1370     		strb	r3, [r2]
  60:main.c        ****   num_rx_bytes_FC = 0;
 1883              		.loc 1 60 0
 1884 0020 404A     		ldr	r2, .L159+8
 1885 0022 1370     		strb	r3, [r2]
  61:main.c        **** 
 1886              		.loc 1 61 0
 1887 0024 404A     		ldr	r2, .L159+12
 1888 0026 1370     		strb	r3, [r2]
  66:main.c        **** 
 1889              		.loc 1 66 0
 1890 0028 404A     		ldr	r2, .L159+16
 1891 002a 1380     		strh	r3, [r2]
  71:main.c        **** 
 1892              		.loc 1 71 0
 1893 002c FFF7FEFF 		bl	init_periphs
ARM GAS  C:\Users\SAIKAR~1\AppData\Local\Temp\ccYUKoGs.s 			page 48


 1894              	.LVL193:
 1895              	.L145:
  82:main.c        ****     {
 1896              		.loc 1 82 0
 1897 0030 3F4B     		ldr	r3, .L159+20
 1898 0032 1B78     		ldrb	r3, [r3]
 1899 0034 002B     		cmp	r3, #0
 1900 0036 63D0     		beq	.L146
  84:main.c        ****       active_task = dequeue_task();
 1901              		.loc 1 84 0
 1902              		.syntax divided
 1903              	@ 84 "main.c" 1
 1904 0038 72B6     		CPSID   i
 1905              	@ 0 "" 2
  85:main.c        ****       CyGlobalIntEnable;
 1906              		.loc 1 85 0
 1907              		.thumb
 1908              		.syntax unified
 1909 003a FFF7FEFF 		bl	dequeue_task
 1910              	.LVL194:
 1911 003e 3D4A     		ldr	r2, .L159+24
 1912 0040 1076     		strb	r0, [r2, #24]
  86:main.c        ****       switch (active_task)
 1913              		.loc 1 86 0
 1914              		.syntax divided
 1915              	@ 86 "main.c" 1
 1916 0042 62B6     		CPSIE   i
 1917              	@ 0 "" 2
  87:main.c        ****       {
 1918              		.loc 1 87 0
 1919              		.thumb
 1920              		.syntax unified
 1921 0044 0128     		cmp	r0, #1
 1922 0046 4BD0     		beq	.L148
 1923 0048 0028     		cmp	r0, #0
 1924 004a 04D0     		beq	.L149
 1925 004c 0228     		cmp	r0, #2
 1926 004e 57D0     		beq	.L146
 1927 0050 0328     		cmp	r0, #3
 1928 0052 48D0     		beq	.L150
 1929 0054 4AE0     		b	.L158
 1930              	.L149:
  91:main.c        ****         if (tmr_dec == 199)
 1931              		.loc 1 91 0
 1932 0056 384A     		ldr	r2, .L159+28
 1933 0058 1378     		ldrb	r3, [r2]
 1934 005a 0133     		adds	r3, r3, #1
 1935 005c DBB2     		uxtb	r3, r3
 1936 005e 1370     		strb	r3, [r2]
  92:main.c        ****         { // ~1Hz rate
 1937              		.loc 1 92 0
 1938 0060 C72B     		cmp	r3, #199
 1939 0062 0AD1     		bne	.L151
  94:main.c        ****           sec++; // increment seconds
 1940              		.loc 1 94 0
 1941 0064 0022     		movs	r2, #0
 1942 0066 344B     		ldr	r3, .L159+28
ARM GAS  C:\Users\SAIKAR~1\AppData\Local\Temp\ccYUKoGs.s 			page 49


 1943 0068 1A70     		strb	r2, [r3]
  95:main.c        ****           if (sec == 6)
 1944              		.loc 1 95 0
 1945 006a 304B     		ldr	r3, .L159+16
 1946 006c 1888     		ldrh	r0, [r3]
 1947 006e 0130     		adds	r0, r0, #1
 1948 0070 80B2     		uxth	r0, r0
 1949 0072 1880     		strh	r0, [r3]
 102:main.c        ****         }
 1950              		.loc 1 102 0
 1951 0074 C0B2     		uxtb	r0, r0
 1952 0076 FFF7FEFF 		bl	LED_display
 1953              	.LVL195:
 1954              	.L151:
 104:main.c        ****         /////////////////////////////////////////////////////
 1955              		.loc 1 104 0
 1956 007a 304A     		ldr	r2, .L159+32
 1957 007c 1378     		ldrb	r3, [r2]
 1958 007e 0133     		adds	r3, r3, #1
 1959 0080 DBB2     		uxtb	r3, r3
 1960 0082 1370     		strb	r3, [r2]
 110:main.c        ****           GPS_UART_tmr = 6;    // beyond timeout
 1961              		.loc 1 110 0
 1962 0084 1378     		ldrb	r3, [r2]
 1963 0086 182B     		cmp	r3, #24
 1964 0088 02D1     		bne	.L152
 111:main.c        ****         if (GPS_UART_tmr == 5) // UART timeout, discard current buffer
 1965              		.loc 1 111 0
 1966 008a 0622     		movs	r2, #6
 1967 008c 2B4B     		ldr	r3, .L159+32
 1968 008e 1A70     		strb	r2, [r3]
 1969              	.L152:
 112:main.c        ****           num_rx_bytes_gps_buff = 0;
 1970              		.loc 1 112 0
 1971 0090 2A4B     		ldr	r3, .L159+32
 1972 0092 1B78     		ldrb	r3, [r3]
 1973 0094 052B     		cmp	r3, #5
 1974 0096 02D1     		bne	.L153
 113:main.c        **** 
 1975              		.loc 1 113 0
 1976 0098 0022     		movs	r2, #0
 1977 009a 224B     		ldr	r3, .L159+8
 1978 009c 1A70     		strb	r2, [r3]
 1979              	.L153:
 1980              	.LVL196:
 119:main.c        ****         while (x < curr_GP_timers)
 1981              		.loc 1 119 0
 1982 009e 254B     		ldr	r3, .L159+24
 1983 00a0 1D79     		ldrb	r5, [r3, #4]
 1984              	.LVL197:
 118:main.c        ****         curr_GP_timers = num_GP_timers; // num_GP timers might get incremented whild processing GP 
 1985              		.loc 1 118 0
 1986 00a2 0024     		movs	r4, #0
 120:main.c        ****         {
 1987              		.loc 1 120 0
 1988 00a4 18E0     		b	.L154
 1989              	.LVL198:
ARM GAS  C:\Users\SAIKAR~1\AppData\Local\Temp\ccYUKoGs.s 			page 50


 1990              	.L156:
 122:main.c        ****           {
 1991              		.loc 1 122 0
 1992 00a6 A300     		lsls	r3, r4, #2
 1993 00a8 1C4A     		ldr	r2, .L159
 1994 00aa D318     		adds	r3, r2, r3
 1995 00ac 5B88     		ldrh	r3, [r3, #2]
 1996 00ae 002B     		cmp	r3, #0
 1997 00b0 10D0     		beq	.L155
 124:main.c        ****             if (GP_timer[x].time == 0)
 1998              		.loc 1 124 0
 1999 00b2 013B     		subs	r3, r3, #1
 2000 00b4 9BB2     		uxth	r3, r3
 2001 00b6 A200     		lsls	r2, r4, #2
 2002 00b8 1849     		ldr	r1, .L159
 2003 00ba 8A18     		adds	r2, r1, r2
 2004 00bc 5380     		strh	r3, [r2, #2]
 125:main.c        ****             {
 2005              		.loc 1 125 0
 2006 00be 002B     		cmp	r3, #0
 2007 00c0 08D1     		bne	.L155
 127:main.c        ****               if (x < (curr_GP_timers - 1))
 2008              		.loc 1 127 0
 2009 00c2 A200     		lsls	r2, r4, #2
 2010 00c4 505C     		ldrb	r0, [r2, r1]
 2011 00c6 FFF7FEFF 		bl	process_GP_timer_evt
 2012              	.LVL199:
 128:main.c        ****                 x--; // if we shifted valid timer up we need to process it.
 2013              		.loc 1 128 0
 2014 00ca 6B1E     		subs	r3, r5, #1
 2015 00cc 9C42     		cmp	r4, r3
 2016 00ce 01DA     		bge	.L155
 129:main.c        ****             }
 2017              		.loc 1 129 0
 2018 00d0 013C     		subs	r4, r4, #1
 2019              	.LVL200:
 2020 00d2 A4B2     		uxth	r4, r4
 2021              	.LVL201:
 2022              	.L155:
 132:main.c        ****         }
 2023              		.loc 1 132 0
 2024 00d4 0134     		adds	r4, r4, #1
 2025              	.LVL202:
 2026 00d6 A4B2     		uxth	r4, r4
 2027              	.LVL203:
 2028              	.L154:
 120:main.c        ****         {
 2029              		.loc 1 120 0
 2030 00d8 ABB2     		uxth	r3, r5
 2031 00da 9C42     		cmp	r4, r3
 2032 00dc E3D3     		bcc	.L156
 2033 00de 0FE0     		b	.L146
 2034              	.LVL204:
 2035              	.L148:
 141:main.c        ****         break;
 2036              		.loc 1 141 0
 2037 00e0 FFF7FEFF 		bl	processDbgCmd
ARM GAS  C:\Users\SAIKAR~1\AppData\Local\Temp\ccYUKoGs.s 			page 51


 2038              	.LVL205:
 142:main.c        ****       }
 2039              		.loc 1 142 0
 2040 00e4 0CE0     		b	.L146
 2041              	.L150:
 157:main.c        ****         break;
 2042              		.loc 1 157 0
 2043 00e6 FFF7FEFF 		bl	processFC_Pckt
 2044              	.LVL206:
 158:main.c        ****       }
 2045              		.loc 1 158 0
 2046 00ea 09E0     		b	.L146
 2047              	.L158:
 162:main.c        ****         append_num16((uint8)active_task);
 2048              		.loc 1 162 0
 2049 00ec 1448     		ldr	r0, .L159+36
 2050 00ee FFF7FEFF 		bl	append_msg
 2051              	.LVL207:
 163:main.c        ****         append_msg("\r");
 2052              		.loc 1 163 0
 2053 00f2 104B     		ldr	r3, .L159+24
 2054 00f4 187E     		ldrb	r0, [r3, #24]
 2055 00f6 FFF7FEFF 		bl	append_num16
 2056              	.LVL208:
 164:main.c        ****         break;
 2057              		.loc 1 164 0
 2058 00fa 1248     		ldr	r0, .L159+40
 2059 00fc FFF7FEFF 		bl	append_msg
 2060              	.LVL209:
 2061              	.L146:
 175:main.c        ****     {
 2062              		.loc 1 175 0
 2063 0100 0C4B     		ldr	r3, .L159+24
 2064 0102 1A78     		ldrb	r2, [r3]
 2065 0104 D2B2     		uxtb	r2, r2
 2066 0106 5B78     		ldrb	r3, [r3, #1]
 2067 0108 DBB2     		uxtb	r3, r3
 2068 010a 9A42     		cmp	r2, r3
 2069 010c 90D0     		beq	.L145
 175:main.c        ****     {
 2070              		.loc 1 175 0 is_stmt 0 discriminator 1
 2071 010e 084B     		ldr	r3, .L159+20
 2072 0110 1B78     		ldrb	r3, [r3]
 2073 0112 002B     		cmp	r3, #0
 2074 0114 8CD1     		bne	.L145
 177:main.c        ****     }
 2075              		.loc 1 177 0 is_stmt 1
 2076 0116 FFF7FEFF 		bl	display_msg_FC
 2077              	.LVL210:
 2078 011a 89E7     		b	.L145
 2079              	.L160:
 2080              		.align	2
 2081              	.L159:
 2082 011c 00000000 		.word	GP_timer
 2083 0120 00000000 		.word	num_rx_bytes_dbg_buff
 2084 0124 00000000 		.word	num_rx_bytes_gps_buff
 2085 0128 00000000 		.word	num_rx_bytes_FC
ARM GAS  C:\Users\SAIKAR~1\AppData\Local\Temp\ccYUKoGs.s 			page 52


 2086 012c 00000000 		.word	sec
 2087 0130 00000000 		.word	num_tasks
 2088 0134 00000000 		.word	.LANCHOR0
 2089 0138 00000000 		.word	tmr_dec
 2090 013c 00000000 		.word	GPS_UART_tmr
 2091 0140 18010000 		.word	.LC71
 2092 0144 3C010000 		.word	.LC73
 2093              		.cfi_endproc
 2094              	.LFE35:
 2095              		.size	main, .-main
 2096              		.section	.text.processGPS_Pckt,"ax",%progbits
 2097              		.align	2
 2098              		.global	processGPS_Pckt
 2099              		.code	16
 2100              		.thumb_func
 2101              		.type	processGPS_Pckt, %function
 2102              	processGPS_Pckt:
 2103              	.LFB55:
 728:main.c        **** 
 729:main.c        **** void processGPS_Pckt(void)
 730:main.c        **** {
 2104              		.loc 1 730 0
 2105              		.cfi_startproc
 2106              		@ args = 0, pretend = 0, frame = 0
 2107              		@ frame_needed = 0, uses_anonymous_args = 0
 2108              		@ link register save eliminated.
 731:main.c        **** }
 2109              		.loc 1 731 0
 2110              		@ sp needed
 2111 0000 7047     		bx	lr
 2112              		.cfi_endproc
 2113              	.LFE55:
 2114              		.size	processGPS_Pckt, .-processGPS_Pckt
 2115              		.global	coords
 2116              		.comm	gps_data,12,4
 2117              		.global	DT_S
 2118              		.global	TARGET_LON
 2119              		.global	TARGET_LAT
 2120              		.comm	virus,48,8
 2121              		.comm	sec,2,2
 2122              		.comm	tmr_dec,1,1
 2123              		.comm	GP_evt,1,1
 2124              		.global	num_GP_timers
 2125              		.comm	GP_timer,20,4
 2126              		.comm	task_queue,10,4
 2127              		.global	fc_msg_ptr_tail
 2128              		.global	fc_msg_ptr_head
 2129              		.global	msg_ptr_tail
 2130              		.global	msg_ptr_head
 2131              		.comm	fc_msg,256,4
 2132              		.comm	debug_msg,256,4
 2133              		.comm	num_tasks,1,1
 2134              		.comm	GPS_UART_tmr,1,1
 2135              		.comm	num_rx_bytes_FC,1,1
 2136              		.comm	num_rx_bytes_FC_buff,1,1
 2137              		.comm	rx_bytes_FC_buff,6,4
 2138              		.comm	rx_bytes_FC,6,4
ARM GAS  C:\Users\SAIKAR~1\AppData\Local\Temp\ccYUKoGs.s 			page 53


 2139              		.comm	num_rx_bytes_gps_buff,1,1
 2140              		.comm	num_rx_bytes_gps,1,1
 2141              		.comm	rx_bytes_gps_buff,72,4
 2142              		.comm	rx_bytes_gps,72,4
 2143              		.comm	num_rx_bytes_dbg_buff,1,1
 2144              		.comm	num_rx_bytes_dbg,1,1
 2145              		.comm	rx_bytes_dbg_buff,16,4
 2146              		.comm	rx_bytes_dbg,16,4
 2147 0002 C046     		.section	.rodata
 2148              		.align	3
 2149              		.type	DT_S, %object
 2150              		.size	DT_S, 8
 2151              	DT_S:
 2152 0000 9A999999 		.word	-1717986918
 2153 0004 9999B93F 		.word	1069128089
 2154              		.type	TARGET_LON, %object
 2155              		.size	TARGET_LON, 8
 2156              	TARGET_LON:
 2157 0008 52B81E85 		.word	-2061584302
 2158 000c EB515640 		.word	1079398891
 2159              		.type	TARGET_LAT, %object
 2160              		.size	TARGET_LAT, 8
 2161              	TARGET_LAT:
 2162 0010 48E17A14 		.word	343597384
 2163 0014 AE874540 		.word	1078298542
 2164              		.section	.rodata.str1.4,"aMS",%progbits,1
 2165              		.align	2
 2166              	.LC20:
 2167 0000 4552523A 		.ascii	"ERR: can't add timer EVT \000"
 2167      2063616E 
 2167      27742061 
 2167      64642074 
 2167      696D6572 
 2168 001a 0000     		.space	2
 2169              	.LC22:
 2170 001c 0D0A00   		.ascii	"\015\012\000"
 2171 001f 00       		.space	1
 2172              	.LC26:
 2173 0020 5741524E 		.ascii	"WARN: could not cancel timer EVT \000"
 2173      3A20636F 
 2173      756C6420 
 2173      6E6F7420 
 2173      63616E63 
 2174 0042 0000     		.space	2
 2175              	.LC28:
 2176 0044 0A0D00   		.ascii	"\012\015\000"
 2177 0047 00       		.space	1
 2178              	.LC30:
 2179 0048 48656C6C 		.ascii	"Hello World!\000"
 2179      6F20576F 
 2179      726C6421 
 2179      00
 2180 0055 000000   		.space	3
 2181              	.LC32:
 2182 0058 4552523A 		.ascii	"ERR: unknown GP timer event\015\012\000"
 2182      20756E6B 
 2182      6E6F776E 
ARM GAS  C:\Users\SAIKAR~1\AppData\Local\Temp\ccYUKoGs.s 			page 54


 2182      20475020 
 2182      74696D65 
 2183 0076 0000     		.space	2
 2184              	.LC36:
 2185 0078 4552523A 		.ascii	"ERR: tsk Q full:\000"
 2185      2074736B 
 2185      20512066 
 2185      756C6C3A 
 2185      00
 2186 0089 000000   		.space	3
 2187              	.LC40:
 2188 008c 4552523A 		.ascii	"ERR: no tasks in queue to dequeue\015\000"
 2188      206E6F20 
 2188      7461736B 
 2188      7320696E 
 2188      20717565 
 2189 00af 00       		.space	1
 2190              	.LC46:
 2191 00b0 556E7265 		.ascii	"Unreal_FC\000"
 2191      616C5F46 
 2191      4300
 2192 00ba 0000     		.space	2
 2193              	.LC50:
 2194 00bc 436F6F72 		.ascii	"Coords not set or invalid GPS\012\000"
 2194      6473206E 
 2194      6F742073 
 2194      6574206F 
 2194      7220696E 
 2195 00db 00       		.space	1
 2196              	.LC53:
 2197 00dc 52656163 		.ascii	"Reached case 4!\000"
 2197      68656420 
 2197      63617365 
 2197      20342100 
 2198              	.LC55:
 2199 00ec 50495443 		.ascii	"PITCH:\000"
 2199      483A00
 2200 00f3 00       		.space	1
 2201              	.LC57:
 2202 00f4 2C524F4C 		.ascii	",ROLL:\000"
 2202      4C3A00
 2203 00fb 00       		.space	1
 2204              	.LC59:
 2205 00fc 5B455252 		.ascii	"[ERROR]Unknown_packet_type\000"
 2205      4F525D55 
 2205      6E6B6E6F 
 2205      776E5F70 
 2205      61636B65 
 2206 0117 00       		.space	1
 2207              	.LC71:
 2208 0118 4552523A 		.ascii	"ERR: unhandle task in task queue \000"
 2208      20756E68 
 2208      616E646C 
 2208      65207461 
 2208      736B2069 
 2209 013a 0000     		.space	2
 2210              	.LC73:
ARM GAS  C:\Users\SAIKAR~1\AppData\Local\Temp\ccYUKoGs.s 			page 55


 2211 013c 0D00     		.ascii	"\015\000"
 2212              		.bss
 2213              		.align	3
 2214              		.set	.LANCHOR0,. + 0
 2215              		.type	fc_msg_ptr_tail, %object
 2216              		.size	fc_msg_ptr_tail, 1
 2217              	fc_msg_ptr_tail:
 2218 0000 00       		.space	1
 2219              		.type	fc_msg_ptr_head, %object
 2220              		.size	fc_msg_ptr_head, 1
 2221              	fc_msg_ptr_head:
 2222 0001 00       		.space	1
 2223              		.type	msg_ptr_tail, %object
 2224              		.size	msg_ptr_tail, 1
 2225              	msg_ptr_tail:
 2226 0002 00       		.space	1
 2227              		.type	msg_ptr_head, %object
 2228              		.size	msg_ptr_head, 1
 2229              	msg_ptr_head:
 2230 0003 00       		.space	1
 2231              		.type	num_GP_timers, %object
 2232              		.size	num_GP_timers, 1
 2233              	num_GP_timers:
 2234 0004 00       		.space	1
 2235 0005 000000   		.space	3
 2236              		.type	coords, %object
 2237              		.size	coords, 16
 2238              	coords:
 2239 0008 00000000 		.space	16
 2239      00000000 
 2239      00000000 
 2239      00000000 
 2240              		.type	active_task.7081, %object
 2241              		.size	active_task.7081, 1
 2242              	active_task.7081:
 2243 0018 00       		.space	1
 2244              		.text
 2245              	.Letext0:
 2246              		.file 2 "e:\\acads\\uwm\\psoc creator\\4.4\\psoc creator\\import\\gnu\\arm\\5.4.1\\arm-none-eabi\\
 2247              		.file 3 "e:\\acads\\uwm\\psoc creator\\4.4\\psoc creator\\import\\gnu\\arm\\5.4.1\\arm-none-eabi\\
 2248              		.file 4 "Generated_Source\\PSoC4/cytypes.h"
 2249              		.file 5 "main.h"
 2250              		.file 6 "sanitize.h"
 2251              		.file 7 "algorithm.h"
 2252              		.file 8 "Generated_Source\\PSoC4/UART_FC_SPI_UART.h"
 2253              		.file 9 "Generated_Source\\PSoC4/UART_DBG_SPI_UART.h"
 2254              		.file 10 "Generated_Source\\PSoC4/LED6.h"
 2255              		.file 11 "Generated_Source\\PSoC4/LED5.h"
 2256              		.file 12 "Generated_Source\\PSoC4/LED4.h"
 2257              		.file 13 "Generated_Source\\PSoC4/LED3.h"
 2258              		.file 14 "Generated_Source\\PSoC4/LED2.h"
 2259              		.file 15 "Generated_Source\\PSoC4/LED1.h"
 2260              		.file 16 "Generated_Source\\PSoC4/LED0.h"
 2261              		.file 17 "Generated_Source\\PSoC4/UART_DBG.h"
 2262              		.file 18 "Generated_Source\\PSoC4/UART_DBG_SCB_IRQ.h"
 2263              		.file 19 "Generated_Source\\PSoC4/UART_GPS.h"
 2264              		.file 20 "Generated_Source\\PSoC4/UART_GPS_SCB_IRQ.h"
ARM GAS  C:\Users\SAIKAR~1\AppData\Local\Temp\ccYUKoGs.s 			page 56


 2265              		.file 21 "Generated_Source\\PSoC4/UART_FC.h"
 2266              		.file 22 "Generated_Source\\PSoC4/UART_FC_SCB_IRQ.h"
 2267              		.file 23 "Generated_Source\\PSoC4/WDT_ISR.h"