ARM GAS  C:\Users\SAIKAR~1\AppData\Local\Temp\ccmsGhOG.s 			page 1


   1              		.syntax unified
   2              		.cpu cortex-m0
   3              		.fpu softvfp
   4              		.eabi_attribute 20, 1
   5              		.eabi_attribute 21, 1
   6              		.eabi_attribute 23, 3
   7              		.eabi_attribute 24, 1
   8              		.eabi_attribute 25, 1
   9              		.eabi_attribute 26, 1
  10              		.eabi_attribute 30, 1
  11              		.eabi_attribute 34, 0
  12              		.eabi_attribute 18, 4
  13              		.thumb
  14              		.syntax unified
  15              		.file	"UART_FC_SCB_IRQ.c"
  16              		.text
  17              	.Ltext0:
  18              		.cfi_sections	.debug_frame
  19              		.section	.text.UART_FC_SCB_IRQ_Interrupt,"ax",%progbits
  20              		.align	2
  21              		.global	UART_FC_SCB_IRQ_Interrupt
  22              		.code	16
  23              		.thumb_func
  24              		.type	UART_FC_SCB_IRQ_Interrupt, %function
  25              	UART_FC_SCB_IRQ_Interrupt:
  26              	.LFB4:
  27              		.file 1 "Generated_Source\\PSoC4\\UART_FC_SCB_IRQ.c"
   1:Generated_Source\PSoC4/UART_FC_SCB_IRQ.c **** /*******************************************************************************
   2:Generated_Source\PSoC4/UART_FC_SCB_IRQ.c **** * File Name: UART_FC_SCB_IRQ.c  
   3:Generated_Source\PSoC4/UART_FC_SCB_IRQ.c **** * Version 1.70
   4:Generated_Source\PSoC4/UART_FC_SCB_IRQ.c **** *
   5:Generated_Source\PSoC4/UART_FC_SCB_IRQ.c **** *  Description:
   6:Generated_Source\PSoC4/UART_FC_SCB_IRQ.c **** *   API for controlling the state of an interrupt.
   7:Generated_Source\PSoC4/UART_FC_SCB_IRQ.c **** *
   8:Generated_Source\PSoC4/UART_FC_SCB_IRQ.c **** *
   9:Generated_Source\PSoC4/UART_FC_SCB_IRQ.c **** *  Note:
  10:Generated_Source\PSoC4/UART_FC_SCB_IRQ.c **** *
  11:Generated_Source\PSoC4/UART_FC_SCB_IRQ.c **** ********************************************************************************
  12:Generated_Source\PSoC4/UART_FC_SCB_IRQ.c **** * Copyright 2008-2015, Cypress Semiconductor Corporation.  All rights reserved.
  13:Generated_Source\PSoC4/UART_FC_SCB_IRQ.c **** * You may use this file only in accordance with the license, terms, conditions, 
  14:Generated_Source\PSoC4/UART_FC_SCB_IRQ.c **** * disclaimers, and limitations in the end user license agreement accompanying 
  15:Generated_Source\PSoC4/UART_FC_SCB_IRQ.c **** * the software package with which this file was provided.
  16:Generated_Source\PSoC4/UART_FC_SCB_IRQ.c **** *******************************************************************************/
  17:Generated_Source\PSoC4/UART_FC_SCB_IRQ.c **** 
  18:Generated_Source\PSoC4/UART_FC_SCB_IRQ.c **** 
  19:Generated_Source\PSoC4/UART_FC_SCB_IRQ.c **** #include <cydevice_trm.h>
  20:Generated_Source\PSoC4/UART_FC_SCB_IRQ.c **** #include <CyLib.h>
  21:Generated_Source\PSoC4/UART_FC_SCB_IRQ.c **** #include <UART_FC_SCB_IRQ.h>
  22:Generated_Source\PSoC4/UART_FC_SCB_IRQ.c **** #include "cyapicallbacks.h"
  23:Generated_Source\PSoC4/UART_FC_SCB_IRQ.c **** 
  24:Generated_Source\PSoC4/UART_FC_SCB_IRQ.c **** #if !defined(UART_FC_SCB_IRQ__REMOVED) /* Check for removal by optimization */
  25:Generated_Source\PSoC4/UART_FC_SCB_IRQ.c **** 
  26:Generated_Source\PSoC4/UART_FC_SCB_IRQ.c **** /*******************************************************************************
  27:Generated_Source\PSoC4/UART_FC_SCB_IRQ.c **** *  Place your includes, defines and code here 
  28:Generated_Source\PSoC4/UART_FC_SCB_IRQ.c **** ********************************************************************************/
  29:Generated_Source\PSoC4/UART_FC_SCB_IRQ.c **** /* `#START UART_FC_SCB_IRQ_intc` */
  30:Generated_Source\PSoC4/UART_FC_SCB_IRQ.c ****   #include "main.h"
ARM GAS  C:\Users\SAIKAR~1\AppData\Local\Temp\ccmsGhOG.s 			page 2


  31:Generated_Source\PSoC4/UART_FC_SCB_IRQ.c ****   #include "UART_FC_SPI_UART.h"
  32:Generated_Source\PSoC4/UART_FC_SCB_IRQ.c ****   #include "UART_FC.h"
  33:Generated_Source\PSoC4/UART_FC_SCB_IRQ.c **** /* `#END` */
  34:Generated_Source\PSoC4/UART_FC_SCB_IRQ.c **** 
  35:Generated_Source\PSoC4/UART_FC_SCB_IRQ.c **** extern cyisraddress CyRamVectors[CYINT_IRQ_BASE + CY_NUM_INTERRUPTS];
  36:Generated_Source\PSoC4/UART_FC_SCB_IRQ.c **** 
  37:Generated_Source\PSoC4/UART_FC_SCB_IRQ.c **** /* Declared in startup, used to set unused interrupts to. */
  38:Generated_Source\PSoC4/UART_FC_SCB_IRQ.c **** CY_ISR_PROTO(IntDefaultHandler);
  39:Generated_Source\PSoC4/UART_FC_SCB_IRQ.c **** 
  40:Generated_Source\PSoC4/UART_FC_SCB_IRQ.c **** 
  41:Generated_Source\PSoC4/UART_FC_SCB_IRQ.c **** /*******************************************************************************
  42:Generated_Source\PSoC4/UART_FC_SCB_IRQ.c **** * Function Name: UART_FC_SCB_IRQ_Start
  43:Generated_Source\PSoC4/UART_FC_SCB_IRQ.c **** ********************************************************************************
  44:Generated_Source\PSoC4/UART_FC_SCB_IRQ.c **** *
  45:Generated_Source\PSoC4/UART_FC_SCB_IRQ.c **** * Summary:
  46:Generated_Source\PSoC4/UART_FC_SCB_IRQ.c **** *  Set up the interrupt and enable it. This function disables the interrupt, 
  47:Generated_Source\PSoC4/UART_FC_SCB_IRQ.c **** *  sets the default interrupt vector, sets the priority from the value in the
  48:Generated_Source\PSoC4/UART_FC_SCB_IRQ.c **** *  Design Wide Resources Interrupt Editor, then enables the interrupt to the 
  49:Generated_Source\PSoC4/UART_FC_SCB_IRQ.c **** *  interrupt controller.
  50:Generated_Source\PSoC4/UART_FC_SCB_IRQ.c **** *
  51:Generated_Source\PSoC4/UART_FC_SCB_IRQ.c **** * Parameters:  
  52:Generated_Source\PSoC4/UART_FC_SCB_IRQ.c **** *   None
  53:Generated_Source\PSoC4/UART_FC_SCB_IRQ.c **** *
  54:Generated_Source\PSoC4/UART_FC_SCB_IRQ.c **** * Return:
  55:Generated_Source\PSoC4/UART_FC_SCB_IRQ.c **** *   None
  56:Generated_Source\PSoC4/UART_FC_SCB_IRQ.c **** *
  57:Generated_Source\PSoC4/UART_FC_SCB_IRQ.c **** *******************************************************************************/
  58:Generated_Source\PSoC4/UART_FC_SCB_IRQ.c **** void UART_FC_SCB_IRQ_Start(void)
  59:Generated_Source\PSoC4/UART_FC_SCB_IRQ.c **** {
  60:Generated_Source\PSoC4/UART_FC_SCB_IRQ.c ****     /* For all we know the interrupt is active. */
  61:Generated_Source\PSoC4/UART_FC_SCB_IRQ.c ****     UART_FC_SCB_IRQ_Disable();
  62:Generated_Source\PSoC4/UART_FC_SCB_IRQ.c **** 
  63:Generated_Source\PSoC4/UART_FC_SCB_IRQ.c ****     /* Set the ISR to point to the UART_FC_SCB_IRQ Interrupt. */
  64:Generated_Source\PSoC4/UART_FC_SCB_IRQ.c ****     UART_FC_SCB_IRQ_SetVector(&UART_FC_SCB_IRQ_Interrupt);
  65:Generated_Source\PSoC4/UART_FC_SCB_IRQ.c **** 
  66:Generated_Source\PSoC4/UART_FC_SCB_IRQ.c ****     /* Set the priority. */
  67:Generated_Source\PSoC4/UART_FC_SCB_IRQ.c ****     UART_FC_SCB_IRQ_SetPriority((uint8)UART_FC_SCB_IRQ_INTC_PRIOR_NUMBER);
  68:Generated_Source\PSoC4/UART_FC_SCB_IRQ.c **** 
  69:Generated_Source\PSoC4/UART_FC_SCB_IRQ.c ****     /* Enable it. */
  70:Generated_Source\PSoC4/UART_FC_SCB_IRQ.c ****     UART_FC_SCB_IRQ_Enable();
  71:Generated_Source\PSoC4/UART_FC_SCB_IRQ.c **** }
  72:Generated_Source\PSoC4/UART_FC_SCB_IRQ.c **** 
  73:Generated_Source\PSoC4/UART_FC_SCB_IRQ.c **** 
  74:Generated_Source\PSoC4/UART_FC_SCB_IRQ.c **** /*******************************************************************************
  75:Generated_Source\PSoC4/UART_FC_SCB_IRQ.c **** * Function Name: UART_FC_SCB_IRQ_StartEx
  76:Generated_Source\PSoC4/UART_FC_SCB_IRQ.c **** ********************************************************************************
  77:Generated_Source\PSoC4/UART_FC_SCB_IRQ.c **** *
  78:Generated_Source\PSoC4/UART_FC_SCB_IRQ.c **** * Summary:
  79:Generated_Source\PSoC4/UART_FC_SCB_IRQ.c **** *  Sets up the interrupt and enables it. This function disables the interrupt,
  80:Generated_Source\PSoC4/UART_FC_SCB_IRQ.c **** *  sets the interrupt vector based on the address passed in, sets the priority 
  81:Generated_Source\PSoC4/UART_FC_SCB_IRQ.c **** *  from the value in the Design Wide Resources Interrupt Editor, then enables 
  82:Generated_Source\PSoC4/UART_FC_SCB_IRQ.c **** *  the interrupt to the interrupt controller.
  83:Generated_Source\PSoC4/UART_FC_SCB_IRQ.c **** *  
  84:Generated_Source\PSoC4/UART_FC_SCB_IRQ.c **** *  When defining ISR functions, the CY_ISR and CY_ISR_PROTO macros should be 
  85:Generated_Source\PSoC4/UART_FC_SCB_IRQ.c **** *  used to provide consistent definition across compilers:
  86:Generated_Source\PSoC4/UART_FC_SCB_IRQ.c **** *  
  87:Generated_Source\PSoC4/UART_FC_SCB_IRQ.c **** *  Function definition example:
ARM GAS  C:\Users\SAIKAR~1\AppData\Local\Temp\ccmsGhOG.s 			page 3


  88:Generated_Source\PSoC4/UART_FC_SCB_IRQ.c **** *   CY_ISR(MyISR)
  89:Generated_Source\PSoC4/UART_FC_SCB_IRQ.c **** *   {
  90:Generated_Source\PSoC4/UART_FC_SCB_IRQ.c **** *   }
  91:Generated_Source\PSoC4/UART_FC_SCB_IRQ.c **** *   Function prototype example:
  92:Generated_Source\PSoC4/UART_FC_SCB_IRQ.c **** *   CY_ISR_PROTO(MyISR);
  93:Generated_Source\PSoC4/UART_FC_SCB_IRQ.c **** *
  94:Generated_Source\PSoC4/UART_FC_SCB_IRQ.c **** * Parameters:  
  95:Generated_Source\PSoC4/UART_FC_SCB_IRQ.c **** *   address: Address of the ISR to set in the interrupt vector table.
  96:Generated_Source\PSoC4/UART_FC_SCB_IRQ.c **** *
  97:Generated_Source\PSoC4/UART_FC_SCB_IRQ.c **** * Return:
  98:Generated_Source\PSoC4/UART_FC_SCB_IRQ.c **** *   None
  99:Generated_Source\PSoC4/UART_FC_SCB_IRQ.c **** *
 100:Generated_Source\PSoC4/UART_FC_SCB_IRQ.c **** *******************************************************************************/
 101:Generated_Source\PSoC4/UART_FC_SCB_IRQ.c **** void UART_FC_SCB_IRQ_StartEx(cyisraddress address)
 102:Generated_Source\PSoC4/UART_FC_SCB_IRQ.c **** {
 103:Generated_Source\PSoC4/UART_FC_SCB_IRQ.c ****     /* For all we know the interrupt is active. */
 104:Generated_Source\PSoC4/UART_FC_SCB_IRQ.c ****     UART_FC_SCB_IRQ_Disable();
 105:Generated_Source\PSoC4/UART_FC_SCB_IRQ.c **** 
 106:Generated_Source\PSoC4/UART_FC_SCB_IRQ.c ****     /* Set the ISR to point to the UART_FC_SCB_IRQ Interrupt. */
 107:Generated_Source\PSoC4/UART_FC_SCB_IRQ.c ****     UART_FC_SCB_IRQ_SetVector(address);
 108:Generated_Source\PSoC4/UART_FC_SCB_IRQ.c **** 
 109:Generated_Source\PSoC4/UART_FC_SCB_IRQ.c ****     /* Set the priority. */
 110:Generated_Source\PSoC4/UART_FC_SCB_IRQ.c ****     UART_FC_SCB_IRQ_SetPriority((uint8)UART_FC_SCB_IRQ_INTC_PRIOR_NUMBER);
 111:Generated_Source\PSoC4/UART_FC_SCB_IRQ.c **** 
 112:Generated_Source\PSoC4/UART_FC_SCB_IRQ.c ****     /* Enable it. */
 113:Generated_Source\PSoC4/UART_FC_SCB_IRQ.c ****     UART_FC_SCB_IRQ_Enable();
 114:Generated_Source\PSoC4/UART_FC_SCB_IRQ.c **** }
 115:Generated_Source\PSoC4/UART_FC_SCB_IRQ.c **** 
 116:Generated_Source\PSoC4/UART_FC_SCB_IRQ.c **** 
 117:Generated_Source\PSoC4/UART_FC_SCB_IRQ.c **** /*******************************************************************************
 118:Generated_Source\PSoC4/UART_FC_SCB_IRQ.c **** * Function Name: UART_FC_SCB_IRQ_Stop
 119:Generated_Source\PSoC4/UART_FC_SCB_IRQ.c **** ********************************************************************************
 120:Generated_Source\PSoC4/UART_FC_SCB_IRQ.c **** *
 121:Generated_Source\PSoC4/UART_FC_SCB_IRQ.c **** * Summary:
 122:Generated_Source\PSoC4/UART_FC_SCB_IRQ.c **** *   Disables and removes the interrupt.
 123:Generated_Source\PSoC4/UART_FC_SCB_IRQ.c **** *
 124:Generated_Source\PSoC4/UART_FC_SCB_IRQ.c **** * Parameters:  
 125:Generated_Source\PSoC4/UART_FC_SCB_IRQ.c **** *   None
 126:Generated_Source\PSoC4/UART_FC_SCB_IRQ.c **** *
 127:Generated_Source\PSoC4/UART_FC_SCB_IRQ.c **** * Return:
 128:Generated_Source\PSoC4/UART_FC_SCB_IRQ.c **** *   None
 129:Generated_Source\PSoC4/UART_FC_SCB_IRQ.c **** *
 130:Generated_Source\PSoC4/UART_FC_SCB_IRQ.c **** *******************************************************************************/
 131:Generated_Source\PSoC4/UART_FC_SCB_IRQ.c **** void UART_FC_SCB_IRQ_Stop(void)
 132:Generated_Source\PSoC4/UART_FC_SCB_IRQ.c **** {
 133:Generated_Source\PSoC4/UART_FC_SCB_IRQ.c ****     /* Disable this interrupt. */
 134:Generated_Source\PSoC4/UART_FC_SCB_IRQ.c ****     UART_FC_SCB_IRQ_Disable();
 135:Generated_Source\PSoC4/UART_FC_SCB_IRQ.c **** 
 136:Generated_Source\PSoC4/UART_FC_SCB_IRQ.c ****     /* Set the ISR to point to the passive one. */
 137:Generated_Source\PSoC4/UART_FC_SCB_IRQ.c ****     UART_FC_SCB_IRQ_SetVector(&IntDefaultHandler);
 138:Generated_Source\PSoC4/UART_FC_SCB_IRQ.c **** }
 139:Generated_Source\PSoC4/UART_FC_SCB_IRQ.c **** 
 140:Generated_Source\PSoC4/UART_FC_SCB_IRQ.c **** 
 141:Generated_Source\PSoC4/UART_FC_SCB_IRQ.c **** /*******************************************************************************
 142:Generated_Source\PSoC4/UART_FC_SCB_IRQ.c **** * Function Name: UART_FC_SCB_IRQ_Interrupt
 143:Generated_Source\PSoC4/UART_FC_SCB_IRQ.c **** ********************************************************************************
 144:Generated_Source\PSoC4/UART_FC_SCB_IRQ.c **** *
ARM GAS  C:\Users\SAIKAR~1\AppData\Local\Temp\ccmsGhOG.s 			page 4


 145:Generated_Source\PSoC4/UART_FC_SCB_IRQ.c **** * Summary:
 146:Generated_Source\PSoC4/UART_FC_SCB_IRQ.c **** *   The default Interrupt Service Routine for UART_FC_SCB_IRQ.
 147:Generated_Source\PSoC4/UART_FC_SCB_IRQ.c **** *
 148:Generated_Source\PSoC4/UART_FC_SCB_IRQ.c **** *   Add custom code between the START and END comments to keep the next version
 149:Generated_Source\PSoC4/UART_FC_SCB_IRQ.c **** *   of this file from over-writing your code.
 150:Generated_Source\PSoC4/UART_FC_SCB_IRQ.c **** *
 151:Generated_Source\PSoC4/UART_FC_SCB_IRQ.c **** *   Note You may use either the default ISR by using this API, or you may define
 152:Generated_Source\PSoC4/UART_FC_SCB_IRQ.c **** *   your own separate ISR through ISR_StartEx().
 153:Generated_Source\PSoC4/UART_FC_SCB_IRQ.c **** *
 154:Generated_Source\PSoC4/UART_FC_SCB_IRQ.c **** * Parameters:  
 155:Generated_Source\PSoC4/UART_FC_SCB_IRQ.c **** *   None
 156:Generated_Source\PSoC4/UART_FC_SCB_IRQ.c **** *
 157:Generated_Source\PSoC4/UART_FC_SCB_IRQ.c **** * Return:
 158:Generated_Source\PSoC4/UART_FC_SCB_IRQ.c **** *   None
 159:Generated_Source\PSoC4/UART_FC_SCB_IRQ.c **** *
 160:Generated_Source\PSoC4/UART_FC_SCB_IRQ.c **** *******************************************************************************/
 161:Generated_Source\PSoC4/UART_FC_SCB_IRQ.c **** CY_ISR(UART_FC_SCB_IRQ_Interrupt)
 162:Generated_Source\PSoC4/UART_FC_SCB_IRQ.c **** {
  28              		.loc 1 162 0
  29              		.cfi_startproc
  30              		@ args = 0, pretend = 0, frame = 0
  31              		@ frame_needed = 0, uses_anonymous_args = 0
  32 0000 70B5     		push	{r4, r5, r6, lr}
  33              		.cfi_def_cfa_offset 16
  34              		.cfi_offset 4, -16
  35              		.cfi_offset 5, -12
  36              		.cfi_offset 6, -8
  37              		.cfi_offset 14, -4
 163:Generated_Source\PSoC4/UART_FC_SCB_IRQ.c ****     #ifdef UART_FC_SCB_IRQ_INTERRUPT_INTERRUPT_CALLBACK
 164:Generated_Source\PSoC4/UART_FC_SCB_IRQ.c ****         UART_FC_SCB_IRQ_Interrupt_InterruptCallback();
 165:Generated_Source\PSoC4/UART_FC_SCB_IRQ.c ****     #endif /* UART_FC_SCB_IRQ_INTERRUPT_INTERRUPT_CALLBACK */ 
 166:Generated_Source\PSoC4/UART_FC_SCB_IRQ.c **** 
 167:Generated_Source\PSoC4/UART_FC_SCB_IRQ.c ****     /*  Place your Interrupt code here. */
 168:Generated_Source\PSoC4/UART_FC_SCB_IRQ.c ****     /* `#START UART_FC_SCB_IRQ_Interrupt` */
 169:Generated_Source\PSoC4/UART_FC_SCB_IRQ.c ****     uint8_t buff_depth,x;
 170:Generated_Source\PSoC4/UART_FC_SCB_IRQ.c ****     
 171:Generated_Source\PSoC4/UART_FC_SCB_IRQ.c ****     buff_depth = UART_FC_SpiUartGetRxBufferSize();
  38              		.loc 1 171 0
  39 0002 FFF7FEFF 		bl	UART_FC_SpiUartGetRxBufferSize
  40              	.LVL0:
  41 0006 C5B2     		uxtb	r5, r0
  42              	.LVL1:
 172:Generated_Source\PSoC4/UART_FC_SCB_IRQ.c ****     
 173:Generated_Source\PSoC4/UART_FC_SCB_IRQ.c ****     for (x=0; x<buff_depth; x++)
  43              		.loc 1 173 0
  44 0008 0024     		movs	r4, #0
  45 000a 0CE0     		b	.L2
  46              	.LVL2:
  47              	.L3:
 174:Generated_Source\PSoC4/UART_FC_SCB_IRQ.c ****       rx_bytes_FC_buff[num_rx_bytes_FC_buff++] = UART_FC_UartGetByte();
  48              		.loc 1 174 0 discriminator 3
  49 000c 184A     		ldr	r2, .L8
  50 000e 1678     		ldrb	r6, [r2]
  51 0010 F6B2     		uxtb	r6, r6
  52 0012 731C     		adds	r3, r6, #1
  53 0014 DBB2     		uxtb	r3, r3
  54 0016 1370     		strb	r3, [r2]
ARM GAS  C:\Users\SAIKAR~1\AppData\Local\Temp\ccmsGhOG.s 			page 5


  55 0018 FFF7FEFF 		bl	UART_FC_UartGetByte
  56              	.LVL3:
  57 001c C0B2     		uxtb	r0, r0
  58 001e 154B     		ldr	r3, .L8+4
  59 0020 9855     		strb	r0, [r3, r6]
 173:Generated_Source\PSoC4/UART_FC_SCB_IRQ.c ****       rx_bytes_FC_buff[num_rx_bytes_FC_buff++] = UART_FC_UartGetByte();
  60              		.loc 1 173 0 discriminator 3
  61 0022 0134     		adds	r4, r4, #1
  62              	.LVL4:
  63 0024 E4B2     		uxtb	r4, r4
  64              	.LVL5:
  65              	.L2:
 173:Generated_Source\PSoC4/UART_FC_SCB_IRQ.c ****       rx_bytes_FC_buff[num_rx_bytes_FC_buff++] = UART_FC_UartGetByte();
  66              		.loc 1 173 0 is_stmt 0 discriminator 1
  67 0026 AC42     		cmp	r4, r5
  68 0028 F0D3     		bcc	.L3
 175:Generated_Source\PSoC4/UART_FC_SCB_IRQ.c ****     
 176:Generated_Source\PSoC4/UART_FC_SCB_IRQ.c ****     UART_FC_ClearRxInterruptSource(0xFF);
  69              		.loc 1 176 0 is_stmt 1
  70 002a FF22     		movs	r2, #255
  71 002c 124B     		ldr	r3, .L8+8
  72 002e 1A60     		str	r2, [r3]
 177:Generated_Source\PSoC4/UART_FC_SCB_IRQ.c **** 
 178:Generated_Source\PSoC4/UART_FC_SCB_IRQ.c ****     if (rx_bytes_FC_buff[num_rx_bytes_FC_buff-1]==0x0D) {             // if it was a carriage retur
  73              		.loc 1 178 0
  74 0030 0F4B     		ldr	r3, .L8
  75 0032 1B78     		ldrb	r3, [r3]
  76 0034 013B     		subs	r3, r3, #1
  77 0036 0F4A     		ldr	r2, .L8+4
  78 0038 D35C     		ldrb	r3, [r2, r3]
  79 003a 0D2B     		cmp	r3, #13
  80 003c 17D1     		bne	.L1
  81 003e 07E0     		b	.L7
  82              	.LVL6:
  83              	.L6:
  84              	.LBB2:
 179:Generated_Source\PSoC4/UART_FC_SCB_IRQ.c ****         for(uint8_t i=0; i<5; i++){
 180:Generated_Source\PSoC4/UART_FC_SCB_IRQ.c ****             rx_bytes_FC[i] = rx_bytes_FC_buff[i];
  85              		.loc 1 180 0 discriminator 3
  86 0040 0C4A     		ldr	r2, .L8+4
  87 0042 D25C     		ldrb	r2, [r2, r3]
  88 0044 D2B2     		uxtb	r2, r2
  89 0046 0D49     		ldr	r1, .L8+12
  90 0048 CA54     		strb	r2, [r1, r3]
 179:Generated_Source\PSoC4/UART_FC_SCB_IRQ.c ****         for(uint8_t i=0; i<5; i++){
  91              		.loc 1 179 0 discriminator 3
  92 004a 0133     		adds	r3, r3, #1
  93              	.LVL7:
  94 004c DBB2     		uxtb	r3, r3
  95              	.LVL8:
  96 004e 00E0     		b	.L4
  97              	.LVL9:
  98              	.L7:
  99              	.LBE2:
 100 0050 0023     		movs	r3, #0
 101              	.L4:
 102              	.LVL10:
ARM GAS  C:\Users\SAIKAR~1\AppData\Local\Temp\ccmsGhOG.s 			page 6


 103              	.LBB3:
 179:Generated_Source\PSoC4/UART_FC_SCB_IRQ.c ****         for(uint8_t i=0; i<5; i++){
 104              		.loc 1 179 0 is_stmt 0 discriminator 1
 105 0052 042B     		cmp	r3, #4
 106 0054 F4D9     		bls	.L6
 107              	.LBE3:
 181:Generated_Source\PSoC4/UART_FC_SCB_IRQ.c ****         }
 182:Generated_Source\PSoC4/UART_FC_SCB_IRQ.c ****         rx_bytes_FC[5] = '\0';
 108              		.loc 1 182 0 is_stmt 1
 109 0056 0023     		movs	r3, #0
 110              	.LVL11:
 111 0058 084A     		ldr	r2, .L8+12
 112 005a 5371     		strb	r3, [r2, #5]
 183:Generated_Source\PSoC4/UART_FC_SCB_IRQ.c ****         num_rx_bytes_FC = 6;
 113              		.loc 1 183 0
 114 005c 0621     		movs	r1, #6
 115 005e 084A     		ldr	r2, .L8+16
 116 0060 1170     		strb	r1, [r2]
 184:Generated_Source\PSoC4/UART_FC_SCB_IRQ.c ****         num_rx_bytes_FC_buff = 0;
 117              		.loc 1 184 0
 118 0062 034A     		ldr	r2, .L8
 119 0064 1370     		strb	r3, [r2]
 185:Generated_Source\PSoC4/UART_FC_SCB_IRQ.c ****         enqueue_task(FC_PCKT_PROC,2);
 120              		.loc 1 185 0
 121 0066 0439     		subs	r1, r1, #4
 122 0068 0320     		movs	r0, #3
 123 006a FFF7FEFF 		bl	enqueue_task
 124              	.LVL12:
 125              	.L1:
 186:Generated_Source\PSoC4/UART_FC_SCB_IRQ.c ****     }
 187:Generated_Source\PSoC4/UART_FC_SCB_IRQ.c ****     
 188:Generated_Source\PSoC4/UART_FC_SCB_IRQ.c ****     // if (num_rx_bytes_FC==6) {             // packets from FC are always 5 in length (appending \
 189:Generated_Source\PSoC4/UART_FC_SCB_IRQ.c ****     //     rx_bytes_FC[num_rx_bytes_FC-1] = '\0';
 190:Generated_Source\PSoC4/UART_FC_SCB_IRQ.c ****     //     enqueue_task(FC_PCKT_PROC,2);
 191:Generated_Source\PSoC4/UART_FC_SCB_IRQ.c ****     //     num_rx_bytes_FC = 0;
 192:Generated_Source\PSoC4/UART_FC_SCB_IRQ.c ****     // } else {
 193:Generated_Source\PSoC4/UART_FC_SCB_IRQ.c ****     //     for(uint8_t i=5; i<num_rx_bytes_FC; i++){
 194:Generated_Source\PSoC4/UART_FC_SCB_IRQ.c ****     //         rx_bytes_FC[i] = '\0';
 195:Generated_Source\PSoC4/UART_FC_SCB_IRQ.c ****     //     }
 196:Generated_Source\PSoC4/UART_FC_SCB_IRQ.c ****     //     enqueue_task(FC_PCKT_PROC,2);
 197:Generated_Source\PSoC4/UART_FC_SCB_IRQ.c ****     //     num_rx_bytes_FC = 0;
 198:Generated_Source\PSoC4/UART_FC_SCB_IRQ.c ****     // }
 199:Generated_Source\PSoC4/UART_FC_SCB_IRQ.c ****     /* `#END` */
 200:Generated_Source\PSoC4/UART_FC_SCB_IRQ.c **** }
 126              		.loc 1 200 0
 127              		@ sp needed
 128              	.LVL13:
 129              	.LVL14:
 130 006e 70BD     		pop	{r4, r5, r6, pc}
 131              	.L9:
 132              		.align	2
 133              	.L8:
 134 0070 00000000 		.word	num_rx_bytes_FC_buff
 135 0074 00000000 		.word	rx_bytes_FC_buff
 136 0078 C00F2740 		.word	1076301760
 137 007c 00000000 		.word	rx_bytes_FC
 138 0080 00000000 		.word	num_rx_bytes_FC
ARM GAS  C:\Users\SAIKAR~1\AppData\Local\Temp\ccmsGhOG.s 			page 7


 139              		.cfi_endproc
 140              	.LFE4:
 141              		.size	UART_FC_SCB_IRQ_Interrupt, .-UART_FC_SCB_IRQ_Interrupt
 142              		.section	.text.UART_FC_SCB_IRQ_SetVector,"ax",%progbits
 143              		.align	2
 144              		.global	UART_FC_SCB_IRQ_SetVector
 145              		.code	16
 146              		.thumb_func
 147              		.type	UART_FC_SCB_IRQ_SetVector, %function
 148              	UART_FC_SCB_IRQ_SetVector:
 149              	.LFB5:
 201:Generated_Source\PSoC4/UART_FC_SCB_IRQ.c **** 
 202:Generated_Source\PSoC4/UART_FC_SCB_IRQ.c **** 
 203:Generated_Source\PSoC4/UART_FC_SCB_IRQ.c **** /*******************************************************************************
 204:Generated_Source\PSoC4/UART_FC_SCB_IRQ.c **** * Function Name: UART_FC_SCB_IRQ_SetVector
 205:Generated_Source\PSoC4/UART_FC_SCB_IRQ.c **** ********************************************************************************
 206:Generated_Source\PSoC4/UART_FC_SCB_IRQ.c **** *
 207:Generated_Source\PSoC4/UART_FC_SCB_IRQ.c **** * Summary:
 208:Generated_Source\PSoC4/UART_FC_SCB_IRQ.c **** *   Change the ISR vector for the Interrupt. Note calling UART_FC_SCB_IRQ_Start
 209:Generated_Source\PSoC4/UART_FC_SCB_IRQ.c **** *   will override any effect this method would have had. To set the vector 
 210:Generated_Source\PSoC4/UART_FC_SCB_IRQ.c **** *   before the component has been started use UART_FC_SCB_IRQ_StartEx instead.
 211:Generated_Source\PSoC4/UART_FC_SCB_IRQ.c **** * 
 212:Generated_Source\PSoC4/UART_FC_SCB_IRQ.c **** *   When defining ISR functions, the CY_ISR and CY_ISR_PROTO macros should be 
 213:Generated_Source\PSoC4/UART_FC_SCB_IRQ.c **** *   used to provide consistent definition across compilers:
 214:Generated_Source\PSoC4/UART_FC_SCB_IRQ.c **** *
 215:Generated_Source\PSoC4/UART_FC_SCB_IRQ.c **** *   Function definition example:
 216:Generated_Source\PSoC4/UART_FC_SCB_IRQ.c **** *   CY_ISR(MyISR)
 217:Generated_Source\PSoC4/UART_FC_SCB_IRQ.c **** *   {
 218:Generated_Source\PSoC4/UART_FC_SCB_IRQ.c **** *   }
 219:Generated_Source\PSoC4/UART_FC_SCB_IRQ.c **** *
 220:Generated_Source\PSoC4/UART_FC_SCB_IRQ.c **** *   Function prototype example:
 221:Generated_Source\PSoC4/UART_FC_SCB_IRQ.c **** *     CY_ISR_PROTO(MyISR);
 222:Generated_Source\PSoC4/UART_FC_SCB_IRQ.c **** *
 223:Generated_Source\PSoC4/UART_FC_SCB_IRQ.c **** * Parameters:
 224:Generated_Source\PSoC4/UART_FC_SCB_IRQ.c **** *   address: Address of the ISR to set in the interrupt vector table.
 225:Generated_Source\PSoC4/UART_FC_SCB_IRQ.c **** *
 226:Generated_Source\PSoC4/UART_FC_SCB_IRQ.c **** * Return:
 227:Generated_Source\PSoC4/UART_FC_SCB_IRQ.c **** *   None
 228:Generated_Source\PSoC4/UART_FC_SCB_IRQ.c **** *
 229:Generated_Source\PSoC4/UART_FC_SCB_IRQ.c **** *******************************************************************************/
 230:Generated_Source\PSoC4/UART_FC_SCB_IRQ.c **** void UART_FC_SCB_IRQ_SetVector(cyisraddress address)
 231:Generated_Source\PSoC4/UART_FC_SCB_IRQ.c **** {
 150              		.loc 1 231 0
 151              		.cfi_startproc
 152              		@ args = 0, pretend = 0, frame = 0
 153              		@ frame_needed = 0, uses_anonymous_args = 0
 154              		@ link register save eliminated.
 155              	.LVL15:
 232:Generated_Source\PSoC4/UART_FC_SCB_IRQ.c ****     CyRamVectors[CYINT_IRQ_BASE + UART_FC_SCB_IRQ__INTC_NUMBER] = address;
 156              		.loc 1 232 0
 157 0000 014B     		ldr	r3, .L11
 158 0002 D866     		str	r0, [r3, #108]
 233:Generated_Source\PSoC4/UART_FC_SCB_IRQ.c **** }
 159              		.loc 1 233 0
 160              		@ sp needed
 161 0004 7047     		bx	lr
 162              	.L12:
ARM GAS  C:\Users\SAIKAR~1\AppData\Local\Temp\ccmsGhOG.s 			page 8


 163 0006 C046     		.align	2
 164              	.L11:
 165 0008 00000000 		.word	CyRamVectors
 166              		.cfi_endproc
 167              	.LFE5:
 168              		.size	UART_FC_SCB_IRQ_SetVector, .-UART_FC_SCB_IRQ_SetVector
 169              		.section	.text.UART_FC_SCB_IRQ_GetVector,"ax",%progbits
 170              		.align	2
 171              		.global	UART_FC_SCB_IRQ_GetVector
 172              		.code	16
 173              		.thumb_func
 174              		.type	UART_FC_SCB_IRQ_GetVector, %function
 175              	UART_FC_SCB_IRQ_GetVector:
 176              	.LFB6:
 234:Generated_Source\PSoC4/UART_FC_SCB_IRQ.c **** 
 235:Generated_Source\PSoC4/UART_FC_SCB_IRQ.c **** 
 236:Generated_Source\PSoC4/UART_FC_SCB_IRQ.c **** /*******************************************************************************
 237:Generated_Source\PSoC4/UART_FC_SCB_IRQ.c **** * Function Name: UART_FC_SCB_IRQ_GetVector
 238:Generated_Source\PSoC4/UART_FC_SCB_IRQ.c **** ********************************************************************************
 239:Generated_Source\PSoC4/UART_FC_SCB_IRQ.c **** *
 240:Generated_Source\PSoC4/UART_FC_SCB_IRQ.c **** * Summary:
 241:Generated_Source\PSoC4/UART_FC_SCB_IRQ.c **** *   Gets the "address" of the current ISR vector for the Interrupt.
 242:Generated_Source\PSoC4/UART_FC_SCB_IRQ.c **** *
 243:Generated_Source\PSoC4/UART_FC_SCB_IRQ.c **** * Parameters:
 244:Generated_Source\PSoC4/UART_FC_SCB_IRQ.c **** *   None
 245:Generated_Source\PSoC4/UART_FC_SCB_IRQ.c **** *
 246:Generated_Source\PSoC4/UART_FC_SCB_IRQ.c **** * Return:
 247:Generated_Source\PSoC4/UART_FC_SCB_IRQ.c **** *   Address of the ISR in the interrupt vector table.
 248:Generated_Source\PSoC4/UART_FC_SCB_IRQ.c **** *
 249:Generated_Source\PSoC4/UART_FC_SCB_IRQ.c **** *******************************************************************************/
 250:Generated_Source\PSoC4/UART_FC_SCB_IRQ.c **** cyisraddress UART_FC_SCB_IRQ_GetVector(void)
 251:Generated_Source\PSoC4/UART_FC_SCB_IRQ.c **** {
 177              		.loc 1 251 0
 178              		.cfi_startproc
 179              		@ args = 0, pretend = 0, frame = 0
 180              		@ frame_needed = 0, uses_anonymous_args = 0
 181              		@ link register save eliminated.
 252:Generated_Source\PSoC4/UART_FC_SCB_IRQ.c ****     return CyRamVectors[CYINT_IRQ_BASE + UART_FC_SCB_IRQ__INTC_NUMBER];
 182              		.loc 1 252 0
 183 0000 014B     		ldr	r3, .L14
 184 0002 D86E     		ldr	r0, [r3, #108]
 253:Generated_Source\PSoC4/UART_FC_SCB_IRQ.c **** }
 185              		.loc 1 253 0
 186              		@ sp needed
 187 0004 7047     		bx	lr
 188              	.L15:
 189 0006 C046     		.align	2
 190              	.L14:
 191 0008 00000000 		.word	CyRamVectors
 192              		.cfi_endproc
 193              	.LFE6:
 194              		.size	UART_FC_SCB_IRQ_GetVector, .-UART_FC_SCB_IRQ_GetVector
 195              		.section	.text.UART_FC_SCB_IRQ_SetPriority,"ax",%progbits
 196              		.align	2
 197              		.global	UART_FC_SCB_IRQ_SetPriority
 198              		.code	16
 199              		.thumb_func
ARM GAS  C:\Users\SAIKAR~1\AppData\Local\Temp\ccmsGhOG.s 			page 9


 200              		.type	UART_FC_SCB_IRQ_SetPriority, %function
 201              	UART_FC_SCB_IRQ_SetPriority:
 202              	.LFB7:
 254:Generated_Source\PSoC4/UART_FC_SCB_IRQ.c **** 
 255:Generated_Source\PSoC4/UART_FC_SCB_IRQ.c **** 
 256:Generated_Source\PSoC4/UART_FC_SCB_IRQ.c **** /*******************************************************************************
 257:Generated_Source\PSoC4/UART_FC_SCB_IRQ.c **** * Function Name: UART_FC_SCB_IRQ_SetPriority
 258:Generated_Source\PSoC4/UART_FC_SCB_IRQ.c **** ********************************************************************************
 259:Generated_Source\PSoC4/UART_FC_SCB_IRQ.c **** *
 260:Generated_Source\PSoC4/UART_FC_SCB_IRQ.c **** * Summary:
 261:Generated_Source\PSoC4/UART_FC_SCB_IRQ.c **** *   Sets the Priority of the Interrupt. 
 262:Generated_Source\PSoC4/UART_FC_SCB_IRQ.c **** *
 263:Generated_Source\PSoC4/UART_FC_SCB_IRQ.c **** *   Note calling UART_FC_SCB_IRQ_Start or UART_FC_SCB_IRQ_StartEx will 
 264:Generated_Source\PSoC4/UART_FC_SCB_IRQ.c **** *   override any effect this API would have had. This API should only be called
 265:Generated_Source\PSoC4/UART_FC_SCB_IRQ.c **** *   after UART_FC_SCB_IRQ_Start or UART_FC_SCB_IRQ_StartEx has been called. 
 266:Generated_Source\PSoC4/UART_FC_SCB_IRQ.c **** *   To set the initial priority for the component, use the Design-Wide Resources
 267:Generated_Source\PSoC4/UART_FC_SCB_IRQ.c **** *   Interrupt Editor.
 268:Generated_Source\PSoC4/UART_FC_SCB_IRQ.c **** *
 269:Generated_Source\PSoC4/UART_FC_SCB_IRQ.c **** *   Note This API has no effect on Non-maskable interrupt NMI).
 270:Generated_Source\PSoC4/UART_FC_SCB_IRQ.c **** *
 271:Generated_Source\PSoC4/UART_FC_SCB_IRQ.c **** * Parameters:
 272:Generated_Source\PSoC4/UART_FC_SCB_IRQ.c **** *   priority: Priority of the interrupt, 0 being the highest priority
 273:Generated_Source\PSoC4/UART_FC_SCB_IRQ.c **** *             PSoC 3 and PSoC 5LP: Priority is from 0 to 7.
 274:Generated_Source\PSoC4/UART_FC_SCB_IRQ.c **** *             PSoC 4: Priority is from 0 to 3.
 275:Generated_Source\PSoC4/UART_FC_SCB_IRQ.c **** *
 276:Generated_Source\PSoC4/UART_FC_SCB_IRQ.c **** * Return:
 277:Generated_Source\PSoC4/UART_FC_SCB_IRQ.c **** *   None
 278:Generated_Source\PSoC4/UART_FC_SCB_IRQ.c **** *
 279:Generated_Source\PSoC4/UART_FC_SCB_IRQ.c **** *******************************************************************************/
 280:Generated_Source\PSoC4/UART_FC_SCB_IRQ.c **** void UART_FC_SCB_IRQ_SetPriority(uint8 priority)
 281:Generated_Source\PSoC4/UART_FC_SCB_IRQ.c **** {
 203              		.loc 1 281 0
 204              		.cfi_startproc
 205              		@ args = 0, pretend = 0, frame = 0
 206              		@ frame_needed = 0, uses_anonymous_args = 0
 207              	.LVL16:
 208 0000 10B5     		push	{r4, lr}
 209              		.cfi_def_cfa_offset 8
 210              		.cfi_offset 4, -8
 211              		.cfi_offset 14, -4
 212 0002 0400     		movs	r4, r0
 213              	.LVL17:
 282:Generated_Source\PSoC4/UART_FC_SCB_IRQ.c **** 	uint8 interruptState;
 283:Generated_Source\PSoC4/UART_FC_SCB_IRQ.c ****     uint32 priorityOffset = ((UART_FC_SCB_IRQ__INTC_NUMBER % 4u) * 8u) + 6u;
 284:Generated_Source\PSoC4/UART_FC_SCB_IRQ.c ****     
 285:Generated_Source\PSoC4/UART_FC_SCB_IRQ.c **** 	interruptState = CyEnterCriticalSection();
 214              		.loc 1 285 0
 215 0004 FFF7FEFF 		bl	CyEnterCriticalSection
 216              	.LVL18:
 286:Generated_Source\PSoC4/UART_FC_SCB_IRQ.c ****     *UART_FC_SCB_IRQ_INTC_PRIOR = (*UART_FC_SCB_IRQ_INTC_PRIOR & (uint32)(~UART_FC_SCB_IRQ__INTC_PR
 217              		.loc 1 286 0
 218 0008 044A     		ldr	r2, .L17
 219 000a 1368     		ldr	r3, [r2]
 220 000c 9B00     		lsls	r3, r3, #2
 221 000e 9B08     		lsrs	r3, r3, #2
 287:Generated_Source\PSoC4/UART_FC_SCB_IRQ.c ****                                     ((uint32)priority << priorityOffset);
 222              		.loc 1 287 0
ARM GAS  C:\Users\SAIKAR~1\AppData\Local\Temp\ccmsGhOG.s 			page 10


 223 0010 A407     		lsls	r4, r4, #30
 286:Generated_Source\PSoC4/UART_FC_SCB_IRQ.c ****     *UART_FC_SCB_IRQ_INTC_PRIOR = (*UART_FC_SCB_IRQ_INTC_PRIOR & (uint32)(~UART_FC_SCB_IRQ__INTC_PR
 224              		.loc 1 286 0
 225 0012 1C43     		orrs	r4, r3
 226 0014 1460     		str	r4, [r2]
 288:Generated_Source\PSoC4/UART_FC_SCB_IRQ.c **** 	CyExitCriticalSection(interruptState);
 227              		.loc 1 288 0
 228 0016 FFF7FEFF 		bl	CyExitCriticalSection
 229              	.LVL19:
 289:Generated_Source\PSoC4/UART_FC_SCB_IRQ.c **** }
 230              		.loc 1 289 0
 231              		@ sp needed
 232 001a 10BD     		pop	{r4, pc}
 233              	.L18:
 234              		.align	2
 235              	.L17:
 236 001c 08E400E0 		.word	-536812536
 237              		.cfi_endproc
 238              	.LFE7:
 239              		.size	UART_FC_SCB_IRQ_SetPriority, .-UART_FC_SCB_IRQ_SetPriority
 240              		.section	.text.UART_FC_SCB_IRQ_GetPriority,"ax",%progbits
 241              		.align	2
 242              		.global	UART_FC_SCB_IRQ_GetPriority
 243              		.code	16
 244              		.thumb_func
 245              		.type	UART_FC_SCB_IRQ_GetPriority, %function
 246              	UART_FC_SCB_IRQ_GetPriority:
 247              	.LFB8:
 290:Generated_Source\PSoC4/UART_FC_SCB_IRQ.c **** 
 291:Generated_Source\PSoC4/UART_FC_SCB_IRQ.c **** 
 292:Generated_Source\PSoC4/UART_FC_SCB_IRQ.c **** /*******************************************************************************
 293:Generated_Source\PSoC4/UART_FC_SCB_IRQ.c **** * Function Name: UART_FC_SCB_IRQ_GetPriority
 294:Generated_Source\PSoC4/UART_FC_SCB_IRQ.c **** ********************************************************************************
 295:Generated_Source\PSoC4/UART_FC_SCB_IRQ.c **** *
 296:Generated_Source\PSoC4/UART_FC_SCB_IRQ.c **** * Summary:
 297:Generated_Source\PSoC4/UART_FC_SCB_IRQ.c **** *   Gets the Priority of the Interrupt.
 298:Generated_Source\PSoC4/UART_FC_SCB_IRQ.c **** *
 299:Generated_Source\PSoC4/UART_FC_SCB_IRQ.c **** * Parameters:
 300:Generated_Source\PSoC4/UART_FC_SCB_IRQ.c **** *   None
 301:Generated_Source\PSoC4/UART_FC_SCB_IRQ.c **** *
 302:Generated_Source\PSoC4/UART_FC_SCB_IRQ.c **** * Return:
 303:Generated_Source\PSoC4/UART_FC_SCB_IRQ.c **** *   Priority of the interrupt, 0 being the highest priority
 304:Generated_Source\PSoC4/UART_FC_SCB_IRQ.c **** *    PSoC 3 and PSoC 5LP: Priority is from 0 to 7.
 305:Generated_Source\PSoC4/UART_FC_SCB_IRQ.c **** *    PSoC 4: Priority is from 0 to 3.
 306:Generated_Source\PSoC4/UART_FC_SCB_IRQ.c **** *
 307:Generated_Source\PSoC4/UART_FC_SCB_IRQ.c **** *******************************************************************************/
 308:Generated_Source\PSoC4/UART_FC_SCB_IRQ.c **** uint8 UART_FC_SCB_IRQ_GetPriority(void)
 309:Generated_Source\PSoC4/UART_FC_SCB_IRQ.c **** {
 248              		.loc 1 309 0
 249              		.cfi_startproc
 250              		@ args = 0, pretend = 0, frame = 0
 251              		@ frame_needed = 0, uses_anonymous_args = 0
 252              		@ link register save eliminated.
 253              	.LVL20:
 310:Generated_Source\PSoC4/UART_FC_SCB_IRQ.c ****     uint32 priority;
 311:Generated_Source\PSoC4/UART_FC_SCB_IRQ.c **** 	uint32 priorityOffset = ((UART_FC_SCB_IRQ__INTC_NUMBER % 4u) * 8u) + 6u;
 312:Generated_Source\PSoC4/UART_FC_SCB_IRQ.c **** 
ARM GAS  C:\Users\SAIKAR~1\AppData\Local\Temp\ccmsGhOG.s 			page 11


 313:Generated_Source\PSoC4/UART_FC_SCB_IRQ.c ****     priority = (*UART_FC_SCB_IRQ_INTC_PRIOR & UART_FC_SCB_IRQ__INTC_PRIOR_MASK) >> priorityOffset;
 254              		.loc 1 313 0
 255 0000 014B     		ldr	r3, .L20
 256 0002 1868     		ldr	r0, [r3]
 257              	.LVL21:
 314:Generated_Source\PSoC4/UART_FC_SCB_IRQ.c **** 
 315:Generated_Source\PSoC4/UART_FC_SCB_IRQ.c ****     return (uint8)priority;
 258              		.loc 1 315 0
 259 0004 800F     		lsrs	r0, r0, #30
 260              	.LVL22:
 316:Generated_Source\PSoC4/UART_FC_SCB_IRQ.c **** }
 261              		.loc 1 316 0
 262              		@ sp needed
 263 0006 7047     		bx	lr
 264              	.L21:
 265              		.align	2
 266              	.L20:
 267 0008 08E400E0 		.word	-536812536
 268              		.cfi_endproc
 269              	.LFE8:
 270              		.size	UART_FC_SCB_IRQ_GetPriority, .-UART_FC_SCB_IRQ_GetPriority
 271              		.section	.text.UART_FC_SCB_IRQ_Enable,"ax",%progbits
 272              		.align	2
 273              		.global	UART_FC_SCB_IRQ_Enable
 274              		.code	16
 275              		.thumb_func
 276              		.type	UART_FC_SCB_IRQ_Enable, %function
 277              	UART_FC_SCB_IRQ_Enable:
 278              	.LFB9:
 317:Generated_Source\PSoC4/UART_FC_SCB_IRQ.c **** 
 318:Generated_Source\PSoC4/UART_FC_SCB_IRQ.c **** 
 319:Generated_Source\PSoC4/UART_FC_SCB_IRQ.c **** /*******************************************************************************
 320:Generated_Source\PSoC4/UART_FC_SCB_IRQ.c **** * Function Name: UART_FC_SCB_IRQ_Enable
 321:Generated_Source\PSoC4/UART_FC_SCB_IRQ.c **** ********************************************************************************
 322:Generated_Source\PSoC4/UART_FC_SCB_IRQ.c **** *
 323:Generated_Source\PSoC4/UART_FC_SCB_IRQ.c **** * Summary:
 324:Generated_Source\PSoC4/UART_FC_SCB_IRQ.c **** *   Enables the interrupt to the interrupt controller. Do not call this function
 325:Generated_Source\PSoC4/UART_FC_SCB_IRQ.c **** *   unless ISR_Start() has been called or the functionality of the ISR_Start() 
 326:Generated_Source\PSoC4/UART_FC_SCB_IRQ.c **** *   function, which sets the vector and the priority, has been called.
 327:Generated_Source\PSoC4/UART_FC_SCB_IRQ.c **** *
 328:Generated_Source\PSoC4/UART_FC_SCB_IRQ.c **** * Parameters:
 329:Generated_Source\PSoC4/UART_FC_SCB_IRQ.c **** *   None
 330:Generated_Source\PSoC4/UART_FC_SCB_IRQ.c **** *
 331:Generated_Source\PSoC4/UART_FC_SCB_IRQ.c **** * Return:
 332:Generated_Source\PSoC4/UART_FC_SCB_IRQ.c **** *   None
 333:Generated_Source\PSoC4/UART_FC_SCB_IRQ.c **** *
 334:Generated_Source\PSoC4/UART_FC_SCB_IRQ.c **** *******************************************************************************/
 335:Generated_Source\PSoC4/UART_FC_SCB_IRQ.c **** void UART_FC_SCB_IRQ_Enable(void)
 336:Generated_Source\PSoC4/UART_FC_SCB_IRQ.c **** {
 279              		.loc 1 336 0
 280              		.cfi_startproc
 281              		@ args = 0, pretend = 0, frame = 0
 282              		@ frame_needed = 0, uses_anonymous_args = 0
 283              		@ link register save eliminated.
 337:Generated_Source\PSoC4/UART_FC_SCB_IRQ.c ****     /* Enable the general interrupt. */
 338:Generated_Source\PSoC4/UART_FC_SCB_IRQ.c ****     *UART_FC_SCB_IRQ_INTC_SET_EN = UART_FC_SCB_IRQ__INTC_MASK;
 284              		.loc 1 338 0
ARM GAS  C:\Users\SAIKAR~1\AppData\Local\Temp\ccmsGhOG.s 			page 12


 285 0000 8022     		movs	r2, #128
 286 0002 1201     		lsls	r2, r2, #4
 287 0004 014B     		ldr	r3, .L23
 288 0006 1A60     		str	r2, [r3]
 339:Generated_Source\PSoC4/UART_FC_SCB_IRQ.c **** }
 289              		.loc 1 339 0
 290              		@ sp needed
 291 0008 7047     		bx	lr
 292              	.L24:
 293 000a C046     		.align	2
 294              	.L23:
 295 000c 00E100E0 		.word	-536813312
 296              		.cfi_endproc
 297              	.LFE9:
 298              		.size	UART_FC_SCB_IRQ_Enable, .-UART_FC_SCB_IRQ_Enable
 299              		.section	.text.UART_FC_SCB_IRQ_GetState,"ax",%progbits
 300              		.align	2
 301              		.global	UART_FC_SCB_IRQ_GetState
 302              		.code	16
 303              		.thumb_func
 304              		.type	UART_FC_SCB_IRQ_GetState, %function
 305              	UART_FC_SCB_IRQ_GetState:
 306              	.LFB10:
 340:Generated_Source\PSoC4/UART_FC_SCB_IRQ.c **** 
 341:Generated_Source\PSoC4/UART_FC_SCB_IRQ.c **** 
 342:Generated_Source\PSoC4/UART_FC_SCB_IRQ.c **** /*******************************************************************************
 343:Generated_Source\PSoC4/UART_FC_SCB_IRQ.c **** * Function Name: UART_FC_SCB_IRQ_GetState
 344:Generated_Source\PSoC4/UART_FC_SCB_IRQ.c **** ********************************************************************************
 345:Generated_Source\PSoC4/UART_FC_SCB_IRQ.c **** *
 346:Generated_Source\PSoC4/UART_FC_SCB_IRQ.c **** * Summary:
 347:Generated_Source\PSoC4/UART_FC_SCB_IRQ.c **** *   Gets the state (enabled, disabled) of the Interrupt.
 348:Generated_Source\PSoC4/UART_FC_SCB_IRQ.c **** *
 349:Generated_Source\PSoC4/UART_FC_SCB_IRQ.c **** * Parameters:
 350:Generated_Source\PSoC4/UART_FC_SCB_IRQ.c **** *   None
 351:Generated_Source\PSoC4/UART_FC_SCB_IRQ.c **** *
 352:Generated_Source\PSoC4/UART_FC_SCB_IRQ.c **** * Return:
 353:Generated_Source\PSoC4/UART_FC_SCB_IRQ.c **** *   1 if enabled, 0 if disabled.
 354:Generated_Source\PSoC4/UART_FC_SCB_IRQ.c **** *
 355:Generated_Source\PSoC4/UART_FC_SCB_IRQ.c **** *******************************************************************************/
 356:Generated_Source\PSoC4/UART_FC_SCB_IRQ.c **** uint8 UART_FC_SCB_IRQ_GetState(void)
 357:Generated_Source\PSoC4/UART_FC_SCB_IRQ.c **** {
 307              		.loc 1 357 0
 308              		.cfi_startproc
 309              		@ args = 0, pretend = 0, frame = 0
 310              		@ frame_needed = 0, uses_anonymous_args = 0
 311              		@ link register save eliminated.
 358:Generated_Source\PSoC4/UART_FC_SCB_IRQ.c ****     /* Get the state of the general interrupt. */
 359:Generated_Source\PSoC4/UART_FC_SCB_IRQ.c ****     return ((*UART_FC_SCB_IRQ_INTC_SET_EN & (uint32)UART_FC_SCB_IRQ__INTC_MASK) != 0u) ? 1u:0u;
 312              		.loc 1 359 0
 313 0000 034B     		ldr	r3, .L28
 314 0002 1B68     		ldr	r3, [r3]
 315 0004 1B05     		lsls	r3, r3, #20
 316 0006 01D5     		bpl	.L27
 317 0008 0120     		movs	r0, #1
 318 000a 00E0     		b	.L26
 319              	.L27:
 320 000c 0020     		movs	r0, #0
ARM GAS  C:\Users\SAIKAR~1\AppData\Local\Temp\ccmsGhOG.s 			page 13


 321              	.L26:
 360:Generated_Source\PSoC4/UART_FC_SCB_IRQ.c **** }
 322              		.loc 1 360 0 discriminator 4
 323              		@ sp needed
 324 000e 7047     		bx	lr
 325              	.L29:
 326              		.align	2
 327              	.L28:
 328 0010 00E100E0 		.word	-536813312
 329              		.cfi_endproc
 330              	.LFE10:
 331              		.size	UART_FC_SCB_IRQ_GetState, .-UART_FC_SCB_IRQ_GetState
 332              		.section	.text.UART_FC_SCB_IRQ_Disable,"ax",%progbits
 333              		.align	2
 334              		.global	UART_FC_SCB_IRQ_Disable
 335              		.code	16
 336              		.thumb_func
 337              		.type	UART_FC_SCB_IRQ_Disable, %function
 338              	UART_FC_SCB_IRQ_Disable:
 339              	.LFB11:
 361:Generated_Source\PSoC4/UART_FC_SCB_IRQ.c **** 
 362:Generated_Source\PSoC4/UART_FC_SCB_IRQ.c **** 
 363:Generated_Source\PSoC4/UART_FC_SCB_IRQ.c **** /*******************************************************************************
 364:Generated_Source\PSoC4/UART_FC_SCB_IRQ.c **** * Function Name: UART_FC_SCB_IRQ_Disable
 365:Generated_Source\PSoC4/UART_FC_SCB_IRQ.c **** ********************************************************************************
 366:Generated_Source\PSoC4/UART_FC_SCB_IRQ.c **** *
 367:Generated_Source\PSoC4/UART_FC_SCB_IRQ.c **** * Summary:
 368:Generated_Source\PSoC4/UART_FC_SCB_IRQ.c **** *   Disables the Interrupt in the interrupt controller.
 369:Generated_Source\PSoC4/UART_FC_SCB_IRQ.c **** *
 370:Generated_Source\PSoC4/UART_FC_SCB_IRQ.c **** * Parameters:
 371:Generated_Source\PSoC4/UART_FC_SCB_IRQ.c **** *   None
 372:Generated_Source\PSoC4/UART_FC_SCB_IRQ.c **** *
 373:Generated_Source\PSoC4/UART_FC_SCB_IRQ.c **** * Return:
 374:Generated_Source\PSoC4/UART_FC_SCB_IRQ.c **** *   None
 375:Generated_Source\PSoC4/UART_FC_SCB_IRQ.c **** *
 376:Generated_Source\PSoC4/UART_FC_SCB_IRQ.c **** *******************************************************************************/
 377:Generated_Source\PSoC4/UART_FC_SCB_IRQ.c **** void UART_FC_SCB_IRQ_Disable(void)
 378:Generated_Source\PSoC4/UART_FC_SCB_IRQ.c **** {
 340              		.loc 1 378 0
 341              		.cfi_startproc
 342              		@ args = 0, pretend = 0, frame = 0
 343              		@ frame_needed = 0, uses_anonymous_args = 0
 344              		@ link register save eliminated.
 379:Generated_Source\PSoC4/UART_FC_SCB_IRQ.c ****     /* Disable the general interrupt. */
 380:Generated_Source\PSoC4/UART_FC_SCB_IRQ.c ****     *UART_FC_SCB_IRQ_INTC_CLR_EN = UART_FC_SCB_IRQ__INTC_MASK;
 345              		.loc 1 380 0
 346 0000 8022     		movs	r2, #128
 347 0002 1201     		lsls	r2, r2, #4
 348 0004 014B     		ldr	r3, .L31
 349 0006 1A60     		str	r2, [r3]
 381:Generated_Source\PSoC4/UART_FC_SCB_IRQ.c **** }
 350              		.loc 1 381 0
 351              		@ sp needed
 352 0008 7047     		bx	lr
 353              	.L32:
 354 000a C046     		.align	2
 355              	.L31:
ARM GAS  C:\Users\SAIKAR~1\AppData\Local\Temp\ccmsGhOG.s 			page 14


 356 000c 80E100E0 		.word	-536813184
 357              		.cfi_endproc
 358              	.LFE11:
 359              		.size	UART_FC_SCB_IRQ_Disable, .-UART_FC_SCB_IRQ_Disable
 360              		.section	.text.UART_FC_SCB_IRQ_Start,"ax",%progbits
 361              		.align	2
 362              		.global	UART_FC_SCB_IRQ_Start
 363              		.code	16
 364              		.thumb_func
 365              		.type	UART_FC_SCB_IRQ_Start, %function
 366              	UART_FC_SCB_IRQ_Start:
 367              	.LFB1:
  59:Generated_Source\PSoC4/UART_FC_SCB_IRQ.c ****     /* For all we know the interrupt is active. */
 368              		.loc 1 59 0
 369              		.cfi_startproc
 370              		@ args = 0, pretend = 0, frame = 0
 371              		@ frame_needed = 0, uses_anonymous_args = 0
 372 0000 10B5     		push	{r4, lr}
 373              		.cfi_def_cfa_offset 8
 374              		.cfi_offset 4, -8
 375              		.cfi_offset 14, -4
  61:Generated_Source\PSoC4/UART_FC_SCB_IRQ.c **** 
 376              		.loc 1 61 0
 377 0002 FFF7FEFF 		bl	UART_FC_SCB_IRQ_Disable
 378              	.LVL23:
  64:Generated_Source\PSoC4/UART_FC_SCB_IRQ.c **** 
 379              		.loc 1 64 0
 380 0006 0448     		ldr	r0, .L34
 381 0008 FFF7FEFF 		bl	UART_FC_SCB_IRQ_SetVector
 382              	.LVL24:
  67:Generated_Source\PSoC4/UART_FC_SCB_IRQ.c **** 
 383              		.loc 1 67 0
 384 000c 0320     		movs	r0, #3
 385 000e FFF7FEFF 		bl	UART_FC_SCB_IRQ_SetPriority
 386              	.LVL25:
  70:Generated_Source\PSoC4/UART_FC_SCB_IRQ.c **** }
 387              		.loc 1 70 0
 388 0012 FFF7FEFF 		bl	UART_FC_SCB_IRQ_Enable
 389              	.LVL26:
  71:Generated_Source\PSoC4/UART_FC_SCB_IRQ.c **** 
 390              		.loc 1 71 0
 391              		@ sp needed
 392 0016 10BD     		pop	{r4, pc}
 393              	.L35:
 394              		.align	2
 395              	.L34:
 396 0018 00000000 		.word	UART_FC_SCB_IRQ_Interrupt
 397              		.cfi_endproc
 398              	.LFE1:
 399              		.size	UART_FC_SCB_IRQ_Start, .-UART_FC_SCB_IRQ_Start
 400              		.section	.text.UART_FC_SCB_IRQ_StartEx,"ax",%progbits
 401              		.align	2
 402              		.global	UART_FC_SCB_IRQ_StartEx
 403              		.code	16
 404              		.thumb_func
 405              		.type	UART_FC_SCB_IRQ_StartEx, %function
 406              	UART_FC_SCB_IRQ_StartEx:
ARM GAS  C:\Users\SAIKAR~1\AppData\Local\Temp\ccmsGhOG.s 			page 15


 407              	.LFB2:
 102:Generated_Source\PSoC4/UART_FC_SCB_IRQ.c ****     /* For all we know the interrupt is active. */
 408              		.loc 1 102 0
 409              		.cfi_startproc
 410              		@ args = 0, pretend = 0, frame = 0
 411              		@ frame_needed = 0, uses_anonymous_args = 0
 412              	.LVL27:
 413 0000 10B5     		push	{r4, lr}
 414              		.cfi_def_cfa_offset 8
 415              		.cfi_offset 4, -8
 416              		.cfi_offset 14, -4
 417 0002 0400     		movs	r4, r0
 104:Generated_Source\PSoC4/UART_FC_SCB_IRQ.c **** 
 418              		.loc 1 104 0
 419 0004 FFF7FEFF 		bl	UART_FC_SCB_IRQ_Disable
 420              	.LVL28:
 107:Generated_Source\PSoC4/UART_FC_SCB_IRQ.c **** 
 421              		.loc 1 107 0
 422 0008 2000     		movs	r0, r4
 423 000a FFF7FEFF 		bl	UART_FC_SCB_IRQ_SetVector
 424              	.LVL29:
 110:Generated_Source\PSoC4/UART_FC_SCB_IRQ.c **** 
 425              		.loc 1 110 0
 426 000e 0320     		movs	r0, #3
 427 0010 FFF7FEFF 		bl	UART_FC_SCB_IRQ_SetPriority
 428              	.LVL30:
 113:Generated_Source\PSoC4/UART_FC_SCB_IRQ.c **** }
 429              		.loc 1 113 0
 430 0014 FFF7FEFF 		bl	UART_FC_SCB_IRQ_Enable
 431              	.LVL31:
 114:Generated_Source\PSoC4/UART_FC_SCB_IRQ.c **** 
 432              		.loc 1 114 0
 433              		@ sp needed
 434              	.LVL32:
 435 0018 10BD     		pop	{r4, pc}
 436              		.cfi_endproc
 437              	.LFE2:
 438              		.size	UART_FC_SCB_IRQ_StartEx, .-UART_FC_SCB_IRQ_StartEx
 439 001a C046     		.section	.text.UART_FC_SCB_IRQ_Stop,"ax",%progbits
 440              		.align	2
 441              		.global	UART_FC_SCB_IRQ_Stop
 442              		.code	16
 443              		.thumb_func
 444              		.type	UART_FC_SCB_IRQ_Stop, %function
 445              	UART_FC_SCB_IRQ_Stop:
 446              	.LFB3:
 132:Generated_Source\PSoC4/UART_FC_SCB_IRQ.c ****     /* Disable this interrupt. */
 447              		.loc 1 132 0
 448              		.cfi_startproc
 449              		@ args = 0, pretend = 0, frame = 0
 450              		@ frame_needed = 0, uses_anonymous_args = 0
 451 0000 10B5     		push	{r4, lr}
 452              		.cfi_def_cfa_offset 8
 453              		.cfi_offset 4, -8
 454              		.cfi_offset 14, -4
 134:Generated_Source\PSoC4/UART_FC_SCB_IRQ.c **** 
 455              		.loc 1 134 0
ARM GAS  C:\Users\SAIKAR~1\AppData\Local\Temp\ccmsGhOG.s 			page 16


 456 0002 FFF7FEFF 		bl	UART_FC_SCB_IRQ_Disable
 457              	.LVL33:
 137:Generated_Source\PSoC4/UART_FC_SCB_IRQ.c **** }
 458              		.loc 1 137 0
 459 0006 0248     		ldr	r0, .L38
 460 0008 FFF7FEFF 		bl	UART_FC_SCB_IRQ_SetVector
 461              	.LVL34:
 138:Generated_Source\PSoC4/UART_FC_SCB_IRQ.c **** 
 462              		.loc 1 138 0
 463              		@ sp needed
 464 000c 10BD     		pop	{r4, pc}
 465              	.L39:
 466 000e C046     		.align	2
 467              	.L38:
 468 0010 00000000 		.word	IntDefaultHandler
 469              		.cfi_endproc
 470              	.LFE3:
 471              		.size	UART_FC_SCB_IRQ_Stop, .-UART_FC_SCB_IRQ_Stop
 472              		.section	.text.UART_FC_SCB_IRQ_SetPending,"ax",%progbits
 473              		.align	2
 474              		.global	UART_FC_SCB_IRQ_SetPending
 475              		.code	16
 476              		.thumb_func
 477              		.type	UART_FC_SCB_IRQ_SetPending, %function
 478              	UART_FC_SCB_IRQ_SetPending:
 479              	.LFB12:
 382:Generated_Source\PSoC4/UART_FC_SCB_IRQ.c **** 
 383:Generated_Source\PSoC4/UART_FC_SCB_IRQ.c **** 
 384:Generated_Source\PSoC4/UART_FC_SCB_IRQ.c **** /*******************************************************************************
 385:Generated_Source\PSoC4/UART_FC_SCB_IRQ.c **** * Function Name: UART_FC_SCB_IRQ_SetPending
 386:Generated_Source\PSoC4/UART_FC_SCB_IRQ.c **** ********************************************************************************
 387:Generated_Source\PSoC4/UART_FC_SCB_IRQ.c **** *
 388:Generated_Source\PSoC4/UART_FC_SCB_IRQ.c **** * Summary:
 389:Generated_Source\PSoC4/UART_FC_SCB_IRQ.c **** *   Causes the Interrupt to enter the pending state, a software method of
 390:Generated_Source\PSoC4/UART_FC_SCB_IRQ.c **** *   generating the interrupt.
 391:Generated_Source\PSoC4/UART_FC_SCB_IRQ.c **** *
 392:Generated_Source\PSoC4/UART_FC_SCB_IRQ.c **** * Parameters:
 393:Generated_Source\PSoC4/UART_FC_SCB_IRQ.c **** *   None
 394:Generated_Source\PSoC4/UART_FC_SCB_IRQ.c **** *
 395:Generated_Source\PSoC4/UART_FC_SCB_IRQ.c **** * Return:
 396:Generated_Source\PSoC4/UART_FC_SCB_IRQ.c **** *   None
 397:Generated_Source\PSoC4/UART_FC_SCB_IRQ.c **** *
 398:Generated_Source\PSoC4/UART_FC_SCB_IRQ.c **** * Side Effects:
 399:Generated_Source\PSoC4/UART_FC_SCB_IRQ.c **** *   If interrupts are enabled and the interrupt is set up properly, the ISR is
 400:Generated_Source\PSoC4/UART_FC_SCB_IRQ.c **** *   entered (depending on the priority of this interrupt and other pending 
 401:Generated_Source\PSoC4/UART_FC_SCB_IRQ.c **** *   interrupts).
 402:Generated_Source\PSoC4/UART_FC_SCB_IRQ.c **** *
 403:Generated_Source\PSoC4/UART_FC_SCB_IRQ.c **** *******************************************************************************/
 404:Generated_Source\PSoC4/UART_FC_SCB_IRQ.c **** void UART_FC_SCB_IRQ_SetPending(void)
 405:Generated_Source\PSoC4/UART_FC_SCB_IRQ.c **** {
 480              		.loc 1 405 0
 481              		.cfi_startproc
 482              		@ args = 0, pretend = 0, frame = 0
 483              		@ frame_needed = 0, uses_anonymous_args = 0
 484              		@ link register save eliminated.
 406:Generated_Source\PSoC4/UART_FC_SCB_IRQ.c ****     *UART_FC_SCB_IRQ_INTC_SET_PD = UART_FC_SCB_IRQ__INTC_MASK;
 485              		.loc 1 406 0
ARM GAS  C:\Users\SAIKAR~1\AppData\Local\Temp\ccmsGhOG.s 			page 17


 486 0000 8022     		movs	r2, #128
 487 0002 1201     		lsls	r2, r2, #4
 488 0004 014B     		ldr	r3, .L41
 489 0006 1A60     		str	r2, [r3]
 407:Generated_Source\PSoC4/UART_FC_SCB_IRQ.c **** }
 490              		.loc 1 407 0
 491              		@ sp needed
 492 0008 7047     		bx	lr
 493              	.L42:
 494 000a C046     		.align	2
 495              	.L41:
 496 000c 00E200E0 		.word	-536813056
 497              		.cfi_endproc
 498              	.LFE12:
 499              		.size	UART_FC_SCB_IRQ_SetPending, .-UART_FC_SCB_IRQ_SetPending
 500              		.section	.text.UART_FC_SCB_IRQ_ClearPending,"ax",%progbits
 501              		.align	2
 502              		.global	UART_FC_SCB_IRQ_ClearPending
 503              		.code	16
 504              		.thumb_func
 505              		.type	UART_FC_SCB_IRQ_ClearPending, %function
 506              	UART_FC_SCB_IRQ_ClearPending:
 507              	.LFB13:
 408:Generated_Source\PSoC4/UART_FC_SCB_IRQ.c **** 
 409:Generated_Source\PSoC4/UART_FC_SCB_IRQ.c **** 
 410:Generated_Source\PSoC4/UART_FC_SCB_IRQ.c **** /*******************************************************************************
 411:Generated_Source\PSoC4/UART_FC_SCB_IRQ.c **** * Function Name: UART_FC_SCB_IRQ_ClearPending
 412:Generated_Source\PSoC4/UART_FC_SCB_IRQ.c **** ********************************************************************************
 413:Generated_Source\PSoC4/UART_FC_SCB_IRQ.c **** *
 414:Generated_Source\PSoC4/UART_FC_SCB_IRQ.c **** * Summary:
 415:Generated_Source\PSoC4/UART_FC_SCB_IRQ.c **** *   Clears a pending interrupt in the interrupt controller.
 416:Generated_Source\PSoC4/UART_FC_SCB_IRQ.c **** *
 417:Generated_Source\PSoC4/UART_FC_SCB_IRQ.c **** *   Note Some interrupt sources are clear-on-read and require the block 
 418:Generated_Source\PSoC4/UART_FC_SCB_IRQ.c **** *   interrupt/status register to be read/cleared with the appropriate block API 
 419:Generated_Source\PSoC4/UART_FC_SCB_IRQ.c **** *   (GPIO, UART, and so on). Otherwise the ISR will continue to remain in 
 420:Generated_Source\PSoC4/UART_FC_SCB_IRQ.c **** *   pending state even though the interrupt itself is cleared using this API.
 421:Generated_Source\PSoC4/UART_FC_SCB_IRQ.c **** *
 422:Generated_Source\PSoC4/UART_FC_SCB_IRQ.c **** * Parameters:
 423:Generated_Source\PSoC4/UART_FC_SCB_IRQ.c **** *   None
 424:Generated_Source\PSoC4/UART_FC_SCB_IRQ.c **** *
 425:Generated_Source\PSoC4/UART_FC_SCB_IRQ.c **** * Return:
 426:Generated_Source\PSoC4/UART_FC_SCB_IRQ.c **** *   None
 427:Generated_Source\PSoC4/UART_FC_SCB_IRQ.c **** *
 428:Generated_Source\PSoC4/UART_FC_SCB_IRQ.c **** *******************************************************************************/
 429:Generated_Source\PSoC4/UART_FC_SCB_IRQ.c **** void UART_FC_SCB_IRQ_ClearPending(void)
 430:Generated_Source\PSoC4/UART_FC_SCB_IRQ.c **** {
 508              		.loc 1 430 0
 509              		.cfi_startproc
 510              		@ args = 0, pretend = 0, frame = 0
 511              		@ frame_needed = 0, uses_anonymous_args = 0
 512              		@ link register save eliminated.
 431:Generated_Source\PSoC4/UART_FC_SCB_IRQ.c ****     *UART_FC_SCB_IRQ_INTC_CLR_PD = UART_FC_SCB_IRQ__INTC_MASK;
 513              		.loc 1 431 0
 514 0000 8022     		movs	r2, #128
 515 0002 1201     		lsls	r2, r2, #4
 516 0004 014B     		ldr	r3, .L44
 517 0006 1A60     		str	r2, [r3]
ARM GAS  C:\Users\SAIKAR~1\AppData\Local\Temp\ccmsGhOG.s 			page 18


 432:Generated_Source\PSoC4/UART_FC_SCB_IRQ.c **** }
 518              		.loc 1 432 0
 519              		@ sp needed
 520 0008 7047     		bx	lr
 521              	.L45:
 522 000a C046     		.align	2
 523              	.L44:
 524 000c 80E200E0 		.word	-536812928
 525              		.cfi_endproc
 526              	.LFE13:
 527              		.size	UART_FC_SCB_IRQ_ClearPending, .-UART_FC_SCB_IRQ_ClearPending
 528              		.comm	num_tasks,1,1
 529              		.comm	GPS_UART_tmr,1,1
 530              		.comm	num_rx_bytes_FC,1,1
 531              		.comm	num_rx_bytes_FC_buff,1,1
 532              		.comm	rx_bytes_FC_buff,6,4
 533              		.comm	rx_bytes_FC,6,4
 534              		.comm	num_rx_bytes_gps_buff,1,1
 535              		.comm	num_rx_bytes_gps,1,1
 536              		.comm	rx_bytes_gps_buff,72,4
 537              		.comm	rx_bytes_gps,72,4
 538              		.comm	num_rx_bytes_dbg_buff,1,1
 539              		.comm	num_rx_bytes_dbg,1,1
 540              		.comm	rx_bytes_dbg_buff,16,4
 541              		.comm	rx_bytes_dbg,16,4
 542              		.text
 543              	.Letext0:
 544              		.file 2 "e:\\acads\\uwm\\psoc creator\\4.4\\psoc creator\\import\\gnu\\arm\\5.4.1\\arm-none-eabi\\
 545              		.file 3 "e:\\acads\\uwm\\psoc creator\\4.4\\psoc creator\\import\\gnu\\arm\\5.4.1\\arm-none-eabi\\
 546              		.file 4 "Generated_Source\\PSoC4/cytypes.h"
 547              		.file 5 "./main.h"
 548              		.file 6 "Generated_Source\\PSoC4\\UART_FC_SPI_UART.h"
 549              		.file 7 "Generated_Source\\PSoC4/CyLib.h"