ARM GAS  C:\Users\SAIKAR~1\AppData\Local\Temp\ccu5JmB6.s 			page 1


   1              		.syntax unified
   2              		.cpu cortex-m0
   3              		.fpu softvfp
   4              		.eabi_attribute 20, 1
   5              		.eabi_attribute 21, 1
   6              		.eabi_attribute 23, 3
   7              		.eabi_attribute 24, 1
   8              		.eabi_attribute 25, 1
   9              		.eabi_attribute 26, 1
  10              		.eabi_attribute 30, 1
  11              		.eabi_attribute 34, 0
  12              		.eabi_attribute 18, 4
  13              		.thumb
  14              		.syntax unified
  15              		.file	"UART_DBG_SCB_IRQ.c"
  16              		.text
  17              	.Ltext0:
  18              		.cfi_sections	.debug_frame
  19              		.section	.text.UART_DBG_SCB_IRQ_Interrupt,"ax",%progbits
  20              		.align	2
  21              		.global	UART_DBG_SCB_IRQ_Interrupt
  22              		.code	16
  23              		.thumb_func
  24              		.type	UART_DBG_SCB_IRQ_Interrupt, %function
  25              	UART_DBG_SCB_IRQ_Interrupt:
  26              	.LFB4:
  27              		.file 1 "Generated_Source\\PSoC4\\UART_DBG_SCB_IRQ.c"
   1:Generated_Source\PSoC4/UART_DBG_SCB_IRQ.c **** /*******************************************************************************
   2:Generated_Source\PSoC4/UART_DBG_SCB_IRQ.c **** * File Name: UART_DBG_SCB_IRQ.c  
   3:Generated_Source\PSoC4/UART_DBG_SCB_IRQ.c **** * Version 1.70
   4:Generated_Source\PSoC4/UART_DBG_SCB_IRQ.c **** *
   5:Generated_Source\PSoC4/UART_DBG_SCB_IRQ.c **** *  Description:
   6:Generated_Source\PSoC4/UART_DBG_SCB_IRQ.c **** *   API for controlling the state of an interrupt.
   7:Generated_Source\PSoC4/UART_DBG_SCB_IRQ.c **** *
   8:Generated_Source\PSoC4/UART_DBG_SCB_IRQ.c **** *
   9:Generated_Source\PSoC4/UART_DBG_SCB_IRQ.c **** *  Note:
  10:Generated_Source\PSoC4/UART_DBG_SCB_IRQ.c **** *
  11:Generated_Source\PSoC4/UART_DBG_SCB_IRQ.c **** ********************************************************************************
  12:Generated_Source\PSoC4/UART_DBG_SCB_IRQ.c **** * Copyright 2008-2015, Cypress Semiconductor Corporation.  All rights reserved.
  13:Generated_Source\PSoC4/UART_DBG_SCB_IRQ.c **** * You may use this file only in accordance with the license, terms, conditions, 
  14:Generated_Source\PSoC4/UART_DBG_SCB_IRQ.c **** * disclaimers, and limitations in the end user license agreement accompanying 
  15:Generated_Source\PSoC4/UART_DBG_SCB_IRQ.c **** * the software package with which this file was provided.
  16:Generated_Source\PSoC4/UART_DBG_SCB_IRQ.c **** *******************************************************************************/
  17:Generated_Source\PSoC4/UART_DBG_SCB_IRQ.c **** 
  18:Generated_Source\PSoC4/UART_DBG_SCB_IRQ.c **** 
  19:Generated_Source\PSoC4/UART_DBG_SCB_IRQ.c **** #include <cydevice_trm.h>
  20:Generated_Source\PSoC4/UART_DBG_SCB_IRQ.c **** #include <CyLib.h>
  21:Generated_Source\PSoC4/UART_DBG_SCB_IRQ.c **** #include <UART_DBG_SCB_IRQ.h>
  22:Generated_Source\PSoC4/UART_DBG_SCB_IRQ.c **** #include "cyapicallbacks.h"
  23:Generated_Source\PSoC4/UART_DBG_SCB_IRQ.c **** 
  24:Generated_Source\PSoC4/UART_DBG_SCB_IRQ.c **** #if !defined(UART_DBG_SCB_IRQ__REMOVED) /* Check for removal by optimization */
  25:Generated_Source\PSoC4/UART_DBG_SCB_IRQ.c **** 
  26:Generated_Source\PSoC4/UART_DBG_SCB_IRQ.c **** /*******************************************************************************
  27:Generated_Source\PSoC4/UART_DBG_SCB_IRQ.c **** *  Place your includes, defines and code here 
  28:Generated_Source\PSoC4/UART_DBG_SCB_IRQ.c **** ********************************************************************************/
  29:Generated_Source\PSoC4/UART_DBG_SCB_IRQ.c **** /* `#START UART_DBG_SCB_IRQ_intc` */
  30:Generated_Source\PSoC4/UART_DBG_SCB_IRQ.c ****   #include "main.h"
ARM GAS  C:\Users\SAIKAR~1\AppData\Local\Temp\ccu5JmB6.s 			page 2


  31:Generated_Source\PSoC4/UART_DBG_SCB_IRQ.c ****   #include "UART_DBG_SPI_UART.h"
  32:Generated_Source\PSoC4/UART_DBG_SCB_IRQ.c ****   #include "UART_DBG.h"
  33:Generated_Source\PSoC4/UART_DBG_SCB_IRQ.c **** /* `#END` */
  34:Generated_Source\PSoC4/UART_DBG_SCB_IRQ.c **** 
  35:Generated_Source\PSoC4/UART_DBG_SCB_IRQ.c **** extern cyisraddress CyRamVectors[CYINT_IRQ_BASE + CY_NUM_INTERRUPTS];
  36:Generated_Source\PSoC4/UART_DBG_SCB_IRQ.c **** 
  37:Generated_Source\PSoC4/UART_DBG_SCB_IRQ.c **** /* Declared in startup, used to set unused interrupts to. */
  38:Generated_Source\PSoC4/UART_DBG_SCB_IRQ.c **** CY_ISR_PROTO(IntDefaultHandler);
  39:Generated_Source\PSoC4/UART_DBG_SCB_IRQ.c **** 
  40:Generated_Source\PSoC4/UART_DBG_SCB_IRQ.c **** 
  41:Generated_Source\PSoC4/UART_DBG_SCB_IRQ.c **** /*******************************************************************************
  42:Generated_Source\PSoC4/UART_DBG_SCB_IRQ.c **** * Function Name: UART_DBG_SCB_IRQ_Start
  43:Generated_Source\PSoC4/UART_DBG_SCB_IRQ.c **** ********************************************************************************
  44:Generated_Source\PSoC4/UART_DBG_SCB_IRQ.c **** *
  45:Generated_Source\PSoC4/UART_DBG_SCB_IRQ.c **** * Summary:
  46:Generated_Source\PSoC4/UART_DBG_SCB_IRQ.c **** *  Set up the interrupt and enable it. This function disables the interrupt, 
  47:Generated_Source\PSoC4/UART_DBG_SCB_IRQ.c **** *  sets the default interrupt vector, sets the priority from the value in the
  48:Generated_Source\PSoC4/UART_DBG_SCB_IRQ.c **** *  Design Wide Resources Interrupt Editor, then enables the interrupt to the 
  49:Generated_Source\PSoC4/UART_DBG_SCB_IRQ.c **** *  interrupt controller.
  50:Generated_Source\PSoC4/UART_DBG_SCB_IRQ.c **** *
  51:Generated_Source\PSoC4/UART_DBG_SCB_IRQ.c **** * Parameters:  
  52:Generated_Source\PSoC4/UART_DBG_SCB_IRQ.c **** *   None
  53:Generated_Source\PSoC4/UART_DBG_SCB_IRQ.c **** *
  54:Generated_Source\PSoC4/UART_DBG_SCB_IRQ.c **** * Return:
  55:Generated_Source\PSoC4/UART_DBG_SCB_IRQ.c **** *   None
  56:Generated_Source\PSoC4/UART_DBG_SCB_IRQ.c **** *
  57:Generated_Source\PSoC4/UART_DBG_SCB_IRQ.c **** *******************************************************************************/
  58:Generated_Source\PSoC4/UART_DBG_SCB_IRQ.c **** void UART_DBG_SCB_IRQ_Start(void)
  59:Generated_Source\PSoC4/UART_DBG_SCB_IRQ.c **** {
  60:Generated_Source\PSoC4/UART_DBG_SCB_IRQ.c ****     /* For all we know the interrupt is active. */
  61:Generated_Source\PSoC4/UART_DBG_SCB_IRQ.c ****     UART_DBG_SCB_IRQ_Disable();
  62:Generated_Source\PSoC4/UART_DBG_SCB_IRQ.c **** 
  63:Generated_Source\PSoC4/UART_DBG_SCB_IRQ.c ****     /* Set the ISR to point to the UART_DBG_SCB_IRQ Interrupt. */
  64:Generated_Source\PSoC4/UART_DBG_SCB_IRQ.c ****     UART_DBG_SCB_IRQ_SetVector(&UART_DBG_SCB_IRQ_Interrupt);
  65:Generated_Source\PSoC4/UART_DBG_SCB_IRQ.c **** 
  66:Generated_Source\PSoC4/UART_DBG_SCB_IRQ.c ****     /* Set the priority. */
  67:Generated_Source\PSoC4/UART_DBG_SCB_IRQ.c ****     UART_DBG_SCB_IRQ_SetPriority((uint8)UART_DBG_SCB_IRQ_INTC_PRIOR_NUMBER);
  68:Generated_Source\PSoC4/UART_DBG_SCB_IRQ.c **** 
  69:Generated_Source\PSoC4/UART_DBG_SCB_IRQ.c ****     /* Enable it. */
  70:Generated_Source\PSoC4/UART_DBG_SCB_IRQ.c ****     UART_DBG_SCB_IRQ_Enable();
  71:Generated_Source\PSoC4/UART_DBG_SCB_IRQ.c **** }
  72:Generated_Source\PSoC4/UART_DBG_SCB_IRQ.c **** 
  73:Generated_Source\PSoC4/UART_DBG_SCB_IRQ.c **** 
  74:Generated_Source\PSoC4/UART_DBG_SCB_IRQ.c **** /*******************************************************************************
  75:Generated_Source\PSoC4/UART_DBG_SCB_IRQ.c **** * Function Name: UART_DBG_SCB_IRQ_StartEx
  76:Generated_Source\PSoC4/UART_DBG_SCB_IRQ.c **** ********************************************************************************
  77:Generated_Source\PSoC4/UART_DBG_SCB_IRQ.c **** *
  78:Generated_Source\PSoC4/UART_DBG_SCB_IRQ.c **** * Summary:
  79:Generated_Source\PSoC4/UART_DBG_SCB_IRQ.c **** *  Sets up the interrupt and enables it. This function disables the interrupt,
  80:Generated_Source\PSoC4/UART_DBG_SCB_IRQ.c **** *  sets the interrupt vector based on the address passed in, sets the priority 
  81:Generated_Source\PSoC4/UART_DBG_SCB_IRQ.c **** *  from the value in the Design Wide Resources Interrupt Editor, then enables 
  82:Generated_Source\PSoC4/UART_DBG_SCB_IRQ.c **** *  the interrupt to the interrupt controller.
  83:Generated_Source\PSoC4/UART_DBG_SCB_IRQ.c **** *  
  84:Generated_Source\PSoC4/UART_DBG_SCB_IRQ.c **** *  When defining ISR functions, the CY_ISR and CY_ISR_PROTO macros should be 
  85:Generated_Source\PSoC4/UART_DBG_SCB_IRQ.c **** *  used to provide consistent definition across compilers:
  86:Generated_Source\PSoC4/UART_DBG_SCB_IRQ.c **** *  
  87:Generated_Source\PSoC4/UART_DBG_SCB_IRQ.c **** *  Function definition example:
ARM GAS  C:\Users\SAIKAR~1\AppData\Local\Temp\ccu5JmB6.s 			page 3


  88:Generated_Source\PSoC4/UART_DBG_SCB_IRQ.c **** *   CY_ISR(MyISR)
  89:Generated_Source\PSoC4/UART_DBG_SCB_IRQ.c **** *   {
  90:Generated_Source\PSoC4/UART_DBG_SCB_IRQ.c **** *   }
  91:Generated_Source\PSoC4/UART_DBG_SCB_IRQ.c **** *   Function prototype example:
  92:Generated_Source\PSoC4/UART_DBG_SCB_IRQ.c **** *   CY_ISR_PROTO(MyISR);
  93:Generated_Source\PSoC4/UART_DBG_SCB_IRQ.c **** *
  94:Generated_Source\PSoC4/UART_DBG_SCB_IRQ.c **** * Parameters:  
  95:Generated_Source\PSoC4/UART_DBG_SCB_IRQ.c **** *   address: Address of the ISR to set in the interrupt vector table.
  96:Generated_Source\PSoC4/UART_DBG_SCB_IRQ.c **** *
  97:Generated_Source\PSoC4/UART_DBG_SCB_IRQ.c **** * Return:
  98:Generated_Source\PSoC4/UART_DBG_SCB_IRQ.c **** *   None
  99:Generated_Source\PSoC4/UART_DBG_SCB_IRQ.c **** *
 100:Generated_Source\PSoC4/UART_DBG_SCB_IRQ.c **** *******************************************************************************/
 101:Generated_Source\PSoC4/UART_DBG_SCB_IRQ.c **** void UART_DBG_SCB_IRQ_StartEx(cyisraddress address)
 102:Generated_Source\PSoC4/UART_DBG_SCB_IRQ.c **** {
 103:Generated_Source\PSoC4/UART_DBG_SCB_IRQ.c ****     /* For all we know the interrupt is active. */
 104:Generated_Source\PSoC4/UART_DBG_SCB_IRQ.c ****     UART_DBG_SCB_IRQ_Disable();
 105:Generated_Source\PSoC4/UART_DBG_SCB_IRQ.c **** 
 106:Generated_Source\PSoC4/UART_DBG_SCB_IRQ.c ****     /* Set the ISR to point to the UART_DBG_SCB_IRQ Interrupt. */
 107:Generated_Source\PSoC4/UART_DBG_SCB_IRQ.c ****     UART_DBG_SCB_IRQ_SetVector(address);
 108:Generated_Source\PSoC4/UART_DBG_SCB_IRQ.c **** 
 109:Generated_Source\PSoC4/UART_DBG_SCB_IRQ.c ****     /* Set the priority. */
 110:Generated_Source\PSoC4/UART_DBG_SCB_IRQ.c ****     UART_DBG_SCB_IRQ_SetPriority((uint8)UART_DBG_SCB_IRQ_INTC_PRIOR_NUMBER);
 111:Generated_Source\PSoC4/UART_DBG_SCB_IRQ.c **** 
 112:Generated_Source\PSoC4/UART_DBG_SCB_IRQ.c ****     /* Enable it. */
 113:Generated_Source\PSoC4/UART_DBG_SCB_IRQ.c ****     UART_DBG_SCB_IRQ_Enable();
 114:Generated_Source\PSoC4/UART_DBG_SCB_IRQ.c **** }
 115:Generated_Source\PSoC4/UART_DBG_SCB_IRQ.c **** 
 116:Generated_Source\PSoC4/UART_DBG_SCB_IRQ.c **** 
 117:Generated_Source\PSoC4/UART_DBG_SCB_IRQ.c **** /*******************************************************************************
 118:Generated_Source\PSoC4/UART_DBG_SCB_IRQ.c **** * Function Name: UART_DBG_SCB_IRQ_Stop
 119:Generated_Source\PSoC4/UART_DBG_SCB_IRQ.c **** ********************************************************************************
 120:Generated_Source\PSoC4/UART_DBG_SCB_IRQ.c **** *
 121:Generated_Source\PSoC4/UART_DBG_SCB_IRQ.c **** * Summary:
 122:Generated_Source\PSoC4/UART_DBG_SCB_IRQ.c **** *   Disables and removes the interrupt.
 123:Generated_Source\PSoC4/UART_DBG_SCB_IRQ.c **** *
 124:Generated_Source\PSoC4/UART_DBG_SCB_IRQ.c **** * Parameters:  
 125:Generated_Source\PSoC4/UART_DBG_SCB_IRQ.c **** *   None
 126:Generated_Source\PSoC4/UART_DBG_SCB_IRQ.c **** *
 127:Generated_Source\PSoC4/UART_DBG_SCB_IRQ.c **** * Return:
 128:Generated_Source\PSoC4/UART_DBG_SCB_IRQ.c **** *   None
 129:Generated_Source\PSoC4/UART_DBG_SCB_IRQ.c **** *
 130:Generated_Source\PSoC4/UART_DBG_SCB_IRQ.c **** *******************************************************************************/
 131:Generated_Source\PSoC4/UART_DBG_SCB_IRQ.c **** void UART_DBG_SCB_IRQ_Stop(void)
 132:Generated_Source\PSoC4/UART_DBG_SCB_IRQ.c **** {
 133:Generated_Source\PSoC4/UART_DBG_SCB_IRQ.c ****     /* Disable this interrupt. */
 134:Generated_Source\PSoC4/UART_DBG_SCB_IRQ.c ****     UART_DBG_SCB_IRQ_Disable();
 135:Generated_Source\PSoC4/UART_DBG_SCB_IRQ.c **** 
 136:Generated_Source\PSoC4/UART_DBG_SCB_IRQ.c ****     /* Set the ISR to point to the passive one. */
 137:Generated_Source\PSoC4/UART_DBG_SCB_IRQ.c ****     UART_DBG_SCB_IRQ_SetVector(&IntDefaultHandler);
 138:Generated_Source\PSoC4/UART_DBG_SCB_IRQ.c **** }
 139:Generated_Source\PSoC4/UART_DBG_SCB_IRQ.c **** 
 140:Generated_Source\PSoC4/UART_DBG_SCB_IRQ.c **** 
 141:Generated_Source\PSoC4/UART_DBG_SCB_IRQ.c **** /*******************************************************************************
 142:Generated_Source\PSoC4/UART_DBG_SCB_IRQ.c **** * Function Name: UART_DBG_SCB_IRQ_Interrupt
 143:Generated_Source\PSoC4/UART_DBG_SCB_IRQ.c **** ********************************************************************************
 144:Generated_Source\PSoC4/UART_DBG_SCB_IRQ.c **** *
ARM GAS  C:\Users\SAIKAR~1\AppData\Local\Temp\ccu5JmB6.s 			page 4


 145:Generated_Source\PSoC4/UART_DBG_SCB_IRQ.c **** * Summary:
 146:Generated_Source\PSoC4/UART_DBG_SCB_IRQ.c **** *   The default Interrupt Service Routine for UART_DBG_SCB_IRQ.
 147:Generated_Source\PSoC4/UART_DBG_SCB_IRQ.c **** *
 148:Generated_Source\PSoC4/UART_DBG_SCB_IRQ.c **** *   Add custom code between the START and END comments to keep the next version
 149:Generated_Source\PSoC4/UART_DBG_SCB_IRQ.c **** *   of this file from over-writing your code.
 150:Generated_Source\PSoC4/UART_DBG_SCB_IRQ.c **** *
 151:Generated_Source\PSoC4/UART_DBG_SCB_IRQ.c **** *   Note You may use either the default ISR by using this API, or you may define
 152:Generated_Source\PSoC4/UART_DBG_SCB_IRQ.c **** *   your own separate ISR through ISR_StartEx().
 153:Generated_Source\PSoC4/UART_DBG_SCB_IRQ.c **** *
 154:Generated_Source\PSoC4/UART_DBG_SCB_IRQ.c **** * Parameters:  
 155:Generated_Source\PSoC4/UART_DBG_SCB_IRQ.c **** *   None
 156:Generated_Source\PSoC4/UART_DBG_SCB_IRQ.c **** *
 157:Generated_Source\PSoC4/UART_DBG_SCB_IRQ.c **** * Return:
 158:Generated_Source\PSoC4/UART_DBG_SCB_IRQ.c **** *   None
 159:Generated_Source\PSoC4/UART_DBG_SCB_IRQ.c **** *
 160:Generated_Source\PSoC4/UART_DBG_SCB_IRQ.c **** *******************************************************************************/
 161:Generated_Source\PSoC4/UART_DBG_SCB_IRQ.c **** CY_ISR(UART_DBG_SCB_IRQ_Interrupt)
 162:Generated_Source\PSoC4/UART_DBG_SCB_IRQ.c **** {
  28              		.loc 1 162 0
  29              		.cfi_startproc
  30              		@ args = 0, pretend = 0, frame = 0
  31              		@ frame_needed = 0, uses_anonymous_args = 0
  32 0000 70B5     		push	{r4, r5, r6, lr}
  33              		.cfi_def_cfa_offset 16
  34              		.cfi_offset 4, -16
  35              		.cfi_offset 5, -12
  36              		.cfi_offset 6, -8
  37              		.cfi_offset 14, -4
 163:Generated_Source\PSoC4/UART_DBG_SCB_IRQ.c ****     #ifdef UART_DBG_SCB_IRQ_INTERRUPT_INTERRUPT_CALLBACK
 164:Generated_Source\PSoC4/UART_DBG_SCB_IRQ.c ****         UART_DBG_SCB_IRQ_Interrupt_InterruptCallback();
 165:Generated_Source\PSoC4/UART_DBG_SCB_IRQ.c ****     #endif /* UART_DBG_SCB_IRQ_INTERRUPT_INTERRUPT_CALLBACK */ 
 166:Generated_Source\PSoC4/UART_DBG_SCB_IRQ.c **** 
 167:Generated_Source\PSoC4/UART_DBG_SCB_IRQ.c ****     /*  Place your Interrupt code here. */
 168:Generated_Source\PSoC4/UART_DBG_SCB_IRQ.c ****     /* `#START UART_DBG_SCB_IRQ_Interrupt` */
 169:Generated_Source\PSoC4/UART_DBG_SCB_IRQ.c ****     uint8_t buff_depth,x;
 170:Generated_Source\PSoC4/UART_DBG_SCB_IRQ.c ****     
 171:Generated_Source\PSoC4/UART_DBG_SCB_IRQ.c ****     buff_depth = UART_DBG_SpiUartGetRxBufferSize();
  38              		.loc 1 171 0
  39 0002 FFF7FEFF 		bl	UART_DBG_SpiUartGetRxBufferSize
  40              	.LVL0:
  41 0006 C5B2     		uxtb	r5, r0
  42              	.LVL1:
 172:Generated_Source\PSoC4/UART_DBG_SCB_IRQ.c ****     
 173:Generated_Source\PSoC4/UART_DBG_SCB_IRQ.c ****     for (x=0; x<buff_depth; x++)
  43              		.loc 1 173 0
  44 0008 0024     		movs	r4, #0
  45 000a 0CE0     		b	.L2
  46              	.LVL2:
  47              	.L3:
 174:Generated_Source\PSoC4/UART_DBG_SCB_IRQ.c ****       rx_bytes_dbg_buff[num_rx_bytes_dbg_buff++] = UART_DBG_UartGetByte();
  48              		.loc 1 174 0 discriminator 3
  49 000c 194A     		ldr	r2, .L8
  50 000e 1678     		ldrb	r6, [r2]
  51 0010 F6B2     		uxtb	r6, r6
  52 0012 731C     		adds	r3, r6, #1
  53 0014 DBB2     		uxtb	r3, r3
  54 0016 1370     		strb	r3, [r2]
ARM GAS  C:\Users\SAIKAR~1\AppData\Local\Temp\ccu5JmB6.s 			page 5


  55 0018 FFF7FEFF 		bl	UART_DBG_UartGetByte
  56              	.LVL3:
  57 001c C0B2     		uxtb	r0, r0
  58 001e 164B     		ldr	r3, .L8+4
  59 0020 9855     		strb	r0, [r3, r6]
 173:Generated_Source\PSoC4/UART_DBG_SCB_IRQ.c ****       rx_bytes_dbg_buff[num_rx_bytes_dbg_buff++] = UART_DBG_UartGetByte();
  60              		.loc 1 173 0 discriminator 3
  61 0022 0134     		adds	r4, r4, #1
  62              	.LVL4:
  63 0024 E4B2     		uxtb	r4, r4
  64              	.LVL5:
  65              	.L2:
 173:Generated_Source\PSoC4/UART_DBG_SCB_IRQ.c ****       rx_bytes_dbg_buff[num_rx_bytes_dbg_buff++] = UART_DBG_UartGetByte();
  66              		.loc 1 173 0 is_stmt 0 discriminator 1
  67 0026 AC42     		cmp	r4, r5
  68 0028 F0D3     		bcc	.L3
 175:Generated_Source\PSoC4/UART_DBG_SCB_IRQ.c ****     
 176:Generated_Source\PSoC4/UART_DBG_SCB_IRQ.c ****     UART_DBG_ClearRxInterruptSource(0xFF);
  69              		.loc 1 176 0 is_stmt 1
  70 002a FF22     		movs	r2, #255
  71 002c 134B     		ldr	r3, .L8+8
  72 002e 1A60     		str	r2, [r3]
 177:Generated_Source\PSoC4/UART_DBG_SCB_IRQ.c ****     
 178:Generated_Source\PSoC4/UART_DBG_SCB_IRQ.c ****     if (rx_bytes_dbg_buff[num_rx_bytes_dbg_buff-1]==0x0D) {             // if it was a carriage ret
  73              		.loc 1 178 0
  74 0030 104B     		ldr	r3, .L8
  75 0032 1B78     		ldrb	r3, [r3]
  76 0034 013B     		subs	r3, r3, #1
  77 0036 104A     		ldr	r2, .L8+4
  78 0038 D35C     		ldrb	r3, [r2, r3]
  79 003a 0D2B     		cmp	r3, #13
  80 003c 19D1     		bne	.L1
  81 003e 07E0     		b	.L7
  82              	.LVL6:
  83              	.L6:
 179:Generated_Source\PSoC4/UART_DBG_SCB_IRQ.c ****         for (x=0; x<num_rx_bytes_dbg_buff; x++) {
 180:Generated_Source\PSoC4/UART_DBG_SCB_IRQ.c ****             rx_bytes_dbg[x]=rx_bytes_dbg_buff[x];
  84              		.loc 1 180 0 discriminator 3
  85 0040 0D4A     		ldr	r2, .L8+4
  86 0042 D25C     		ldrb	r2, [r2, r3]
  87 0044 D2B2     		uxtb	r2, r2
  88 0046 0E49     		ldr	r1, .L8+12
  89 0048 CA54     		strb	r2, [r1, r3]
 179:Generated_Source\PSoC4/UART_DBG_SCB_IRQ.c ****         for (x=0; x<num_rx_bytes_dbg_buff; x++) {
  90              		.loc 1 179 0 discriminator 3
  91 004a 0133     		adds	r3, r3, #1
  92              	.LVL7:
  93 004c DBB2     		uxtb	r3, r3
  94              	.LVL8:
  95 004e 00E0     		b	.L4
  96              	.LVL9:
  97              	.L7:
  98 0050 0023     		movs	r3, #0
  99              	.LVL10:
 100              	.L4:
 179:Generated_Source\PSoC4/UART_DBG_SCB_IRQ.c ****         for (x=0; x<num_rx_bytes_dbg_buff; x++) {
 101              		.loc 1 179 0 is_stmt 0 discriminator 1
ARM GAS  C:\Users\SAIKAR~1\AppData\Local\Temp\ccu5JmB6.s 			page 6


 102 0052 084A     		ldr	r2, .L8
 103 0054 1278     		ldrb	r2, [r2]
 104 0056 D2B2     		uxtb	r2, r2
 105 0058 9342     		cmp	r3, r2
 106 005a F1D3     		bcc	.L6
 181:Generated_Source\PSoC4/UART_DBG_SCB_IRQ.c ****         }
 182:Generated_Source\PSoC4/UART_DBG_SCB_IRQ.c ****         num_rx_bytes_dbg = num_rx_bytes_dbg_buff;
 107              		.loc 1 182 0 is_stmt 1
 108 005c 054A     		ldr	r2, .L8
 109 005e 1378     		ldrb	r3, [r2]
 110              	.LVL11:
 111 0060 DBB2     		uxtb	r3, r3
 112 0062 0849     		ldr	r1, .L8+16
 113 0064 0B70     		strb	r3, [r1]
 183:Generated_Source\PSoC4/UART_DBG_SCB_IRQ.c ****         num_rx_bytes_dbg_buff = 0;
 114              		.loc 1 183 0
 115 0066 0023     		movs	r3, #0
 116 0068 1370     		strb	r3, [r2]
 184:Generated_Source\PSoC4/UART_DBG_SCB_IRQ.c ****         enqueue_task(DBG_CMD_PROC,2);
 117              		.loc 1 184 0
 118 006a 0221     		movs	r1, #2
 119 006c 0120     		movs	r0, #1
 120 006e FFF7FEFF 		bl	enqueue_task
 121              	.LVL12:
 122              	.L1:
 185:Generated_Source\PSoC4/UART_DBG_SCB_IRQ.c ****     }
 186:Generated_Source\PSoC4/UART_DBG_SCB_IRQ.c ****     /* `#END` */
 187:Generated_Source\PSoC4/UART_DBG_SCB_IRQ.c **** }
 123              		.loc 1 187 0
 124              		@ sp needed
 125              	.LVL13:
 126 0072 70BD     		pop	{r4, r5, r6, pc}
 127              	.L9:
 128              		.align	2
 129              	.L8:
 130 0074 00000000 		.word	num_rx_bytes_dbg_buff
 131 0078 00000000 		.word	rx_bytes_dbg_buff
 132 007c C00F2440 		.word	1076105152
 133 0080 00000000 		.word	rx_bytes_dbg
 134 0084 00000000 		.word	num_rx_bytes_dbg
 135              		.cfi_endproc
 136              	.LFE4:
 137              		.size	UART_DBG_SCB_IRQ_Interrupt, .-UART_DBG_SCB_IRQ_Interrupt
 138              		.section	.text.UART_DBG_SCB_IRQ_SetVector,"ax",%progbits
 139              		.align	2
 140              		.global	UART_DBG_SCB_IRQ_SetVector
 141              		.code	16
 142              		.thumb_func
 143              		.type	UART_DBG_SCB_IRQ_SetVector, %function
 144              	UART_DBG_SCB_IRQ_SetVector:
 145              	.LFB5:
 188:Generated_Source\PSoC4/UART_DBG_SCB_IRQ.c **** 
 189:Generated_Source\PSoC4/UART_DBG_SCB_IRQ.c **** 
 190:Generated_Source\PSoC4/UART_DBG_SCB_IRQ.c **** /*******************************************************************************
 191:Generated_Source\PSoC4/UART_DBG_SCB_IRQ.c **** * Function Name: UART_DBG_SCB_IRQ_SetVector
 192:Generated_Source\PSoC4/UART_DBG_SCB_IRQ.c **** ********************************************************************************
 193:Generated_Source\PSoC4/UART_DBG_SCB_IRQ.c **** *
ARM GAS  C:\Users\SAIKAR~1\AppData\Local\Temp\ccu5JmB6.s 			page 7


 194:Generated_Source\PSoC4/UART_DBG_SCB_IRQ.c **** * Summary:
 195:Generated_Source\PSoC4/UART_DBG_SCB_IRQ.c **** *   Change the ISR vector for the Interrupt. Note calling UART_DBG_SCB_IRQ_Start
 196:Generated_Source\PSoC4/UART_DBG_SCB_IRQ.c **** *   will override any effect this method would have had. To set the vector 
 197:Generated_Source\PSoC4/UART_DBG_SCB_IRQ.c **** *   before the component has been started use UART_DBG_SCB_IRQ_StartEx instead.
 198:Generated_Source\PSoC4/UART_DBG_SCB_IRQ.c **** * 
 199:Generated_Source\PSoC4/UART_DBG_SCB_IRQ.c **** *   When defining ISR functions, the CY_ISR and CY_ISR_PROTO macros should be 
 200:Generated_Source\PSoC4/UART_DBG_SCB_IRQ.c **** *   used to provide consistent definition across compilers:
 201:Generated_Source\PSoC4/UART_DBG_SCB_IRQ.c **** *
 202:Generated_Source\PSoC4/UART_DBG_SCB_IRQ.c **** *   Function definition example:
 203:Generated_Source\PSoC4/UART_DBG_SCB_IRQ.c **** *   CY_ISR(MyISR)
 204:Generated_Source\PSoC4/UART_DBG_SCB_IRQ.c **** *   {
 205:Generated_Source\PSoC4/UART_DBG_SCB_IRQ.c **** *   }
 206:Generated_Source\PSoC4/UART_DBG_SCB_IRQ.c **** *
 207:Generated_Source\PSoC4/UART_DBG_SCB_IRQ.c **** *   Function prototype example:
 208:Generated_Source\PSoC4/UART_DBG_SCB_IRQ.c **** *     CY_ISR_PROTO(MyISR);
 209:Generated_Source\PSoC4/UART_DBG_SCB_IRQ.c **** *
 210:Generated_Source\PSoC4/UART_DBG_SCB_IRQ.c **** * Parameters:
 211:Generated_Source\PSoC4/UART_DBG_SCB_IRQ.c **** *   address: Address of the ISR to set in the interrupt vector table.
 212:Generated_Source\PSoC4/UART_DBG_SCB_IRQ.c **** *
 213:Generated_Source\PSoC4/UART_DBG_SCB_IRQ.c **** * Return:
 214:Generated_Source\PSoC4/UART_DBG_SCB_IRQ.c **** *   None
 215:Generated_Source\PSoC4/UART_DBG_SCB_IRQ.c **** *
 216:Generated_Source\PSoC4/UART_DBG_SCB_IRQ.c **** *******************************************************************************/
 217:Generated_Source\PSoC4/UART_DBG_SCB_IRQ.c **** void UART_DBG_SCB_IRQ_SetVector(cyisraddress address)
 218:Generated_Source\PSoC4/UART_DBG_SCB_IRQ.c **** {
 146              		.loc 1 218 0
 147              		.cfi_startproc
 148              		@ args = 0, pretend = 0, frame = 0
 149              		@ frame_needed = 0, uses_anonymous_args = 0
 150              		@ link register save eliminated.
 151              	.LVL14:
 219:Generated_Source\PSoC4/UART_DBG_SCB_IRQ.c ****     CyRamVectors[CYINT_IRQ_BASE + UART_DBG_SCB_IRQ__INTC_NUMBER] = address;
 152              		.loc 1 219 0
 153 0000 014B     		ldr	r3, .L11
 154 0002 1866     		str	r0, [r3, #96]
 220:Generated_Source\PSoC4/UART_DBG_SCB_IRQ.c **** }
 155              		.loc 1 220 0
 156              		@ sp needed
 157 0004 7047     		bx	lr
 158              	.L12:
 159 0006 C046     		.align	2
 160              	.L11:
 161 0008 00000000 		.word	CyRamVectors
 162              		.cfi_endproc
 163              	.LFE5:
 164              		.size	UART_DBG_SCB_IRQ_SetVector, .-UART_DBG_SCB_IRQ_SetVector
 165              		.section	.text.UART_DBG_SCB_IRQ_GetVector,"ax",%progbits
 166              		.align	2
 167              		.global	UART_DBG_SCB_IRQ_GetVector
 168              		.code	16
 169              		.thumb_func
 170              		.type	UART_DBG_SCB_IRQ_GetVector, %function
 171              	UART_DBG_SCB_IRQ_GetVector:
 172              	.LFB6:
 221:Generated_Source\PSoC4/UART_DBG_SCB_IRQ.c **** 
 222:Generated_Source\PSoC4/UART_DBG_SCB_IRQ.c **** 
 223:Generated_Source\PSoC4/UART_DBG_SCB_IRQ.c **** /*******************************************************************************
ARM GAS  C:\Users\SAIKAR~1\AppData\Local\Temp\ccu5JmB6.s 			page 8


 224:Generated_Source\PSoC4/UART_DBG_SCB_IRQ.c **** * Function Name: UART_DBG_SCB_IRQ_GetVector
 225:Generated_Source\PSoC4/UART_DBG_SCB_IRQ.c **** ********************************************************************************
 226:Generated_Source\PSoC4/UART_DBG_SCB_IRQ.c **** *
 227:Generated_Source\PSoC4/UART_DBG_SCB_IRQ.c **** * Summary:
 228:Generated_Source\PSoC4/UART_DBG_SCB_IRQ.c **** *   Gets the "address" of the current ISR vector for the Interrupt.
 229:Generated_Source\PSoC4/UART_DBG_SCB_IRQ.c **** *
 230:Generated_Source\PSoC4/UART_DBG_SCB_IRQ.c **** * Parameters:
 231:Generated_Source\PSoC4/UART_DBG_SCB_IRQ.c **** *   None
 232:Generated_Source\PSoC4/UART_DBG_SCB_IRQ.c **** *
 233:Generated_Source\PSoC4/UART_DBG_SCB_IRQ.c **** * Return:
 234:Generated_Source\PSoC4/UART_DBG_SCB_IRQ.c **** *   Address of the ISR in the interrupt vector table.
 235:Generated_Source\PSoC4/UART_DBG_SCB_IRQ.c **** *
 236:Generated_Source\PSoC4/UART_DBG_SCB_IRQ.c **** *******************************************************************************/
 237:Generated_Source\PSoC4/UART_DBG_SCB_IRQ.c **** cyisraddress UART_DBG_SCB_IRQ_GetVector(void)
 238:Generated_Source\PSoC4/UART_DBG_SCB_IRQ.c **** {
 173              		.loc 1 238 0
 174              		.cfi_startproc
 175              		@ args = 0, pretend = 0, frame = 0
 176              		@ frame_needed = 0, uses_anonymous_args = 0
 177              		@ link register save eliminated.
 239:Generated_Source\PSoC4/UART_DBG_SCB_IRQ.c ****     return CyRamVectors[CYINT_IRQ_BASE + UART_DBG_SCB_IRQ__INTC_NUMBER];
 178              		.loc 1 239 0
 179 0000 014B     		ldr	r3, .L14
 180 0002 186E     		ldr	r0, [r3, #96]
 240:Generated_Source\PSoC4/UART_DBG_SCB_IRQ.c **** }
 181              		.loc 1 240 0
 182              		@ sp needed
 183 0004 7047     		bx	lr
 184              	.L15:
 185 0006 C046     		.align	2
 186              	.L14:
 187 0008 00000000 		.word	CyRamVectors
 188              		.cfi_endproc
 189              	.LFE6:
 190              		.size	UART_DBG_SCB_IRQ_GetVector, .-UART_DBG_SCB_IRQ_GetVector
 191              		.section	.text.UART_DBG_SCB_IRQ_SetPriority,"ax",%progbits
 192              		.align	2
 193              		.global	UART_DBG_SCB_IRQ_SetPriority
 194              		.code	16
 195              		.thumb_func
 196              		.type	UART_DBG_SCB_IRQ_SetPriority, %function
 197              	UART_DBG_SCB_IRQ_SetPriority:
 198              	.LFB7:
 241:Generated_Source\PSoC4/UART_DBG_SCB_IRQ.c **** 
 242:Generated_Source\PSoC4/UART_DBG_SCB_IRQ.c **** 
 243:Generated_Source\PSoC4/UART_DBG_SCB_IRQ.c **** /*******************************************************************************
 244:Generated_Source\PSoC4/UART_DBG_SCB_IRQ.c **** * Function Name: UART_DBG_SCB_IRQ_SetPriority
 245:Generated_Source\PSoC4/UART_DBG_SCB_IRQ.c **** ********************************************************************************
 246:Generated_Source\PSoC4/UART_DBG_SCB_IRQ.c **** *
 247:Generated_Source\PSoC4/UART_DBG_SCB_IRQ.c **** * Summary:
 248:Generated_Source\PSoC4/UART_DBG_SCB_IRQ.c **** *   Sets the Priority of the Interrupt. 
 249:Generated_Source\PSoC4/UART_DBG_SCB_IRQ.c **** *
 250:Generated_Source\PSoC4/UART_DBG_SCB_IRQ.c **** *   Note calling UART_DBG_SCB_IRQ_Start or UART_DBG_SCB_IRQ_StartEx will 
 251:Generated_Source\PSoC4/UART_DBG_SCB_IRQ.c **** *   override any effect this API would have had. This API should only be called
 252:Generated_Source\PSoC4/UART_DBG_SCB_IRQ.c **** *   after UART_DBG_SCB_IRQ_Start or UART_DBG_SCB_IRQ_StartEx has been called. 
 253:Generated_Source\PSoC4/UART_DBG_SCB_IRQ.c **** *   To set the initial priority for the component, use the Design-Wide Resources
 254:Generated_Source\PSoC4/UART_DBG_SCB_IRQ.c **** *   Interrupt Editor.
ARM GAS  C:\Users\SAIKAR~1\AppData\Local\Temp\ccu5JmB6.s 			page 9


 255:Generated_Source\PSoC4/UART_DBG_SCB_IRQ.c **** *
 256:Generated_Source\PSoC4/UART_DBG_SCB_IRQ.c **** *   Note This API has no effect on Non-maskable interrupt NMI).
 257:Generated_Source\PSoC4/UART_DBG_SCB_IRQ.c **** *
 258:Generated_Source\PSoC4/UART_DBG_SCB_IRQ.c **** * Parameters:
 259:Generated_Source\PSoC4/UART_DBG_SCB_IRQ.c **** *   priority: Priority of the interrupt, 0 being the highest priority
 260:Generated_Source\PSoC4/UART_DBG_SCB_IRQ.c **** *             PSoC 3 and PSoC 5LP: Priority is from 0 to 7.
 261:Generated_Source\PSoC4/UART_DBG_SCB_IRQ.c **** *             PSoC 4: Priority is from 0 to 3.
 262:Generated_Source\PSoC4/UART_DBG_SCB_IRQ.c **** *
 263:Generated_Source\PSoC4/UART_DBG_SCB_IRQ.c **** * Return:
 264:Generated_Source\PSoC4/UART_DBG_SCB_IRQ.c **** *   None
 265:Generated_Source\PSoC4/UART_DBG_SCB_IRQ.c **** *
 266:Generated_Source\PSoC4/UART_DBG_SCB_IRQ.c **** *******************************************************************************/
 267:Generated_Source\PSoC4/UART_DBG_SCB_IRQ.c **** void UART_DBG_SCB_IRQ_SetPriority(uint8 priority)
 268:Generated_Source\PSoC4/UART_DBG_SCB_IRQ.c **** {
 199              		.loc 1 268 0
 200              		.cfi_startproc
 201              		@ args = 0, pretend = 0, frame = 0
 202              		@ frame_needed = 0, uses_anonymous_args = 0
 203              	.LVL15:
 204 0000 10B5     		push	{r4, lr}
 205              		.cfi_def_cfa_offset 8
 206              		.cfi_offset 4, -8
 207              		.cfi_offset 14, -4
 208 0002 0400     		movs	r4, r0
 209              	.LVL16:
 269:Generated_Source\PSoC4/UART_DBG_SCB_IRQ.c **** 	uint8 interruptState;
 270:Generated_Source\PSoC4/UART_DBG_SCB_IRQ.c ****     uint32 priorityOffset = ((UART_DBG_SCB_IRQ__INTC_NUMBER % 4u) * 8u) + 6u;
 271:Generated_Source\PSoC4/UART_DBG_SCB_IRQ.c ****     
 272:Generated_Source\PSoC4/UART_DBG_SCB_IRQ.c **** 	interruptState = CyEnterCriticalSection();
 210              		.loc 1 272 0
 211 0004 FFF7FEFF 		bl	CyEnterCriticalSection
 212              	.LVL17:
 273:Generated_Source\PSoC4/UART_DBG_SCB_IRQ.c ****     *UART_DBG_SCB_IRQ_INTC_PRIOR = (*UART_DBG_SCB_IRQ_INTC_PRIOR & (uint32)(~UART_DBG_SCB_IRQ__INTC
 213              		.loc 1 273 0
 214 0008 044A     		ldr	r2, .L17
 215 000a 1368     		ldr	r3, [r2]
 216 000c C021     		movs	r1, #192
 217 000e 8B43     		bics	r3, r1
 274:Generated_Source\PSoC4/UART_DBG_SCB_IRQ.c ****                                     ((uint32)priority << priorityOffset);
 218              		.loc 1 274 0
 219 0010 A401     		lsls	r4, r4, #6
 273:Generated_Source\PSoC4/UART_DBG_SCB_IRQ.c ****     *UART_DBG_SCB_IRQ_INTC_PRIOR = (*UART_DBG_SCB_IRQ_INTC_PRIOR & (uint32)(~UART_DBG_SCB_IRQ__INTC
 220              		.loc 1 273 0
 221 0012 1C43     		orrs	r4, r3
 222 0014 1460     		str	r4, [r2]
 275:Generated_Source\PSoC4/UART_DBG_SCB_IRQ.c **** 	CyExitCriticalSection(interruptState);
 223              		.loc 1 275 0
 224 0016 FFF7FEFF 		bl	CyExitCriticalSection
 225              	.LVL18:
 276:Generated_Source\PSoC4/UART_DBG_SCB_IRQ.c **** }
 226              		.loc 1 276 0
 227              		@ sp needed
 228 001a 10BD     		pop	{r4, pc}
 229              	.L18:
 230              		.align	2
 231              	.L17:
 232 001c 08E400E0 		.word	-536812536
ARM GAS  C:\Users\SAIKAR~1\AppData\Local\Temp\ccu5JmB6.s 			page 10


 233              		.cfi_endproc
 234              	.LFE7:
 235              		.size	UART_DBG_SCB_IRQ_SetPriority, .-UART_DBG_SCB_IRQ_SetPriority
 236              		.section	.text.UART_DBG_SCB_IRQ_GetPriority,"ax",%progbits
 237              		.align	2
 238              		.global	UART_DBG_SCB_IRQ_GetPriority
 239              		.code	16
 240              		.thumb_func
 241              		.type	UART_DBG_SCB_IRQ_GetPriority, %function
 242              	UART_DBG_SCB_IRQ_GetPriority:
 243              	.LFB8:
 277:Generated_Source\PSoC4/UART_DBG_SCB_IRQ.c **** 
 278:Generated_Source\PSoC4/UART_DBG_SCB_IRQ.c **** 
 279:Generated_Source\PSoC4/UART_DBG_SCB_IRQ.c **** /*******************************************************************************
 280:Generated_Source\PSoC4/UART_DBG_SCB_IRQ.c **** * Function Name: UART_DBG_SCB_IRQ_GetPriority
 281:Generated_Source\PSoC4/UART_DBG_SCB_IRQ.c **** ********************************************************************************
 282:Generated_Source\PSoC4/UART_DBG_SCB_IRQ.c **** *
 283:Generated_Source\PSoC4/UART_DBG_SCB_IRQ.c **** * Summary:
 284:Generated_Source\PSoC4/UART_DBG_SCB_IRQ.c **** *   Gets the Priority of the Interrupt.
 285:Generated_Source\PSoC4/UART_DBG_SCB_IRQ.c **** *
 286:Generated_Source\PSoC4/UART_DBG_SCB_IRQ.c **** * Parameters:
 287:Generated_Source\PSoC4/UART_DBG_SCB_IRQ.c **** *   None
 288:Generated_Source\PSoC4/UART_DBG_SCB_IRQ.c **** *
 289:Generated_Source\PSoC4/UART_DBG_SCB_IRQ.c **** * Return:
 290:Generated_Source\PSoC4/UART_DBG_SCB_IRQ.c **** *   Priority of the interrupt, 0 being the highest priority
 291:Generated_Source\PSoC4/UART_DBG_SCB_IRQ.c **** *    PSoC 3 and PSoC 5LP: Priority is from 0 to 7.
 292:Generated_Source\PSoC4/UART_DBG_SCB_IRQ.c **** *    PSoC 4: Priority is from 0 to 3.
 293:Generated_Source\PSoC4/UART_DBG_SCB_IRQ.c **** *
 294:Generated_Source\PSoC4/UART_DBG_SCB_IRQ.c **** *******************************************************************************/
 295:Generated_Source\PSoC4/UART_DBG_SCB_IRQ.c **** uint8 UART_DBG_SCB_IRQ_GetPriority(void)
 296:Generated_Source\PSoC4/UART_DBG_SCB_IRQ.c **** {
 244              		.loc 1 296 0
 245              		.cfi_startproc
 246              		@ args = 0, pretend = 0, frame = 0
 247              		@ frame_needed = 0, uses_anonymous_args = 0
 248              		@ link register save eliminated.
 249              	.LVL19:
 297:Generated_Source\PSoC4/UART_DBG_SCB_IRQ.c ****     uint32 priority;
 298:Generated_Source\PSoC4/UART_DBG_SCB_IRQ.c **** 	uint32 priorityOffset = ((UART_DBG_SCB_IRQ__INTC_NUMBER % 4u) * 8u) + 6u;
 299:Generated_Source\PSoC4/UART_DBG_SCB_IRQ.c **** 
 300:Generated_Source\PSoC4/UART_DBG_SCB_IRQ.c ****     priority = (*UART_DBG_SCB_IRQ_INTC_PRIOR & UART_DBG_SCB_IRQ__INTC_PRIOR_MASK) >> priorityOffset
 250              		.loc 1 300 0
 251 0000 024B     		ldr	r3, .L20
 252 0002 1868     		ldr	r0, [r3]
 253 0004 8009     		lsrs	r0, r0, #6
 254              	.LVL20:
 301:Generated_Source\PSoC4/UART_DBG_SCB_IRQ.c **** 
 302:Generated_Source\PSoC4/UART_DBG_SCB_IRQ.c ****     return (uint8)priority;
 255              		.loc 1 302 0
 256 0006 0323     		movs	r3, #3
 257 0008 1840     		ands	r0, r3
 258              	.LVL21:
 303:Generated_Source\PSoC4/UART_DBG_SCB_IRQ.c **** }
 259              		.loc 1 303 0
 260              		@ sp needed
 261 000a 7047     		bx	lr
 262              	.L21:
ARM GAS  C:\Users\SAIKAR~1\AppData\Local\Temp\ccu5JmB6.s 			page 11


 263              		.align	2
 264              	.L20:
 265 000c 08E400E0 		.word	-536812536
 266              		.cfi_endproc
 267              	.LFE8:
 268              		.size	UART_DBG_SCB_IRQ_GetPriority, .-UART_DBG_SCB_IRQ_GetPriority
 269              		.section	.text.UART_DBG_SCB_IRQ_Enable,"ax",%progbits
 270              		.align	2
 271              		.global	UART_DBG_SCB_IRQ_Enable
 272              		.code	16
 273              		.thumb_func
 274              		.type	UART_DBG_SCB_IRQ_Enable, %function
 275              	UART_DBG_SCB_IRQ_Enable:
 276              	.LFB9:
 304:Generated_Source\PSoC4/UART_DBG_SCB_IRQ.c **** 
 305:Generated_Source\PSoC4/UART_DBG_SCB_IRQ.c **** 
 306:Generated_Source\PSoC4/UART_DBG_SCB_IRQ.c **** /*******************************************************************************
 307:Generated_Source\PSoC4/UART_DBG_SCB_IRQ.c **** * Function Name: UART_DBG_SCB_IRQ_Enable
 308:Generated_Source\PSoC4/UART_DBG_SCB_IRQ.c **** ********************************************************************************
 309:Generated_Source\PSoC4/UART_DBG_SCB_IRQ.c **** *
 310:Generated_Source\PSoC4/UART_DBG_SCB_IRQ.c **** * Summary:
 311:Generated_Source\PSoC4/UART_DBG_SCB_IRQ.c **** *   Enables the interrupt to the interrupt controller. Do not call this function
 312:Generated_Source\PSoC4/UART_DBG_SCB_IRQ.c **** *   unless ISR_Start() has been called or the functionality of the ISR_Start() 
 313:Generated_Source\PSoC4/UART_DBG_SCB_IRQ.c **** *   function, which sets the vector and the priority, has been called.
 314:Generated_Source\PSoC4/UART_DBG_SCB_IRQ.c **** *
 315:Generated_Source\PSoC4/UART_DBG_SCB_IRQ.c **** * Parameters:
 316:Generated_Source\PSoC4/UART_DBG_SCB_IRQ.c **** *   None
 317:Generated_Source\PSoC4/UART_DBG_SCB_IRQ.c **** *
 318:Generated_Source\PSoC4/UART_DBG_SCB_IRQ.c **** * Return:
 319:Generated_Source\PSoC4/UART_DBG_SCB_IRQ.c **** *   None
 320:Generated_Source\PSoC4/UART_DBG_SCB_IRQ.c **** *
 321:Generated_Source\PSoC4/UART_DBG_SCB_IRQ.c **** *******************************************************************************/
 322:Generated_Source\PSoC4/UART_DBG_SCB_IRQ.c **** void UART_DBG_SCB_IRQ_Enable(void)
 323:Generated_Source\PSoC4/UART_DBG_SCB_IRQ.c **** {
 277              		.loc 1 323 0
 278              		.cfi_startproc
 279              		@ args = 0, pretend = 0, frame = 0
 280              		@ frame_needed = 0, uses_anonymous_args = 0
 281              		@ link register save eliminated.
 324:Generated_Source\PSoC4/UART_DBG_SCB_IRQ.c ****     /* Enable the general interrupt. */
 325:Generated_Source\PSoC4/UART_DBG_SCB_IRQ.c ****     *UART_DBG_SCB_IRQ_INTC_SET_EN = UART_DBG_SCB_IRQ__INTC_MASK;
 282              		.loc 1 325 0
 283 0000 8022     		movs	r2, #128
 284 0002 5200     		lsls	r2, r2, #1
 285 0004 014B     		ldr	r3, .L23
 286 0006 1A60     		str	r2, [r3]
 326:Generated_Source\PSoC4/UART_DBG_SCB_IRQ.c **** }
 287              		.loc 1 326 0
 288              		@ sp needed
 289 0008 7047     		bx	lr
 290              	.L24:
 291 000a C046     		.align	2
 292              	.L23:
 293 000c 00E100E0 		.word	-536813312
 294              		.cfi_endproc
 295              	.LFE9:
 296              		.size	UART_DBG_SCB_IRQ_Enable, .-UART_DBG_SCB_IRQ_Enable
ARM GAS  C:\Users\SAIKAR~1\AppData\Local\Temp\ccu5JmB6.s 			page 12


 297              		.section	.text.UART_DBG_SCB_IRQ_GetState,"ax",%progbits
 298              		.align	2
 299              		.global	UART_DBG_SCB_IRQ_GetState
 300              		.code	16
 301              		.thumb_func
 302              		.type	UART_DBG_SCB_IRQ_GetState, %function
 303              	UART_DBG_SCB_IRQ_GetState:
 304              	.LFB10:
 327:Generated_Source\PSoC4/UART_DBG_SCB_IRQ.c **** 
 328:Generated_Source\PSoC4/UART_DBG_SCB_IRQ.c **** 
 329:Generated_Source\PSoC4/UART_DBG_SCB_IRQ.c **** /*******************************************************************************
 330:Generated_Source\PSoC4/UART_DBG_SCB_IRQ.c **** * Function Name: UART_DBG_SCB_IRQ_GetState
 331:Generated_Source\PSoC4/UART_DBG_SCB_IRQ.c **** ********************************************************************************
 332:Generated_Source\PSoC4/UART_DBG_SCB_IRQ.c **** *
 333:Generated_Source\PSoC4/UART_DBG_SCB_IRQ.c **** * Summary:
 334:Generated_Source\PSoC4/UART_DBG_SCB_IRQ.c **** *   Gets the state (enabled, disabled) of the Interrupt.
 335:Generated_Source\PSoC4/UART_DBG_SCB_IRQ.c **** *
 336:Generated_Source\PSoC4/UART_DBG_SCB_IRQ.c **** * Parameters:
 337:Generated_Source\PSoC4/UART_DBG_SCB_IRQ.c **** *   None
 338:Generated_Source\PSoC4/UART_DBG_SCB_IRQ.c **** *
 339:Generated_Source\PSoC4/UART_DBG_SCB_IRQ.c **** * Return:
 340:Generated_Source\PSoC4/UART_DBG_SCB_IRQ.c **** *   1 if enabled, 0 if disabled.
 341:Generated_Source\PSoC4/UART_DBG_SCB_IRQ.c **** *
 342:Generated_Source\PSoC4/UART_DBG_SCB_IRQ.c **** *******************************************************************************/
 343:Generated_Source\PSoC4/UART_DBG_SCB_IRQ.c **** uint8 UART_DBG_SCB_IRQ_GetState(void)
 344:Generated_Source\PSoC4/UART_DBG_SCB_IRQ.c **** {
 305              		.loc 1 344 0
 306              		.cfi_startproc
 307              		@ args = 0, pretend = 0, frame = 0
 308              		@ frame_needed = 0, uses_anonymous_args = 0
 309              		@ link register save eliminated.
 345:Generated_Source\PSoC4/UART_DBG_SCB_IRQ.c ****     /* Get the state of the general interrupt. */
 346:Generated_Source\PSoC4/UART_DBG_SCB_IRQ.c ****     return ((*UART_DBG_SCB_IRQ_INTC_SET_EN & (uint32)UART_DBG_SCB_IRQ__INTC_MASK) != 0u) ? 1u:0u;
 310              		.loc 1 346 0
 311 0000 034B     		ldr	r3, .L28
 312 0002 1B68     		ldr	r3, [r3]
 313 0004 DB05     		lsls	r3, r3, #23
 314 0006 01D5     		bpl	.L27
 315 0008 0120     		movs	r0, #1
 316 000a 00E0     		b	.L26
 317              	.L27:
 318 000c 0020     		movs	r0, #0
 319              	.L26:
 347:Generated_Source\PSoC4/UART_DBG_SCB_IRQ.c **** }
 320              		.loc 1 347 0 discriminator 4
 321              		@ sp needed
 322 000e 7047     		bx	lr
 323              	.L29:
 324              		.align	2
 325              	.L28:
 326 0010 00E100E0 		.word	-536813312
 327              		.cfi_endproc
 328              	.LFE10:
 329              		.size	UART_DBG_SCB_IRQ_GetState, .-UART_DBG_SCB_IRQ_GetState
 330              		.section	.text.UART_DBG_SCB_IRQ_Disable,"ax",%progbits
 331              		.align	2
 332              		.global	UART_DBG_SCB_IRQ_Disable
ARM GAS  C:\Users\SAIKAR~1\AppData\Local\Temp\ccu5JmB6.s 			page 13


 333              		.code	16
 334              		.thumb_func
 335              		.type	UART_DBG_SCB_IRQ_Disable, %function
 336              	UART_DBG_SCB_IRQ_Disable:
 337              	.LFB11:
 348:Generated_Source\PSoC4/UART_DBG_SCB_IRQ.c **** 
 349:Generated_Source\PSoC4/UART_DBG_SCB_IRQ.c **** 
 350:Generated_Source\PSoC4/UART_DBG_SCB_IRQ.c **** /*******************************************************************************
 351:Generated_Source\PSoC4/UART_DBG_SCB_IRQ.c **** * Function Name: UART_DBG_SCB_IRQ_Disable
 352:Generated_Source\PSoC4/UART_DBG_SCB_IRQ.c **** ********************************************************************************
 353:Generated_Source\PSoC4/UART_DBG_SCB_IRQ.c **** *
 354:Generated_Source\PSoC4/UART_DBG_SCB_IRQ.c **** * Summary:
 355:Generated_Source\PSoC4/UART_DBG_SCB_IRQ.c **** *   Disables the Interrupt in the interrupt controller.
 356:Generated_Source\PSoC4/UART_DBG_SCB_IRQ.c **** *
 357:Generated_Source\PSoC4/UART_DBG_SCB_IRQ.c **** * Parameters:
 358:Generated_Source\PSoC4/UART_DBG_SCB_IRQ.c **** *   None
 359:Generated_Source\PSoC4/UART_DBG_SCB_IRQ.c **** *
 360:Generated_Source\PSoC4/UART_DBG_SCB_IRQ.c **** * Return:
 361:Generated_Source\PSoC4/UART_DBG_SCB_IRQ.c **** *   None
 362:Generated_Source\PSoC4/UART_DBG_SCB_IRQ.c **** *
 363:Generated_Source\PSoC4/UART_DBG_SCB_IRQ.c **** *******************************************************************************/
 364:Generated_Source\PSoC4/UART_DBG_SCB_IRQ.c **** void UART_DBG_SCB_IRQ_Disable(void)
 365:Generated_Source\PSoC4/UART_DBG_SCB_IRQ.c **** {
 338              		.loc 1 365 0
 339              		.cfi_startproc
 340              		@ args = 0, pretend = 0, frame = 0
 341              		@ frame_needed = 0, uses_anonymous_args = 0
 342              		@ link register save eliminated.
 366:Generated_Source\PSoC4/UART_DBG_SCB_IRQ.c ****     /* Disable the general interrupt. */
 367:Generated_Source\PSoC4/UART_DBG_SCB_IRQ.c ****     *UART_DBG_SCB_IRQ_INTC_CLR_EN = UART_DBG_SCB_IRQ__INTC_MASK;
 343              		.loc 1 367 0
 344 0000 8022     		movs	r2, #128
 345 0002 5200     		lsls	r2, r2, #1
 346 0004 014B     		ldr	r3, .L31
 347 0006 1A60     		str	r2, [r3]
 368:Generated_Source\PSoC4/UART_DBG_SCB_IRQ.c **** }
 348              		.loc 1 368 0
 349              		@ sp needed
 350 0008 7047     		bx	lr
 351              	.L32:
 352 000a C046     		.align	2
 353              	.L31:
 354 000c 80E100E0 		.word	-536813184
 355              		.cfi_endproc
 356              	.LFE11:
 357              		.size	UART_DBG_SCB_IRQ_Disable, .-UART_DBG_SCB_IRQ_Disable
 358              		.section	.text.UART_DBG_SCB_IRQ_Start,"ax",%progbits
 359              		.align	2
 360              		.global	UART_DBG_SCB_IRQ_Start
 361              		.code	16
 362              		.thumb_func
 363              		.type	UART_DBG_SCB_IRQ_Start, %function
 364              	UART_DBG_SCB_IRQ_Start:
 365              	.LFB1:
  59:Generated_Source\PSoC4/UART_DBG_SCB_IRQ.c ****     /* For all we know the interrupt is active. */
 366              		.loc 1 59 0
 367              		.cfi_startproc
ARM GAS  C:\Users\SAIKAR~1\AppData\Local\Temp\ccu5JmB6.s 			page 14


 368              		@ args = 0, pretend = 0, frame = 0
 369              		@ frame_needed = 0, uses_anonymous_args = 0
 370 0000 10B5     		push	{r4, lr}
 371              		.cfi_def_cfa_offset 8
 372              		.cfi_offset 4, -8
 373              		.cfi_offset 14, -4
  61:Generated_Source\PSoC4/UART_DBG_SCB_IRQ.c **** 
 374              		.loc 1 61 0
 375 0002 FFF7FEFF 		bl	UART_DBG_SCB_IRQ_Disable
 376              	.LVL22:
  64:Generated_Source\PSoC4/UART_DBG_SCB_IRQ.c **** 
 377              		.loc 1 64 0
 378 0006 0448     		ldr	r0, .L34
 379 0008 FFF7FEFF 		bl	UART_DBG_SCB_IRQ_SetVector
 380              	.LVL23:
  67:Generated_Source\PSoC4/UART_DBG_SCB_IRQ.c **** 
 381              		.loc 1 67 0
 382 000c 0320     		movs	r0, #3
 383 000e FFF7FEFF 		bl	UART_DBG_SCB_IRQ_SetPriority
 384              	.LVL24:
  70:Generated_Source\PSoC4/UART_DBG_SCB_IRQ.c **** }
 385              		.loc 1 70 0
 386 0012 FFF7FEFF 		bl	UART_DBG_SCB_IRQ_Enable
 387              	.LVL25:
  71:Generated_Source\PSoC4/UART_DBG_SCB_IRQ.c **** 
 388              		.loc 1 71 0
 389              		@ sp needed
 390 0016 10BD     		pop	{r4, pc}
 391              	.L35:
 392              		.align	2
 393              	.L34:
 394 0018 00000000 		.word	UART_DBG_SCB_IRQ_Interrupt
 395              		.cfi_endproc
 396              	.LFE1:
 397              		.size	UART_DBG_SCB_IRQ_Start, .-UART_DBG_SCB_IRQ_Start
 398              		.section	.text.UART_DBG_SCB_IRQ_StartEx,"ax",%progbits
 399              		.align	2
 400              		.global	UART_DBG_SCB_IRQ_StartEx
 401              		.code	16
 402              		.thumb_func
 403              		.type	UART_DBG_SCB_IRQ_StartEx, %function
 404              	UART_DBG_SCB_IRQ_StartEx:
 405              	.LFB2:
 102:Generated_Source\PSoC4/UART_DBG_SCB_IRQ.c ****     /* For all we know the interrupt is active. */
 406              		.loc 1 102 0
 407              		.cfi_startproc
 408              		@ args = 0, pretend = 0, frame = 0
 409              		@ frame_needed = 0, uses_anonymous_args = 0
 410              	.LVL26:
 411 0000 10B5     		push	{r4, lr}
 412              		.cfi_def_cfa_offset 8
 413              		.cfi_offset 4, -8
 414              		.cfi_offset 14, -4
 415 0002 0400     		movs	r4, r0
 104:Generated_Source\PSoC4/UART_DBG_SCB_IRQ.c **** 
 416              		.loc 1 104 0
 417 0004 FFF7FEFF 		bl	UART_DBG_SCB_IRQ_Disable
ARM GAS  C:\Users\SAIKAR~1\AppData\Local\Temp\ccu5JmB6.s 			page 15


 418              	.LVL27:
 107:Generated_Source\PSoC4/UART_DBG_SCB_IRQ.c **** 
 419              		.loc 1 107 0
 420 0008 2000     		movs	r0, r4
 421 000a FFF7FEFF 		bl	UART_DBG_SCB_IRQ_SetVector
 422              	.LVL28:
 110:Generated_Source\PSoC4/UART_DBG_SCB_IRQ.c **** 
 423              		.loc 1 110 0
 424 000e 0320     		movs	r0, #3
 425 0010 FFF7FEFF 		bl	UART_DBG_SCB_IRQ_SetPriority
 426              	.LVL29:
 113:Generated_Source\PSoC4/UART_DBG_SCB_IRQ.c **** }
 427              		.loc 1 113 0
 428 0014 FFF7FEFF 		bl	UART_DBG_SCB_IRQ_Enable
 429              	.LVL30:
 114:Generated_Source\PSoC4/UART_DBG_SCB_IRQ.c **** 
 430              		.loc 1 114 0
 431              		@ sp needed
 432              	.LVL31:
 433 0018 10BD     		pop	{r4, pc}
 434              		.cfi_endproc
 435              	.LFE2:
 436              		.size	UART_DBG_SCB_IRQ_StartEx, .-UART_DBG_SCB_IRQ_StartEx
 437 001a C046     		.section	.text.UART_DBG_SCB_IRQ_Stop,"ax",%progbits
 438              		.align	2
 439              		.global	UART_DBG_SCB_IRQ_Stop
 440              		.code	16
 441              		.thumb_func
 442              		.type	UART_DBG_SCB_IRQ_Stop, %function
 443              	UART_DBG_SCB_IRQ_Stop:
 444              	.LFB3:
 132:Generated_Source\PSoC4/UART_DBG_SCB_IRQ.c ****     /* Disable this interrupt. */
 445              		.loc 1 132 0
 446              		.cfi_startproc
 447              		@ args = 0, pretend = 0, frame = 0
 448              		@ frame_needed = 0, uses_anonymous_args = 0
 449 0000 10B5     		push	{r4, lr}
 450              		.cfi_def_cfa_offset 8
 451              		.cfi_offset 4, -8
 452              		.cfi_offset 14, -4
 134:Generated_Source\PSoC4/UART_DBG_SCB_IRQ.c **** 
 453              		.loc 1 134 0
 454 0002 FFF7FEFF 		bl	UART_DBG_SCB_IRQ_Disable
 455              	.LVL32:
 137:Generated_Source\PSoC4/UART_DBG_SCB_IRQ.c **** }
 456              		.loc 1 137 0
 457 0006 0248     		ldr	r0, .L38
 458 0008 FFF7FEFF 		bl	UART_DBG_SCB_IRQ_SetVector
 459              	.LVL33:
 138:Generated_Source\PSoC4/UART_DBG_SCB_IRQ.c **** 
 460              		.loc 1 138 0
 461              		@ sp needed
 462 000c 10BD     		pop	{r4, pc}
 463              	.L39:
 464 000e C046     		.align	2
 465              	.L38:
 466 0010 00000000 		.word	IntDefaultHandler
ARM GAS  C:\Users\SAIKAR~1\AppData\Local\Temp\ccu5JmB6.s 			page 16


 467              		.cfi_endproc
 468              	.LFE3:
 469              		.size	UART_DBG_SCB_IRQ_Stop, .-UART_DBG_SCB_IRQ_Stop
 470              		.section	.text.UART_DBG_SCB_IRQ_SetPending,"ax",%progbits
 471              		.align	2
 472              		.global	UART_DBG_SCB_IRQ_SetPending
 473              		.code	16
 474              		.thumb_func
 475              		.type	UART_DBG_SCB_IRQ_SetPending, %function
 476              	UART_DBG_SCB_IRQ_SetPending:
 477              	.LFB12:
 369:Generated_Source\PSoC4/UART_DBG_SCB_IRQ.c **** 
 370:Generated_Source\PSoC4/UART_DBG_SCB_IRQ.c **** 
 371:Generated_Source\PSoC4/UART_DBG_SCB_IRQ.c **** /*******************************************************************************
 372:Generated_Source\PSoC4/UART_DBG_SCB_IRQ.c **** * Function Name: UART_DBG_SCB_IRQ_SetPending
 373:Generated_Source\PSoC4/UART_DBG_SCB_IRQ.c **** ********************************************************************************
 374:Generated_Source\PSoC4/UART_DBG_SCB_IRQ.c **** *
 375:Generated_Source\PSoC4/UART_DBG_SCB_IRQ.c **** * Summary:
 376:Generated_Source\PSoC4/UART_DBG_SCB_IRQ.c **** *   Causes the Interrupt to enter the pending state, a software method of
 377:Generated_Source\PSoC4/UART_DBG_SCB_IRQ.c **** *   generating the interrupt.
 378:Generated_Source\PSoC4/UART_DBG_SCB_IRQ.c **** *
 379:Generated_Source\PSoC4/UART_DBG_SCB_IRQ.c **** * Parameters:
 380:Generated_Source\PSoC4/UART_DBG_SCB_IRQ.c **** *   None
 381:Generated_Source\PSoC4/UART_DBG_SCB_IRQ.c **** *
 382:Generated_Source\PSoC4/UART_DBG_SCB_IRQ.c **** * Return:
 383:Generated_Source\PSoC4/UART_DBG_SCB_IRQ.c **** *   None
 384:Generated_Source\PSoC4/UART_DBG_SCB_IRQ.c **** *
 385:Generated_Source\PSoC4/UART_DBG_SCB_IRQ.c **** * Side Effects:
 386:Generated_Source\PSoC4/UART_DBG_SCB_IRQ.c **** *   If interrupts are enabled and the interrupt is set up properly, the ISR is
 387:Generated_Source\PSoC4/UART_DBG_SCB_IRQ.c **** *   entered (depending on the priority of this interrupt and other pending 
 388:Generated_Source\PSoC4/UART_DBG_SCB_IRQ.c **** *   interrupts).
 389:Generated_Source\PSoC4/UART_DBG_SCB_IRQ.c **** *
 390:Generated_Source\PSoC4/UART_DBG_SCB_IRQ.c **** *******************************************************************************/
 391:Generated_Source\PSoC4/UART_DBG_SCB_IRQ.c **** void UART_DBG_SCB_IRQ_SetPending(void)
 392:Generated_Source\PSoC4/UART_DBG_SCB_IRQ.c **** {
 478              		.loc 1 392 0
 479              		.cfi_startproc
 480              		@ args = 0, pretend = 0, frame = 0
 481              		@ frame_needed = 0, uses_anonymous_args = 0
 482              		@ link register save eliminated.
 393:Generated_Source\PSoC4/UART_DBG_SCB_IRQ.c ****     *UART_DBG_SCB_IRQ_INTC_SET_PD = UART_DBG_SCB_IRQ__INTC_MASK;
 483              		.loc 1 393 0
 484 0000 8022     		movs	r2, #128
 485 0002 5200     		lsls	r2, r2, #1
 486 0004 014B     		ldr	r3, .L41
 487 0006 1A60     		str	r2, [r3]
 394:Generated_Source\PSoC4/UART_DBG_SCB_IRQ.c **** }
 488              		.loc 1 394 0
 489              		@ sp needed
 490 0008 7047     		bx	lr
 491              	.L42:
 492 000a C046     		.align	2
 493              	.L41:
 494 000c 00E200E0 		.word	-536813056
 495              		.cfi_endproc
 496              	.LFE12:
 497              		.size	UART_DBG_SCB_IRQ_SetPending, .-UART_DBG_SCB_IRQ_SetPending
ARM GAS  C:\Users\SAIKAR~1\AppData\Local\Temp\ccu5JmB6.s 			page 17


 498              		.section	.text.UART_DBG_SCB_IRQ_ClearPending,"ax",%progbits
 499              		.align	2
 500              		.global	UART_DBG_SCB_IRQ_ClearPending
 501              		.code	16
 502              		.thumb_func
 503              		.type	UART_DBG_SCB_IRQ_ClearPending, %function
 504              	UART_DBG_SCB_IRQ_ClearPending:
 505              	.LFB13:
 395:Generated_Source\PSoC4/UART_DBG_SCB_IRQ.c **** 
 396:Generated_Source\PSoC4/UART_DBG_SCB_IRQ.c **** 
 397:Generated_Source\PSoC4/UART_DBG_SCB_IRQ.c **** /*******************************************************************************
 398:Generated_Source\PSoC4/UART_DBG_SCB_IRQ.c **** * Function Name: UART_DBG_SCB_IRQ_ClearPending
 399:Generated_Source\PSoC4/UART_DBG_SCB_IRQ.c **** ********************************************************************************
 400:Generated_Source\PSoC4/UART_DBG_SCB_IRQ.c **** *
 401:Generated_Source\PSoC4/UART_DBG_SCB_IRQ.c **** * Summary:
 402:Generated_Source\PSoC4/UART_DBG_SCB_IRQ.c **** *   Clears a pending interrupt in the interrupt controller.
 403:Generated_Source\PSoC4/UART_DBG_SCB_IRQ.c **** *
 404:Generated_Source\PSoC4/UART_DBG_SCB_IRQ.c **** *   Note Some interrupt sources are clear-on-read and require the block 
 405:Generated_Source\PSoC4/UART_DBG_SCB_IRQ.c **** *   interrupt/status register to be read/cleared with the appropriate block API 
 406:Generated_Source\PSoC4/UART_DBG_SCB_IRQ.c **** *   (GPIO, UART, and so on). Otherwise the ISR will continue to remain in 
 407:Generated_Source\PSoC4/UART_DBG_SCB_IRQ.c **** *   pending state even though the interrupt itself is cleared using this API.
 408:Generated_Source\PSoC4/UART_DBG_SCB_IRQ.c **** *
 409:Generated_Source\PSoC4/UART_DBG_SCB_IRQ.c **** * Parameters:
 410:Generated_Source\PSoC4/UART_DBG_SCB_IRQ.c **** *   None
 411:Generated_Source\PSoC4/UART_DBG_SCB_IRQ.c **** *
 412:Generated_Source\PSoC4/UART_DBG_SCB_IRQ.c **** * Return:
 413:Generated_Source\PSoC4/UART_DBG_SCB_IRQ.c **** *   None
 414:Generated_Source\PSoC4/UART_DBG_SCB_IRQ.c **** *
 415:Generated_Source\PSoC4/UART_DBG_SCB_IRQ.c **** *******************************************************************************/
 416:Generated_Source\PSoC4/UART_DBG_SCB_IRQ.c **** void UART_DBG_SCB_IRQ_ClearPending(void)
 417:Generated_Source\PSoC4/UART_DBG_SCB_IRQ.c **** {
 506              		.loc 1 417 0
 507              		.cfi_startproc
 508              		@ args = 0, pretend = 0, frame = 0
 509              		@ frame_needed = 0, uses_anonymous_args = 0
 510              		@ link register save eliminated.
 418:Generated_Source\PSoC4/UART_DBG_SCB_IRQ.c ****     *UART_DBG_SCB_IRQ_INTC_CLR_PD = UART_DBG_SCB_IRQ__INTC_MASK;
 511              		.loc 1 418 0
 512 0000 8022     		movs	r2, #128
 513 0002 5200     		lsls	r2, r2, #1
 514 0004 014B     		ldr	r3, .L44
 515 0006 1A60     		str	r2, [r3]
 419:Generated_Source\PSoC4/UART_DBG_SCB_IRQ.c **** }
 516              		.loc 1 419 0
 517              		@ sp needed
 518 0008 7047     		bx	lr
 519              	.L45:
 520 000a C046     		.align	2
 521              	.L44:
 522 000c 80E200E0 		.word	-536812928
 523              		.cfi_endproc
 524              	.LFE13:
 525              		.size	UART_DBG_SCB_IRQ_ClearPending, .-UART_DBG_SCB_IRQ_ClearPending
 526              		.comm	num_tasks,1,1
 527              		.comm	GPS_UART_tmr,1,1
 528              		.comm	num_rx_bytes_FC,1,1
 529              		.comm	num_rx_bytes_FC_buff,1,1
ARM GAS  C:\Users\SAIKAR~1\AppData\Local\Temp\ccu5JmB6.s 			page 18


 530              		.comm	rx_bytes_FC_buff,5,4
 531              		.comm	rx_bytes_FC,6,4
 532              		.comm	num_rx_bytes_gps_buff,1,1
 533              		.comm	num_rx_bytes_gps,1,1
 534              		.comm	rx_bytes_gps_buff,72,4
 535              		.comm	rx_bytes_gps,72,4
 536              		.comm	num_rx_bytes_dbg_buff,1,1
 537              		.comm	num_rx_bytes_dbg,1,1
 538              		.comm	rx_bytes_dbg_buff,16,4
 539              		.comm	rx_bytes_dbg,16,4
 540              		.text
 541              	.Letext0:
 542              		.file 2 "e:\\acads\\uwm\\psoc creator\\4.4\\psoc creator\\import\\gnu\\arm\\5.4.1\\arm-none-eabi\\
 543              		.file 3 "e:\\acads\\uwm\\psoc creator\\4.4\\psoc creator\\import\\gnu\\arm\\5.4.1\\arm-none-eabi\\
 544              		.file 4 "Generated_Source\\PSoC4/cytypes.h"
 545              		.file 5 "./main.h"
 546              		.file 6 "Generated_Source\\PSoC4\\UART_DBG_SPI_UART.h"
 547              		.file 7 "Generated_Source\\PSoC4/CyLib.h"