ARM GAS  C:\Users\ERICHO~1\AppData\Local\Temp\ccTEweIY.s 			page 1


   1              		.syntax unified
   2              		.cpu cortex-m0
   3              		.fpu softvfp
   4              		.eabi_attribute 20, 1
   5              		.eabi_attribute 21, 1
   6              		.eabi_attribute 23, 3
   7              		.eabi_attribute 24, 1
   8              		.eabi_attribute 25, 1
   9              		.eabi_attribute 26, 1
  10              		.eabi_attribute 30, 1
  11              		.eabi_attribute 34, 0
  12              		.eabi_attribute 18, 4
  13              		.thumb
  14              		.syntax unified
  15              		.file	"UART_BLE_SCB_IRQ.c"
  16              		.text
  17              	.Ltext0:
  18              		.cfi_sections	.debug_frame
  19              		.section	.text.UART_BLE_SCB_IRQ_Interrupt,"ax",%progbits
  20              		.align	2
  21              		.global	UART_BLE_SCB_IRQ_Interrupt
  22              		.code	16
  23              		.thumb_func
  24              		.type	UART_BLE_SCB_IRQ_Interrupt, %function
  25              	UART_BLE_SCB_IRQ_Interrupt:
  26              	.LFB4:
  27              		.file 1 "Generated_Source\\PSoC4\\UART_BLE_SCB_IRQ.c"
   1:Generated_Source\PSoC4/UART_BLE_SCB_IRQ.c **** /*******************************************************************************
   2:Generated_Source\PSoC4/UART_BLE_SCB_IRQ.c **** * File Name: UART_BLE_SCB_IRQ.c  
   3:Generated_Source\PSoC4/UART_BLE_SCB_IRQ.c **** * Version 1.70
   4:Generated_Source\PSoC4/UART_BLE_SCB_IRQ.c **** *
   5:Generated_Source\PSoC4/UART_BLE_SCB_IRQ.c **** *  Description:
   6:Generated_Source\PSoC4/UART_BLE_SCB_IRQ.c **** *   API for controlling the state of an interrupt.
   7:Generated_Source\PSoC4/UART_BLE_SCB_IRQ.c **** *
   8:Generated_Source\PSoC4/UART_BLE_SCB_IRQ.c **** *
   9:Generated_Source\PSoC4/UART_BLE_SCB_IRQ.c **** *  Note:
  10:Generated_Source\PSoC4/UART_BLE_SCB_IRQ.c **** *
  11:Generated_Source\PSoC4/UART_BLE_SCB_IRQ.c **** ********************************************************************************
  12:Generated_Source\PSoC4/UART_BLE_SCB_IRQ.c **** * Copyright 2008-2015, Cypress Semiconductor Corporation.  All rights reserved.
  13:Generated_Source\PSoC4/UART_BLE_SCB_IRQ.c **** * You may use this file only in accordance with the license, terms, conditions, 
  14:Generated_Source\PSoC4/UART_BLE_SCB_IRQ.c **** * disclaimers, and limitations in the end user license agreement accompanying 
  15:Generated_Source\PSoC4/UART_BLE_SCB_IRQ.c **** * the software package with which this file was provided.
  16:Generated_Source\PSoC4/UART_BLE_SCB_IRQ.c **** *******************************************************************************/
  17:Generated_Source\PSoC4/UART_BLE_SCB_IRQ.c **** 
  18:Generated_Source\PSoC4/UART_BLE_SCB_IRQ.c **** 
  19:Generated_Source\PSoC4/UART_BLE_SCB_IRQ.c **** #include <cydevice_trm.h>
  20:Generated_Source\PSoC4/UART_BLE_SCB_IRQ.c **** #include <CyLib.h>
  21:Generated_Source\PSoC4/UART_BLE_SCB_IRQ.c **** #include <UART_BLE_SCB_IRQ.h>
  22:Generated_Source\PSoC4/UART_BLE_SCB_IRQ.c **** #include "cyapicallbacks.h"
  23:Generated_Source\PSoC4/UART_BLE_SCB_IRQ.c **** 
  24:Generated_Source\PSoC4/UART_BLE_SCB_IRQ.c **** #if !defined(UART_BLE_SCB_IRQ__REMOVED) /* Check for removal by optimization */
  25:Generated_Source\PSoC4/UART_BLE_SCB_IRQ.c **** 
  26:Generated_Source\PSoC4/UART_BLE_SCB_IRQ.c **** /*******************************************************************************
  27:Generated_Source\PSoC4/UART_BLE_SCB_IRQ.c **** *  Place your includes, defines and code here 
  28:Generated_Source\PSoC4/UART_BLE_SCB_IRQ.c **** ********************************************************************************/
  29:Generated_Source\PSoC4/UART_BLE_SCB_IRQ.c **** /* `#START UART_BLE_SCB_IRQ_intc` */
  30:Generated_Source\PSoC4/UART_BLE_SCB_IRQ.c ****   #include "main.h"
ARM GAS  C:\Users\ERICHO~1\AppData\Local\Temp\ccTEweIY.s 			page 2


  31:Generated_Source\PSoC4/UART_BLE_SCB_IRQ.c ****   #include "UART_BLE_SPI_UART.h"
  32:Generated_Source\PSoC4/UART_BLE_SCB_IRQ.c ****   #include "UART_BLE.h"
  33:Generated_Source\PSoC4/UART_BLE_SCB_IRQ.c **** /* `#END` */
  34:Generated_Source\PSoC4/UART_BLE_SCB_IRQ.c **** 
  35:Generated_Source\PSoC4/UART_BLE_SCB_IRQ.c **** extern cyisraddress CyRamVectors[CYINT_IRQ_BASE + CY_NUM_INTERRUPTS];
  36:Generated_Source\PSoC4/UART_BLE_SCB_IRQ.c **** 
  37:Generated_Source\PSoC4/UART_BLE_SCB_IRQ.c **** /* Declared in startup, used to set unused interrupts to. */
  38:Generated_Source\PSoC4/UART_BLE_SCB_IRQ.c **** CY_ISR_PROTO(IntDefaultHandler);
  39:Generated_Source\PSoC4/UART_BLE_SCB_IRQ.c **** 
  40:Generated_Source\PSoC4/UART_BLE_SCB_IRQ.c **** 
  41:Generated_Source\PSoC4/UART_BLE_SCB_IRQ.c **** /*******************************************************************************
  42:Generated_Source\PSoC4/UART_BLE_SCB_IRQ.c **** * Function Name: UART_BLE_SCB_IRQ_Start
  43:Generated_Source\PSoC4/UART_BLE_SCB_IRQ.c **** ********************************************************************************
  44:Generated_Source\PSoC4/UART_BLE_SCB_IRQ.c **** *
  45:Generated_Source\PSoC4/UART_BLE_SCB_IRQ.c **** * Summary:
  46:Generated_Source\PSoC4/UART_BLE_SCB_IRQ.c **** *  Set up the interrupt and enable it. This function disables the interrupt, 
  47:Generated_Source\PSoC4/UART_BLE_SCB_IRQ.c **** *  sets the default interrupt vector, sets the priority from the value in the
  48:Generated_Source\PSoC4/UART_BLE_SCB_IRQ.c **** *  Design Wide Resources Interrupt Editor, then enables the interrupt to the 
  49:Generated_Source\PSoC4/UART_BLE_SCB_IRQ.c **** *  interrupt controller.
  50:Generated_Source\PSoC4/UART_BLE_SCB_IRQ.c **** *
  51:Generated_Source\PSoC4/UART_BLE_SCB_IRQ.c **** * Parameters:  
  52:Generated_Source\PSoC4/UART_BLE_SCB_IRQ.c **** *   None
  53:Generated_Source\PSoC4/UART_BLE_SCB_IRQ.c **** *
  54:Generated_Source\PSoC4/UART_BLE_SCB_IRQ.c **** * Return:
  55:Generated_Source\PSoC4/UART_BLE_SCB_IRQ.c **** *   None
  56:Generated_Source\PSoC4/UART_BLE_SCB_IRQ.c **** *
  57:Generated_Source\PSoC4/UART_BLE_SCB_IRQ.c **** *******************************************************************************/
  58:Generated_Source\PSoC4/UART_BLE_SCB_IRQ.c **** void UART_BLE_SCB_IRQ_Start(void)
  59:Generated_Source\PSoC4/UART_BLE_SCB_IRQ.c **** {
  60:Generated_Source\PSoC4/UART_BLE_SCB_IRQ.c ****     /* For all we know the interrupt is active. */
  61:Generated_Source\PSoC4/UART_BLE_SCB_IRQ.c ****     UART_BLE_SCB_IRQ_Disable();
  62:Generated_Source\PSoC4/UART_BLE_SCB_IRQ.c **** 
  63:Generated_Source\PSoC4/UART_BLE_SCB_IRQ.c ****     /* Set the ISR to point to the UART_BLE_SCB_IRQ Interrupt. */
  64:Generated_Source\PSoC4/UART_BLE_SCB_IRQ.c ****     UART_BLE_SCB_IRQ_SetVector(&UART_BLE_SCB_IRQ_Interrupt);
  65:Generated_Source\PSoC4/UART_BLE_SCB_IRQ.c **** 
  66:Generated_Source\PSoC4/UART_BLE_SCB_IRQ.c ****     /* Set the priority. */
  67:Generated_Source\PSoC4/UART_BLE_SCB_IRQ.c ****     UART_BLE_SCB_IRQ_SetPriority((uint8)UART_BLE_SCB_IRQ_INTC_PRIOR_NUMBER);
  68:Generated_Source\PSoC4/UART_BLE_SCB_IRQ.c **** 
  69:Generated_Source\PSoC4/UART_BLE_SCB_IRQ.c ****     /* Enable it. */
  70:Generated_Source\PSoC4/UART_BLE_SCB_IRQ.c ****     UART_BLE_SCB_IRQ_Enable();
  71:Generated_Source\PSoC4/UART_BLE_SCB_IRQ.c **** }
  72:Generated_Source\PSoC4/UART_BLE_SCB_IRQ.c **** 
  73:Generated_Source\PSoC4/UART_BLE_SCB_IRQ.c **** 
  74:Generated_Source\PSoC4/UART_BLE_SCB_IRQ.c **** /*******************************************************************************
  75:Generated_Source\PSoC4/UART_BLE_SCB_IRQ.c **** * Function Name: UART_BLE_SCB_IRQ_StartEx
  76:Generated_Source\PSoC4/UART_BLE_SCB_IRQ.c **** ********************************************************************************
  77:Generated_Source\PSoC4/UART_BLE_SCB_IRQ.c **** *
  78:Generated_Source\PSoC4/UART_BLE_SCB_IRQ.c **** * Summary:
  79:Generated_Source\PSoC4/UART_BLE_SCB_IRQ.c **** *  Sets up the interrupt and enables it. This function disables the interrupt,
  80:Generated_Source\PSoC4/UART_BLE_SCB_IRQ.c **** *  sets the interrupt vector based on the address passed in, sets the priority 
  81:Generated_Source\PSoC4/UART_BLE_SCB_IRQ.c **** *  from the value in the Design Wide Resources Interrupt Editor, then enables 
  82:Generated_Source\PSoC4/UART_BLE_SCB_IRQ.c **** *  the interrupt to the interrupt controller.
  83:Generated_Source\PSoC4/UART_BLE_SCB_IRQ.c **** *  
  84:Generated_Source\PSoC4/UART_BLE_SCB_IRQ.c **** *  When defining ISR functions, the CY_ISR and CY_ISR_PROTO macros should be 
  85:Generated_Source\PSoC4/UART_BLE_SCB_IRQ.c **** *  used to provide consistent definition across compilers:
  86:Generated_Source\PSoC4/UART_BLE_SCB_IRQ.c **** *  
  87:Generated_Source\PSoC4/UART_BLE_SCB_IRQ.c **** *  Function definition example:
ARM GAS  C:\Users\ERICHO~1\AppData\Local\Temp\ccTEweIY.s 			page 3


  88:Generated_Source\PSoC4/UART_BLE_SCB_IRQ.c **** *   CY_ISR(MyISR)
  89:Generated_Source\PSoC4/UART_BLE_SCB_IRQ.c **** *   {
  90:Generated_Source\PSoC4/UART_BLE_SCB_IRQ.c **** *   }
  91:Generated_Source\PSoC4/UART_BLE_SCB_IRQ.c **** *   Function prototype example:
  92:Generated_Source\PSoC4/UART_BLE_SCB_IRQ.c **** *   CY_ISR_PROTO(MyISR);
  93:Generated_Source\PSoC4/UART_BLE_SCB_IRQ.c **** *
  94:Generated_Source\PSoC4/UART_BLE_SCB_IRQ.c **** * Parameters:  
  95:Generated_Source\PSoC4/UART_BLE_SCB_IRQ.c **** *   address: Address of the ISR to set in the interrupt vector table.
  96:Generated_Source\PSoC4/UART_BLE_SCB_IRQ.c **** *
  97:Generated_Source\PSoC4/UART_BLE_SCB_IRQ.c **** * Return:
  98:Generated_Source\PSoC4/UART_BLE_SCB_IRQ.c **** *   None
  99:Generated_Source\PSoC4/UART_BLE_SCB_IRQ.c **** *
 100:Generated_Source\PSoC4/UART_BLE_SCB_IRQ.c **** *******************************************************************************/
 101:Generated_Source\PSoC4/UART_BLE_SCB_IRQ.c **** void UART_BLE_SCB_IRQ_StartEx(cyisraddress address)
 102:Generated_Source\PSoC4/UART_BLE_SCB_IRQ.c **** {
 103:Generated_Source\PSoC4/UART_BLE_SCB_IRQ.c ****     /* For all we know the interrupt is active. */
 104:Generated_Source\PSoC4/UART_BLE_SCB_IRQ.c ****     UART_BLE_SCB_IRQ_Disable();
 105:Generated_Source\PSoC4/UART_BLE_SCB_IRQ.c **** 
 106:Generated_Source\PSoC4/UART_BLE_SCB_IRQ.c ****     /* Set the ISR to point to the UART_BLE_SCB_IRQ Interrupt. */
 107:Generated_Source\PSoC4/UART_BLE_SCB_IRQ.c ****     UART_BLE_SCB_IRQ_SetVector(address);
 108:Generated_Source\PSoC4/UART_BLE_SCB_IRQ.c **** 
 109:Generated_Source\PSoC4/UART_BLE_SCB_IRQ.c ****     /* Set the priority. */
 110:Generated_Source\PSoC4/UART_BLE_SCB_IRQ.c ****     UART_BLE_SCB_IRQ_SetPriority((uint8)UART_BLE_SCB_IRQ_INTC_PRIOR_NUMBER);
 111:Generated_Source\PSoC4/UART_BLE_SCB_IRQ.c **** 
 112:Generated_Source\PSoC4/UART_BLE_SCB_IRQ.c ****     /* Enable it. */
 113:Generated_Source\PSoC4/UART_BLE_SCB_IRQ.c ****     UART_BLE_SCB_IRQ_Enable();
 114:Generated_Source\PSoC4/UART_BLE_SCB_IRQ.c **** }
 115:Generated_Source\PSoC4/UART_BLE_SCB_IRQ.c **** 
 116:Generated_Source\PSoC4/UART_BLE_SCB_IRQ.c **** 
 117:Generated_Source\PSoC4/UART_BLE_SCB_IRQ.c **** /*******************************************************************************
 118:Generated_Source\PSoC4/UART_BLE_SCB_IRQ.c **** * Function Name: UART_BLE_SCB_IRQ_Stop
 119:Generated_Source\PSoC4/UART_BLE_SCB_IRQ.c **** ********************************************************************************
 120:Generated_Source\PSoC4/UART_BLE_SCB_IRQ.c **** *
 121:Generated_Source\PSoC4/UART_BLE_SCB_IRQ.c **** * Summary:
 122:Generated_Source\PSoC4/UART_BLE_SCB_IRQ.c **** *   Disables and removes the interrupt.
 123:Generated_Source\PSoC4/UART_BLE_SCB_IRQ.c **** *
 124:Generated_Source\PSoC4/UART_BLE_SCB_IRQ.c **** * Parameters:  
 125:Generated_Source\PSoC4/UART_BLE_SCB_IRQ.c **** *   None
 126:Generated_Source\PSoC4/UART_BLE_SCB_IRQ.c **** *
 127:Generated_Source\PSoC4/UART_BLE_SCB_IRQ.c **** * Return:
 128:Generated_Source\PSoC4/UART_BLE_SCB_IRQ.c **** *   None
 129:Generated_Source\PSoC4/UART_BLE_SCB_IRQ.c **** *
 130:Generated_Source\PSoC4/UART_BLE_SCB_IRQ.c **** *******************************************************************************/
 131:Generated_Source\PSoC4/UART_BLE_SCB_IRQ.c **** void UART_BLE_SCB_IRQ_Stop(void)
 132:Generated_Source\PSoC4/UART_BLE_SCB_IRQ.c **** {
 133:Generated_Source\PSoC4/UART_BLE_SCB_IRQ.c ****     /* Disable this interrupt. */
 134:Generated_Source\PSoC4/UART_BLE_SCB_IRQ.c ****     UART_BLE_SCB_IRQ_Disable();
 135:Generated_Source\PSoC4/UART_BLE_SCB_IRQ.c **** 
 136:Generated_Source\PSoC4/UART_BLE_SCB_IRQ.c ****     /* Set the ISR to point to the passive one. */
 137:Generated_Source\PSoC4/UART_BLE_SCB_IRQ.c ****     UART_BLE_SCB_IRQ_SetVector(&IntDefaultHandler);
 138:Generated_Source\PSoC4/UART_BLE_SCB_IRQ.c **** }
 139:Generated_Source\PSoC4/UART_BLE_SCB_IRQ.c **** 
 140:Generated_Source\PSoC4/UART_BLE_SCB_IRQ.c **** 
 141:Generated_Source\PSoC4/UART_BLE_SCB_IRQ.c **** /*******************************************************************************
 142:Generated_Source\PSoC4/UART_BLE_SCB_IRQ.c **** * Function Name: UART_BLE_SCB_IRQ_Interrupt
 143:Generated_Source\PSoC4/UART_BLE_SCB_IRQ.c **** ********************************************************************************
 144:Generated_Source\PSoC4/UART_BLE_SCB_IRQ.c **** *
ARM GAS  C:\Users\ERICHO~1\AppData\Local\Temp\ccTEweIY.s 			page 4


 145:Generated_Source\PSoC4/UART_BLE_SCB_IRQ.c **** * Summary:
 146:Generated_Source\PSoC4/UART_BLE_SCB_IRQ.c **** *   The default Interrupt Service Routine for UART_BLE_SCB_IRQ.
 147:Generated_Source\PSoC4/UART_BLE_SCB_IRQ.c **** *
 148:Generated_Source\PSoC4/UART_BLE_SCB_IRQ.c **** *   Add custom code between the START and END comments to keep the next version
 149:Generated_Source\PSoC4/UART_BLE_SCB_IRQ.c **** *   of this file from over-writing your code.
 150:Generated_Source\PSoC4/UART_BLE_SCB_IRQ.c **** *
 151:Generated_Source\PSoC4/UART_BLE_SCB_IRQ.c **** *   Note You may use either the default ISR by using this API, or you may define
 152:Generated_Source\PSoC4/UART_BLE_SCB_IRQ.c **** *   your own separate ISR through ISR_StartEx().
 153:Generated_Source\PSoC4/UART_BLE_SCB_IRQ.c **** *
 154:Generated_Source\PSoC4/UART_BLE_SCB_IRQ.c **** * Parameters:  
 155:Generated_Source\PSoC4/UART_BLE_SCB_IRQ.c **** *   None
 156:Generated_Source\PSoC4/UART_BLE_SCB_IRQ.c **** *
 157:Generated_Source\PSoC4/UART_BLE_SCB_IRQ.c **** * Return:
 158:Generated_Source\PSoC4/UART_BLE_SCB_IRQ.c **** *   None
 159:Generated_Source\PSoC4/UART_BLE_SCB_IRQ.c **** *
 160:Generated_Source\PSoC4/UART_BLE_SCB_IRQ.c **** *******************************************************************************/
 161:Generated_Source\PSoC4/UART_BLE_SCB_IRQ.c **** CY_ISR(UART_BLE_SCB_IRQ_Interrupt)
 162:Generated_Source\PSoC4/UART_BLE_SCB_IRQ.c **** {
  28              		.loc 1 162 0
  29              		.cfi_startproc
  30              		@ args = 0, pretend = 0, frame = 0
  31              		@ frame_needed = 0, uses_anonymous_args = 0
  32 0000 70B5     		push	{r4, r5, r6, lr}
  33              		.cfi_def_cfa_offset 16
  34              		.cfi_offset 4, -16
  35              		.cfi_offset 5, -12
  36              		.cfi_offset 6, -8
  37              		.cfi_offset 14, -4
 163:Generated_Source\PSoC4/UART_BLE_SCB_IRQ.c ****     #ifdef UART_BLE_SCB_IRQ_INTERRUPT_INTERRUPT_CALLBACK
 164:Generated_Source\PSoC4/UART_BLE_SCB_IRQ.c ****         UART_BLE_SCB_IRQ_Interrupt_InterruptCallback();
 165:Generated_Source\PSoC4/UART_BLE_SCB_IRQ.c ****     #endif /* UART_BLE_SCB_IRQ_INTERRUPT_INTERRUPT_CALLBACK */ 
 166:Generated_Source\PSoC4/UART_BLE_SCB_IRQ.c **** 
 167:Generated_Source\PSoC4/UART_BLE_SCB_IRQ.c ****     /*  Place your Interrupt code here. */
 168:Generated_Source\PSoC4/UART_BLE_SCB_IRQ.c ****     /* `#START UART_BLE_SCB_IRQ_Interrupt` */
 169:Generated_Source\PSoC4/UART_BLE_SCB_IRQ.c ****     uint8_t buff_depth,x;
 170:Generated_Source\PSoC4/UART_BLE_SCB_IRQ.c ****     
 171:Generated_Source\PSoC4/UART_BLE_SCB_IRQ.c ****     buff_depth = UART_BLE_SpiUartGetRxBufferSize();
  38              		.loc 1 171 0
  39 0002 FFF7FEFF 		bl	UART_BLE_SpiUartGetRxBufferSize
  40              	.LVL0:
  41 0006 C5B2     		uxtb	r5, r0
  42              	.LVL1:
 172:Generated_Source\PSoC4/UART_BLE_SCB_IRQ.c ****     
 173:Generated_Source\PSoC4/UART_BLE_SCB_IRQ.c ****     if (num_rx_bytes_ble_buff==0) {
  43              		.loc 1 173 0
  44 0008 1C4B     		ldr	r3, .L9
  45 000a 1B78     		ldrb	r3, [r3]
  46 000c 002B     		cmp	r3, #0
  47 000e 02D1     		bne	.L2
 174:Generated_Source\PSoC4/UART_BLE_SCB_IRQ.c ****         BLE_UART_tmr=0;         // knock down timeout timer
  48              		.loc 1 174 0
  49 0010 0022     		movs	r2, #0
  50 0012 1B4B     		ldr	r3, .L9+4
  51 0014 1A70     		strb	r2, [r3]
  52              	.L2:
 162:Generated_Source\PSoC4/UART_BLE_SCB_IRQ.c ****     #ifdef UART_BLE_SCB_IRQ_INTERRUPT_INTERRUPT_CALLBACK
  53              		.loc 1 162 0 discriminator 1
ARM GAS  C:\Users\ERICHO~1\AppData\Local\Temp\ccTEweIY.s 			page 5


  54 0016 0024     		movs	r4, #0
  55 0018 0CE0     		b	.L3
  56              	.LVL2:
  57              	.L4:
 175:Generated_Source\PSoC4/UART_BLE_SCB_IRQ.c ****     }  
 176:Generated_Source\PSoC4/UART_BLE_SCB_IRQ.c ****     
 177:Generated_Source\PSoC4/UART_BLE_SCB_IRQ.c ****     for (x=0; x<buff_depth; x++)
 178:Generated_Source\PSoC4/UART_BLE_SCB_IRQ.c ****       rx_bytes_ble_buff[num_rx_bytes_ble_buff++] = UART_BLE_UartGetByte();
  58              		.loc 1 178 0 discriminator 3
  59 001a 184A     		ldr	r2, .L9
  60 001c 1678     		ldrb	r6, [r2]
  61 001e F6B2     		uxtb	r6, r6
  62 0020 731C     		adds	r3, r6, #1
  63 0022 DBB2     		uxtb	r3, r3
  64 0024 1370     		strb	r3, [r2]
  65 0026 FFF7FEFF 		bl	UART_BLE_UartGetByte
  66              	.LVL3:
  67 002a C0B2     		uxtb	r0, r0
  68 002c 154B     		ldr	r3, .L9+8
  69 002e 9855     		strb	r0, [r3, r6]
 177:Generated_Source\PSoC4/UART_BLE_SCB_IRQ.c ****       rx_bytes_ble_buff[num_rx_bytes_ble_buff++] = UART_BLE_UartGetByte();
  70              		.loc 1 177 0 discriminator 3
  71 0030 0134     		adds	r4, r4, #1
  72              	.LVL4:
  73 0032 E4B2     		uxtb	r4, r4
  74              	.LVL5:
  75              	.L3:
 177:Generated_Source\PSoC4/UART_BLE_SCB_IRQ.c ****       rx_bytes_ble_buff[num_rx_bytes_ble_buff++] = UART_BLE_UartGetByte();
  76              		.loc 1 177 0 is_stmt 0 discriminator 1
  77 0034 AC42     		cmp	r4, r5
  78 0036 F0D3     		bcc	.L4
 179:Generated_Source\PSoC4/UART_BLE_SCB_IRQ.c ****     
 180:Generated_Source\PSoC4/UART_BLE_SCB_IRQ.c ****     UART_BLE_ClearRxInterruptSource(0xFF);
  79              		.loc 1 180 0 is_stmt 1
  80 0038 FF22     		movs	r2, #255
  81 003a 134B     		ldr	r3, .L9+12
  82 003c 1A60     		str	r2, [r3]
 181:Generated_Source\PSoC4/UART_BLE_SCB_IRQ.c ****     // Pitch = {byte[0],byte[1]:7:6};
 182:Generated_Source\PSoC4/UART_BLE_SCB_IRQ.c ****     // Roll = (byte[1][5:0],byte[2]7:4}
 183:Generated_Source\PSoC4/UART_BLE_SCB_IRQ.c ****     // thrust = {byte[2]3:0,byte[3]7:3}
 184:Generated_Source\PSoC4/UART_BLE_SCB_IRQ.c ****     // cmd = byte[3]2:0
 185:Generated_Source\PSoC4/UART_BLE_SCB_IRQ.c ****     // chksum = byte[4]
 186:Generated_Source\PSoC4/UART_BLE_SCB_IRQ.c ****     if (num_rx_bytes_ble_buff==5) {              // full command is in
  83              		.loc 1 186 0
  84 003e 0F4B     		ldr	r3, .L9
  85 0040 1B78     		ldrb	r3, [r3]
  86 0042 052B     		cmp	r3, #5
  87 0044 19D1     		bne	.L1
  88 0046 07E0     		b	.L8
  89              	.LVL6:
  90              	.L7:
 187:Generated_Source\PSoC4/UART_BLE_SCB_IRQ.c ****         for (x=0; x<5; x++) {
 188:Generated_Source\PSoC4/UART_BLE_SCB_IRQ.c ****             rx_bytes_ble[x]=rx_bytes_ble_buff[x];
  91              		.loc 1 188 0 discriminator 3
  92 0048 0E4A     		ldr	r2, .L9+8
  93 004a D25C     		ldrb	r2, [r2, r3]
  94 004c D2B2     		uxtb	r2, r2
ARM GAS  C:\Users\ERICHO~1\AppData\Local\Temp\ccTEweIY.s 			page 6


  95 004e 0F49     		ldr	r1, .L9+16
  96 0050 CA54     		strb	r2, [r1, r3]
 187:Generated_Source\PSoC4/UART_BLE_SCB_IRQ.c ****         for (x=0; x<5; x++) {
  97              		.loc 1 187 0 discriminator 3
  98 0052 0133     		adds	r3, r3, #1
  99              	.LVL7:
 100 0054 DBB2     		uxtb	r3, r3
 101              	.LVL8:
 102 0056 00E0     		b	.L5
 103              	.LVL9:
 104              	.L8:
 105 0058 0023     		movs	r3, #0
 106              	.LVL10:
 107              	.L5:
 187:Generated_Source\PSoC4/UART_BLE_SCB_IRQ.c ****         for (x=0; x<5; x++) {
 108              		.loc 1 187 0 is_stmt 0 discriminator 1
 109 005a 042B     		cmp	r3, #4
 110 005c F4D9     		bls	.L7
 189:Generated_Source\PSoC4/UART_BLE_SCB_IRQ.c ****         }
 190:Generated_Source\PSoC4/UART_BLE_SCB_IRQ.c ****         num_rx_bytes_ble = num_rx_bytes_ble_buff;
 111              		.loc 1 190 0 is_stmt 1
 112 005e 074A     		ldr	r2, .L9
 113 0060 1378     		ldrb	r3, [r2]
 114              	.LVL11:
 115 0062 DBB2     		uxtb	r3, r3
 116 0064 0A49     		ldr	r1, .L9+20
 117 0066 0B70     		strb	r3, [r1]
 191:Generated_Source\PSoC4/UART_BLE_SCB_IRQ.c ****         num_rx_bytes_ble_buff = 0;
 118              		.loc 1 191 0
 119 0068 0023     		movs	r3, #0
 120 006a 1370     		strb	r3, [r2]
 192:Generated_Source\PSoC4/UART_BLE_SCB_IRQ.c ****         BLE_UART_tmr = 4;                           // cancel UART timeout
 121              		.loc 1 192 0
 122 006c 0422     		movs	r2, #4
 123 006e 044B     		ldr	r3, .L9+4
 124 0070 1A70     		strb	r2, [r3]
 193:Generated_Source\PSoC4/UART_BLE_SCB_IRQ.c ****         enqueue_task(BLE_CMD_PROC,2);
 125              		.loc 1 193 0
 126 0072 0221     		movs	r1, #2
 127 0074 0220     		movs	r0, #2
 128 0076 FFF7FEFF 		bl	enqueue_task
 129              	.LVL12:
 130              	.L1:
 194:Generated_Source\PSoC4/UART_BLE_SCB_IRQ.c ****     }
 195:Generated_Source\PSoC4/UART_BLE_SCB_IRQ.c ****     /* `#END` */
 196:Generated_Source\PSoC4/UART_BLE_SCB_IRQ.c **** }
 131              		.loc 1 196 0
 132              		@ sp needed
 133              	.LVL13:
 134 007a 70BD     		pop	{r4, r5, r6, pc}
 135              	.L10:
 136              		.align	2
 137              	.L9:
 138 007c 00000000 		.word	num_rx_bytes_ble_buff
 139 0080 00000000 		.word	BLE_UART_tmr
 140 0084 00000000 		.word	rx_bytes_ble_buff
 141 0088 C00F2440 		.word	1076105152
ARM GAS  C:\Users\ERICHO~1\AppData\Local\Temp\ccTEweIY.s 			page 7


 142 008c 00000000 		.word	rx_bytes_ble
 143 0090 00000000 		.word	num_rx_bytes_ble
 144              		.cfi_endproc
 145              	.LFE4:
 146              		.size	UART_BLE_SCB_IRQ_Interrupt, .-UART_BLE_SCB_IRQ_Interrupt
 147              		.section	.text.UART_BLE_SCB_IRQ_SetVector,"ax",%progbits
 148              		.align	2
 149              		.global	UART_BLE_SCB_IRQ_SetVector
 150              		.code	16
 151              		.thumb_func
 152              		.type	UART_BLE_SCB_IRQ_SetVector, %function
 153              	UART_BLE_SCB_IRQ_SetVector:
 154              	.LFB5:
 197:Generated_Source\PSoC4/UART_BLE_SCB_IRQ.c **** 
 198:Generated_Source\PSoC4/UART_BLE_SCB_IRQ.c **** 
 199:Generated_Source\PSoC4/UART_BLE_SCB_IRQ.c **** /*******************************************************************************
 200:Generated_Source\PSoC4/UART_BLE_SCB_IRQ.c **** * Function Name: UART_BLE_SCB_IRQ_SetVector
 201:Generated_Source\PSoC4/UART_BLE_SCB_IRQ.c **** ********************************************************************************
 202:Generated_Source\PSoC4/UART_BLE_SCB_IRQ.c **** *
 203:Generated_Source\PSoC4/UART_BLE_SCB_IRQ.c **** * Summary:
 204:Generated_Source\PSoC4/UART_BLE_SCB_IRQ.c **** *   Change the ISR vector for the Interrupt. Note calling UART_BLE_SCB_IRQ_Start
 205:Generated_Source\PSoC4/UART_BLE_SCB_IRQ.c **** *   will override any effect this method would have had. To set the vector 
 206:Generated_Source\PSoC4/UART_BLE_SCB_IRQ.c **** *   before the component has been started use UART_BLE_SCB_IRQ_StartEx instead.
 207:Generated_Source\PSoC4/UART_BLE_SCB_IRQ.c **** * 
 208:Generated_Source\PSoC4/UART_BLE_SCB_IRQ.c **** *   When defining ISR functions, the CY_ISR and CY_ISR_PROTO macros should be 
 209:Generated_Source\PSoC4/UART_BLE_SCB_IRQ.c **** *   used to provide consistent definition across compilers:
 210:Generated_Source\PSoC4/UART_BLE_SCB_IRQ.c **** *
 211:Generated_Source\PSoC4/UART_BLE_SCB_IRQ.c **** *   Function definition example:
 212:Generated_Source\PSoC4/UART_BLE_SCB_IRQ.c **** *   CY_ISR(MyISR)
 213:Generated_Source\PSoC4/UART_BLE_SCB_IRQ.c **** *   {
 214:Generated_Source\PSoC4/UART_BLE_SCB_IRQ.c **** *   }
 215:Generated_Source\PSoC4/UART_BLE_SCB_IRQ.c **** *
 216:Generated_Source\PSoC4/UART_BLE_SCB_IRQ.c **** *   Function prototype example:
 217:Generated_Source\PSoC4/UART_BLE_SCB_IRQ.c **** *     CY_ISR_PROTO(MyISR);
 218:Generated_Source\PSoC4/UART_BLE_SCB_IRQ.c **** *
 219:Generated_Source\PSoC4/UART_BLE_SCB_IRQ.c **** * Parameters:
 220:Generated_Source\PSoC4/UART_BLE_SCB_IRQ.c **** *   address: Address of the ISR to set in the interrupt vector table.
 221:Generated_Source\PSoC4/UART_BLE_SCB_IRQ.c **** *
 222:Generated_Source\PSoC4/UART_BLE_SCB_IRQ.c **** * Return:
 223:Generated_Source\PSoC4/UART_BLE_SCB_IRQ.c **** *   None
 224:Generated_Source\PSoC4/UART_BLE_SCB_IRQ.c **** *
 225:Generated_Source\PSoC4/UART_BLE_SCB_IRQ.c **** *******************************************************************************/
 226:Generated_Source\PSoC4/UART_BLE_SCB_IRQ.c **** void UART_BLE_SCB_IRQ_SetVector(cyisraddress address)
 227:Generated_Source\PSoC4/UART_BLE_SCB_IRQ.c **** {
 155              		.loc 1 227 0
 156              		.cfi_startproc
 157              		@ args = 0, pretend = 0, frame = 0
 158              		@ frame_needed = 0, uses_anonymous_args = 0
 159              		@ link register save eliminated.
 160              	.LVL14:
 228:Generated_Source\PSoC4/UART_BLE_SCB_IRQ.c ****     CyRamVectors[CYINT_IRQ_BASE + UART_BLE_SCB_IRQ__INTC_NUMBER] = address;
 161              		.loc 1 228 0
 162 0000 014B     		ldr	r3, .L12
 163 0002 1866     		str	r0, [r3, #96]
 229:Generated_Source\PSoC4/UART_BLE_SCB_IRQ.c **** }
 164              		.loc 1 229 0
 165              		@ sp needed
ARM GAS  C:\Users\ERICHO~1\AppData\Local\Temp\ccTEweIY.s 			page 8


 166 0004 7047     		bx	lr
 167              	.L13:
 168 0006 C046     		.align	2
 169              	.L12:
 170 0008 00000000 		.word	CyRamVectors
 171              		.cfi_endproc
 172              	.LFE5:
 173              		.size	UART_BLE_SCB_IRQ_SetVector, .-UART_BLE_SCB_IRQ_SetVector
 174              		.section	.text.UART_BLE_SCB_IRQ_GetVector,"ax",%progbits
 175              		.align	2
 176              		.global	UART_BLE_SCB_IRQ_GetVector
 177              		.code	16
 178              		.thumb_func
 179              		.type	UART_BLE_SCB_IRQ_GetVector, %function
 180              	UART_BLE_SCB_IRQ_GetVector:
 181              	.LFB6:
 230:Generated_Source\PSoC4/UART_BLE_SCB_IRQ.c **** 
 231:Generated_Source\PSoC4/UART_BLE_SCB_IRQ.c **** 
 232:Generated_Source\PSoC4/UART_BLE_SCB_IRQ.c **** /*******************************************************************************
 233:Generated_Source\PSoC4/UART_BLE_SCB_IRQ.c **** * Function Name: UART_BLE_SCB_IRQ_GetVector
 234:Generated_Source\PSoC4/UART_BLE_SCB_IRQ.c **** ********************************************************************************
 235:Generated_Source\PSoC4/UART_BLE_SCB_IRQ.c **** *
 236:Generated_Source\PSoC4/UART_BLE_SCB_IRQ.c **** * Summary:
 237:Generated_Source\PSoC4/UART_BLE_SCB_IRQ.c **** *   Gets the "address" of the current ISR vector for the Interrupt.
 238:Generated_Source\PSoC4/UART_BLE_SCB_IRQ.c **** *
 239:Generated_Source\PSoC4/UART_BLE_SCB_IRQ.c **** * Parameters:
 240:Generated_Source\PSoC4/UART_BLE_SCB_IRQ.c **** *   None
 241:Generated_Source\PSoC4/UART_BLE_SCB_IRQ.c **** *
 242:Generated_Source\PSoC4/UART_BLE_SCB_IRQ.c **** * Return:
 243:Generated_Source\PSoC4/UART_BLE_SCB_IRQ.c **** *   Address of the ISR in the interrupt vector table.
 244:Generated_Source\PSoC4/UART_BLE_SCB_IRQ.c **** *
 245:Generated_Source\PSoC4/UART_BLE_SCB_IRQ.c **** *******************************************************************************/
 246:Generated_Source\PSoC4/UART_BLE_SCB_IRQ.c **** cyisraddress UART_BLE_SCB_IRQ_GetVector(void)
 247:Generated_Source\PSoC4/UART_BLE_SCB_IRQ.c **** {
 182              		.loc 1 247 0
 183              		.cfi_startproc
 184              		@ args = 0, pretend = 0, frame = 0
 185              		@ frame_needed = 0, uses_anonymous_args = 0
 186              		@ link register save eliminated.
 248:Generated_Source\PSoC4/UART_BLE_SCB_IRQ.c ****     return CyRamVectors[CYINT_IRQ_BASE + UART_BLE_SCB_IRQ__INTC_NUMBER];
 187              		.loc 1 248 0
 188 0000 014B     		ldr	r3, .L15
 189 0002 186E     		ldr	r0, [r3, #96]
 249:Generated_Source\PSoC4/UART_BLE_SCB_IRQ.c **** }
 190              		.loc 1 249 0
 191              		@ sp needed
 192 0004 7047     		bx	lr
 193              	.L16:
 194 0006 C046     		.align	2
 195              	.L15:
 196 0008 00000000 		.word	CyRamVectors
 197              		.cfi_endproc
 198              	.LFE6:
 199              		.size	UART_BLE_SCB_IRQ_GetVector, .-UART_BLE_SCB_IRQ_GetVector
 200              		.section	.text.UART_BLE_SCB_IRQ_SetPriority,"ax",%progbits
 201              		.align	2
 202              		.global	UART_BLE_SCB_IRQ_SetPriority
ARM GAS  C:\Users\ERICHO~1\AppData\Local\Temp\ccTEweIY.s 			page 9


 203              		.code	16
 204              		.thumb_func
 205              		.type	UART_BLE_SCB_IRQ_SetPriority, %function
 206              	UART_BLE_SCB_IRQ_SetPriority:
 207              	.LFB7:
 250:Generated_Source\PSoC4/UART_BLE_SCB_IRQ.c **** 
 251:Generated_Source\PSoC4/UART_BLE_SCB_IRQ.c **** 
 252:Generated_Source\PSoC4/UART_BLE_SCB_IRQ.c **** /*******************************************************************************
 253:Generated_Source\PSoC4/UART_BLE_SCB_IRQ.c **** * Function Name: UART_BLE_SCB_IRQ_SetPriority
 254:Generated_Source\PSoC4/UART_BLE_SCB_IRQ.c **** ********************************************************************************
 255:Generated_Source\PSoC4/UART_BLE_SCB_IRQ.c **** *
 256:Generated_Source\PSoC4/UART_BLE_SCB_IRQ.c **** * Summary:
 257:Generated_Source\PSoC4/UART_BLE_SCB_IRQ.c **** *   Sets the Priority of the Interrupt. 
 258:Generated_Source\PSoC4/UART_BLE_SCB_IRQ.c **** *
 259:Generated_Source\PSoC4/UART_BLE_SCB_IRQ.c **** *   Note calling UART_BLE_SCB_IRQ_Start or UART_BLE_SCB_IRQ_StartEx will 
 260:Generated_Source\PSoC4/UART_BLE_SCB_IRQ.c **** *   override any effect this API would have had. This API should only be called
 261:Generated_Source\PSoC4/UART_BLE_SCB_IRQ.c **** *   after UART_BLE_SCB_IRQ_Start or UART_BLE_SCB_IRQ_StartEx has been called. 
 262:Generated_Source\PSoC4/UART_BLE_SCB_IRQ.c **** *   To set the initial priority for the component, use the Design-Wide Resources
 263:Generated_Source\PSoC4/UART_BLE_SCB_IRQ.c **** *   Interrupt Editor.
 264:Generated_Source\PSoC4/UART_BLE_SCB_IRQ.c **** *
 265:Generated_Source\PSoC4/UART_BLE_SCB_IRQ.c **** *   Note This API has no effect on Non-maskable interrupt NMI).
 266:Generated_Source\PSoC4/UART_BLE_SCB_IRQ.c **** *
 267:Generated_Source\PSoC4/UART_BLE_SCB_IRQ.c **** * Parameters:
 268:Generated_Source\PSoC4/UART_BLE_SCB_IRQ.c **** *   priority: Priority of the interrupt, 0 being the highest priority
 269:Generated_Source\PSoC4/UART_BLE_SCB_IRQ.c **** *             PSoC 3 and PSoC 5LP: Priority is from 0 to 7.
 270:Generated_Source\PSoC4/UART_BLE_SCB_IRQ.c **** *             PSoC 4: Priority is from 0 to 3.
 271:Generated_Source\PSoC4/UART_BLE_SCB_IRQ.c **** *
 272:Generated_Source\PSoC4/UART_BLE_SCB_IRQ.c **** * Return:
 273:Generated_Source\PSoC4/UART_BLE_SCB_IRQ.c **** *   None
 274:Generated_Source\PSoC4/UART_BLE_SCB_IRQ.c **** *
 275:Generated_Source\PSoC4/UART_BLE_SCB_IRQ.c **** *******************************************************************************/
 276:Generated_Source\PSoC4/UART_BLE_SCB_IRQ.c **** void UART_BLE_SCB_IRQ_SetPriority(uint8 priority)
 277:Generated_Source\PSoC4/UART_BLE_SCB_IRQ.c **** {
 208              		.loc 1 277 0
 209              		.cfi_startproc
 210              		@ args = 0, pretend = 0, frame = 0
 211              		@ frame_needed = 0, uses_anonymous_args = 0
 212              	.LVL15:
 213 0000 10B5     		push	{r4, lr}
 214              		.cfi_def_cfa_offset 8
 215              		.cfi_offset 4, -8
 216              		.cfi_offset 14, -4
 217 0002 0400     		movs	r4, r0
 218              	.LVL16:
 278:Generated_Source\PSoC4/UART_BLE_SCB_IRQ.c **** 	uint8 interruptState;
 279:Generated_Source\PSoC4/UART_BLE_SCB_IRQ.c ****     uint32 priorityOffset = ((UART_BLE_SCB_IRQ__INTC_NUMBER % 4u) * 8u) + 6u;
 280:Generated_Source\PSoC4/UART_BLE_SCB_IRQ.c ****     
 281:Generated_Source\PSoC4/UART_BLE_SCB_IRQ.c **** 	interruptState = CyEnterCriticalSection();
 219              		.loc 1 281 0
 220 0004 FFF7FEFF 		bl	CyEnterCriticalSection
 221              	.LVL17:
 282:Generated_Source\PSoC4/UART_BLE_SCB_IRQ.c ****     *UART_BLE_SCB_IRQ_INTC_PRIOR = (*UART_BLE_SCB_IRQ_INTC_PRIOR & (uint32)(~UART_BLE_SCB_IRQ__INTC
 222              		.loc 1 282 0
 223 0008 044A     		ldr	r2, .L18
 224 000a 1368     		ldr	r3, [r2]
 225 000c C021     		movs	r1, #192
 226 000e 8B43     		bics	r3, r1
ARM GAS  C:\Users\ERICHO~1\AppData\Local\Temp\ccTEweIY.s 			page 10


 283:Generated_Source\PSoC4/UART_BLE_SCB_IRQ.c ****                                     ((uint32)priority << priorityOffset);
 227              		.loc 1 283 0
 228 0010 A401     		lsls	r4, r4, #6
 282:Generated_Source\PSoC4/UART_BLE_SCB_IRQ.c ****     *UART_BLE_SCB_IRQ_INTC_PRIOR = (*UART_BLE_SCB_IRQ_INTC_PRIOR & (uint32)(~UART_BLE_SCB_IRQ__INTC
 229              		.loc 1 282 0
 230 0012 1C43     		orrs	r4, r3
 231 0014 1460     		str	r4, [r2]
 284:Generated_Source\PSoC4/UART_BLE_SCB_IRQ.c **** 	CyExitCriticalSection(interruptState);
 232              		.loc 1 284 0
 233 0016 FFF7FEFF 		bl	CyExitCriticalSection
 234              	.LVL18:
 285:Generated_Source\PSoC4/UART_BLE_SCB_IRQ.c **** }
 235              		.loc 1 285 0
 236              		@ sp needed
 237 001a 10BD     		pop	{r4, pc}
 238              	.L19:
 239              		.align	2
 240              	.L18:
 241 001c 08E400E0 		.word	-536812536
 242              		.cfi_endproc
 243              	.LFE7:
 244              		.size	UART_BLE_SCB_IRQ_SetPriority, .-UART_BLE_SCB_IRQ_SetPriority
 245              		.section	.text.UART_BLE_SCB_IRQ_GetPriority,"ax",%progbits
 246              		.align	2
 247              		.global	UART_BLE_SCB_IRQ_GetPriority
 248              		.code	16
 249              		.thumb_func
 250              		.type	UART_BLE_SCB_IRQ_GetPriority, %function
 251              	UART_BLE_SCB_IRQ_GetPriority:
 252              	.LFB8:
 286:Generated_Source\PSoC4/UART_BLE_SCB_IRQ.c **** 
 287:Generated_Source\PSoC4/UART_BLE_SCB_IRQ.c **** 
 288:Generated_Source\PSoC4/UART_BLE_SCB_IRQ.c **** /*******************************************************************************
 289:Generated_Source\PSoC4/UART_BLE_SCB_IRQ.c **** * Function Name: UART_BLE_SCB_IRQ_GetPriority
 290:Generated_Source\PSoC4/UART_BLE_SCB_IRQ.c **** ********************************************************************************
 291:Generated_Source\PSoC4/UART_BLE_SCB_IRQ.c **** *
 292:Generated_Source\PSoC4/UART_BLE_SCB_IRQ.c **** * Summary:
 293:Generated_Source\PSoC4/UART_BLE_SCB_IRQ.c **** *   Gets the Priority of the Interrupt.
 294:Generated_Source\PSoC4/UART_BLE_SCB_IRQ.c **** *
 295:Generated_Source\PSoC4/UART_BLE_SCB_IRQ.c **** * Parameters:
 296:Generated_Source\PSoC4/UART_BLE_SCB_IRQ.c **** *   None
 297:Generated_Source\PSoC4/UART_BLE_SCB_IRQ.c **** *
 298:Generated_Source\PSoC4/UART_BLE_SCB_IRQ.c **** * Return:
 299:Generated_Source\PSoC4/UART_BLE_SCB_IRQ.c **** *   Priority of the interrupt, 0 being the highest priority
 300:Generated_Source\PSoC4/UART_BLE_SCB_IRQ.c **** *    PSoC 3 and PSoC 5LP: Priority is from 0 to 7.
 301:Generated_Source\PSoC4/UART_BLE_SCB_IRQ.c **** *    PSoC 4: Priority is from 0 to 3.
 302:Generated_Source\PSoC4/UART_BLE_SCB_IRQ.c **** *
 303:Generated_Source\PSoC4/UART_BLE_SCB_IRQ.c **** *******************************************************************************/
 304:Generated_Source\PSoC4/UART_BLE_SCB_IRQ.c **** uint8 UART_BLE_SCB_IRQ_GetPriority(void)
 305:Generated_Source\PSoC4/UART_BLE_SCB_IRQ.c **** {
 253              		.loc 1 305 0
 254              		.cfi_startproc
 255              		@ args = 0, pretend = 0, frame = 0
 256              		@ frame_needed = 0, uses_anonymous_args = 0
 257              		@ link register save eliminated.
 258              	.LVL19:
 306:Generated_Source\PSoC4/UART_BLE_SCB_IRQ.c ****     uint32 priority;
ARM GAS  C:\Users\ERICHO~1\AppData\Local\Temp\ccTEweIY.s 			page 11


 307:Generated_Source\PSoC4/UART_BLE_SCB_IRQ.c **** 	uint32 priorityOffset = ((UART_BLE_SCB_IRQ__INTC_NUMBER % 4u) * 8u) + 6u;
 308:Generated_Source\PSoC4/UART_BLE_SCB_IRQ.c **** 
 309:Generated_Source\PSoC4/UART_BLE_SCB_IRQ.c ****     priority = (*UART_BLE_SCB_IRQ_INTC_PRIOR & UART_BLE_SCB_IRQ__INTC_PRIOR_MASK) >> priorityOffset
 259              		.loc 1 309 0
 260 0000 024B     		ldr	r3, .L21
 261 0002 1868     		ldr	r0, [r3]
 262 0004 8009     		lsrs	r0, r0, #6
 263              	.LVL20:
 310:Generated_Source\PSoC4/UART_BLE_SCB_IRQ.c **** 
 311:Generated_Source\PSoC4/UART_BLE_SCB_IRQ.c ****     return (uint8)priority;
 264              		.loc 1 311 0
 265 0006 0323     		movs	r3, #3
 266 0008 1840     		ands	r0, r3
 267              	.LVL21:
 312:Generated_Source\PSoC4/UART_BLE_SCB_IRQ.c **** }
 268              		.loc 1 312 0
 269              		@ sp needed
 270 000a 7047     		bx	lr
 271              	.L22:
 272              		.align	2
 273              	.L21:
 274 000c 08E400E0 		.word	-536812536
 275              		.cfi_endproc
 276              	.LFE8:
 277              		.size	UART_BLE_SCB_IRQ_GetPriority, .-UART_BLE_SCB_IRQ_GetPriority
 278              		.section	.text.UART_BLE_SCB_IRQ_Enable,"ax",%progbits
 279              		.align	2
 280              		.global	UART_BLE_SCB_IRQ_Enable
 281              		.code	16
 282              		.thumb_func
 283              		.type	UART_BLE_SCB_IRQ_Enable, %function
 284              	UART_BLE_SCB_IRQ_Enable:
 285              	.LFB9:
 313:Generated_Source\PSoC4/UART_BLE_SCB_IRQ.c **** 
 314:Generated_Source\PSoC4/UART_BLE_SCB_IRQ.c **** 
 315:Generated_Source\PSoC4/UART_BLE_SCB_IRQ.c **** /*******************************************************************************
 316:Generated_Source\PSoC4/UART_BLE_SCB_IRQ.c **** * Function Name: UART_BLE_SCB_IRQ_Enable
 317:Generated_Source\PSoC4/UART_BLE_SCB_IRQ.c **** ********************************************************************************
 318:Generated_Source\PSoC4/UART_BLE_SCB_IRQ.c **** *
 319:Generated_Source\PSoC4/UART_BLE_SCB_IRQ.c **** * Summary:
 320:Generated_Source\PSoC4/UART_BLE_SCB_IRQ.c **** *   Enables the interrupt to the interrupt controller. Do not call this function
 321:Generated_Source\PSoC4/UART_BLE_SCB_IRQ.c **** *   unless ISR_Start() has been called or the functionality of the ISR_Start() 
 322:Generated_Source\PSoC4/UART_BLE_SCB_IRQ.c **** *   function, which sets the vector and the priority, has been called.
 323:Generated_Source\PSoC4/UART_BLE_SCB_IRQ.c **** *
 324:Generated_Source\PSoC4/UART_BLE_SCB_IRQ.c **** * Parameters:
 325:Generated_Source\PSoC4/UART_BLE_SCB_IRQ.c **** *   None
 326:Generated_Source\PSoC4/UART_BLE_SCB_IRQ.c **** *
 327:Generated_Source\PSoC4/UART_BLE_SCB_IRQ.c **** * Return:
 328:Generated_Source\PSoC4/UART_BLE_SCB_IRQ.c **** *   None
 329:Generated_Source\PSoC4/UART_BLE_SCB_IRQ.c **** *
 330:Generated_Source\PSoC4/UART_BLE_SCB_IRQ.c **** *******************************************************************************/
 331:Generated_Source\PSoC4/UART_BLE_SCB_IRQ.c **** void UART_BLE_SCB_IRQ_Enable(void)
 332:Generated_Source\PSoC4/UART_BLE_SCB_IRQ.c **** {
 286              		.loc 1 332 0
 287              		.cfi_startproc
 288              		@ args = 0, pretend = 0, frame = 0
 289              		@ frame_needed = 0, uses_anonymous_args = 0
ARM GAS  C:\Users\ERICHO~1\AppData\Local\Temp\ccTEweIY.s 			page 12


 290              		@ link register save eliminated.
 333:Generated_Source\PSoC4/UART_BLE_SCB_IRQ.c ****     /* Enable the general interrupt. */
 334:Generated_Source\PSoC4/UART_BLE_SCB_IRQ.c ****     *UART_BLE_SCB_IRQ_INTC_SET_EN = UART_BLE_SCB_IRQ__INTC_MASK;
 291              		.loc 1 334 0
 292 0000 8022     		movs	r2, #128
 293 0002 5200     		lsls	r2, r2, #1
 294 0004 014B     		ldr	r3, .L24
 295 0006 1A60     		str	r2, [r3]
 335:Generated_Source\PSoC4/UART_BLE_SCB_IRQ.c **** }
 296              		.loc 1 335 0
 297              		@ sp needed
 298 0008 7047     		bx	lr
 299              	.L25:
 300 000a C046     		.align	2
 301              	.L24:
 302 000c 00E100E0 		.word	-536813312
 303              		.cfi_endproc
 304              	.LFE9:
 305              		.size	UART_BLE_SCB_IRQ_Enable, .-UART_BLE_SCB_IRQ_Enable
 306              		.section	.text.UART_BLE_SCB_IRQ_GetState,"ax",%progbits
 307              		.align	2
 308              		.global	UART_BLE_SCB_IRQ_GetState
 309              		.code	16
 310              		.thumb_func
 311              		.type	UART_BLE_SCB_IRQ_GetState, %function
 312              	UART_BLE_SCB_IRQ_GetState:
 313              	.LFB10:
 336:Generated_Source\PSoC4/UART_BLE_SCB_IRQ.c **** 
 337:Generated_Source\PSoC4/UART_BLE_SCB_IRQ.c **** 
 338:Generated_Source\PSoC4/UART_BLE_SCB_IRQ.c **** /*******************************************************************************
 339:Generated_Source\PSoC4/UART_BLE_SCB_IRQ.c **** * Function Name: UART_BLE_SCB_IRQ_GetState
 340:Generated_Source\PSoC4/UART_BLE_SCB_IRQ.c **** ********************************************************************************
 341:Generated_Source\PSoC4/UART_BLE_SCB_IRQ.c **** *
 342:Generated_Source\PSoC4/UART_BLE_SCB_IRQ.c **** * Summary:
 343:Generated_Source\PSoC4/UART_BLE_SCB_IRQ.c **** *   Gets the state (enabled, disabled) of the Interrupt.
 344:Generated_Source\PSoC4/UART_BLE_SCB_IRQ.c **** *
 345:Generated_Source\PSoC4/UART_BLE_SCB_IRQ.c **** * Parameters:
 346:Generated_Source\PSoC4/UART_BLE_SCB_IRQ.c **** *   None
 347:Generated_Source\PSoC4/UART_BLE_SCB_IRQ.c **** *
 348:Generated_Source\PSoC4/UART_BLE_SCB_IRQ.c **** * Return:
 349:Generated_Source\PSoC4/UART_BLE_SCB_IRQ.c **** *   1 if enabled, 0 if disabled.
 350:Generated_Source\PSoC4/UART_BLE_SCB_IRQ.c **** *
 351:Generated_Source\PSoC4/UART_BLE_SCB_IRQ.c **** *******************************************************************************/
 352:Generated_Source\PSoC4/UART_BLE_SCB_IRQ.c **** uint8 UART_BLE_SCB_IRQ_GetState(void)
 353:Generated_Source\PSoC4/UART_BLE_SCB_IRQ.c **** {
 314              		.loc 1 353 0
 315              		.cfi_startproc
 316              		@ args = 0, pretend = 0, frame = 0
 317              		@ frame_needed = 0, uses_anonymous_args = 0
 318              		@ link register save eliminated.
 354:Generated_Source\PSoC4/UART_BLE_SCB_IRQ.c ****     /* Get the state of the general interrupt. */
 355:Generated_Source\PSoC4/UART_BLE_SCB_IRQ.c ****     return ((*UART_BLE_SCB_IRQ_INTC_SET_EN & (uint32)UART_BLE_SCB_IRQ__INTC_MASK) != 0u) ? 1u:0u;
 319              		.loc 1 355 0
 320 0000 034B     		ldr	r3, .L29
 321 0002 1B68     		ldr	r3, [r3]
 322 0004 DB05     		lsls	r3, r3, #23
 323 0006 01D5     		bpl	.L28
ARM GAS  C:\Users\ERICHO~1\AppData\Local\Temp\ccTEweIY.s 			page 13


 324 0008 0120     		movs	r0, #1
 325 000a 00E0     		b	.L27
 326              	.L28:
 327 000c 0020     		movs	r0, #0
 328              	.L27:
 356:Generated_Source\PSoC4/UART_BLE_SCB_IRQ.c **** }
 329              		.loc 1 356 0 discriminator 4
 330              		@ sp needed
 331 000e 7047     		bx	lr
 332              	.L30:
 333              		.align	2
 334              	.L29:
 335 0010 00E100E0 		.word	-536813312
 336              		.cfi_endproc
 337              	.LFE10:
 338              		.size	UART_BLE_SCB_IRQ_GetState, .-UART_BLE_SCB_IRQ_GetState
 339              		.section	.text.UART_BLE_SCB_IRQ_Disable,"ax",%progbits
 340              		.align	2
 341              		.global	UART_BLE_SCB_IRQ_Disable
 342              		.code	16
 343              		.thumb_func
 344              		.type	UART_BLE_SCB_IRQ_Disable, %function
 345              	UART_BLE_SCB_IRQ_Disable:
 346              	.LFB11:
 357:Generated_Source\PSoC4/UART_BLE_SCB_IRQ.c **** 
 358:Generated_Source\PSoC4/UART_BLE_SCB_IRQ.c **** 
 359:Generated_Source\PSoC4/UART_BLE_SCB_IRQ.c **** /*******************************************************************************
 360:Generated_Source\PSoC4/UART_BLE_SCB_IRQ.c **** * Function Name: UART_BLE_SCB_IRQ_Disable
 361:Generated_Source\PSoC4/UART_BLE_SCB_IRQ.c **** ********************************************************************************
 362:Generated_Source\PSoC4/UART_BLE_SCB_IRQ.c **** *
 363:Generated_Source\PSoC4/UART_BLE_SCB_IRQ.c **** * Summary:
 364:Generated_Source\PSoC4/UART_BLE_SCB_IRQ.c **** *   Disables the Interrupt in the interrupt controller.
 365:Generated_Source\PSoC4/UART_BLE_SCB_IRQ.c **** *
 366:Generated_Source\PSoC4/UART_BLE_SCB_IRQ.c **** * Parameters:
 367:Generated_Source\PSoC4/UART_BLE_SCB_IRQ.c **** *   None
 368:Generated_Source\PSoC4/UART_BLE_SCB_IRQ.c **** *
 369:Generated_Source\PSoC4/UART_BLE_SCB_IRQ.c **** * Return:
 370:Generated_Source\PSoC4/UART_BLE_SCB_IRQ.c **** *   None
 371:Generated_Source\PSoC4/UART_BLE_SCB_IRQ.c **** *
 372:Generated_Source\PSoC4/UART_BLE_SCB_IRQ.c **** *******************************************************************************/
 373:Generated_Source\PSoC4/UART_BLE_SCB_IRQ.c **** void UART_BLE_SCB_IRQ_Disable(void)
 374:Generated_Source\PSoC4/UART_BLE_SCB_IRQ.c **** {
 347              		.loc 1 374 0
 348              		.cfi_startproc
 349              		@ args = 0, pretend = 0, frame = 0
 350              		@ frame_needed = 0, uses_anonymous_args = 0
 351              		@ link register save eliminated.
 375:Generated_Source\PSoC4/UART_BLE_SCB_IRQ.c ****     /* Disable the general interrupt. */
 376:Generated_Source\PSoC4/UART_BLE_SCB_IRQ.c ****     *UART_BLE_SCB_IRQ_INTC_CLR_EN = UART_BLE_SCB_IRQ__INTC_MASK;
 352              		.loc 1 376 0
 353 0000 8022     		movs	r2, #128
 354 0002 5200     		lsls	r2, r2, #1
 355 0004 014B     		ldr	r3, .L32
 356 0006 1A60     		str	r2, [r3]
 377:Generated_Source\PSoC4/UART_BLE_SCB_IRQ.c **** }
 357              		.loc 1 377 0
 358              		@ sp needed
ARM GAS  C:\Users\ERICHO~1\AppData\Local\Temp\ccTEweIY.s 			page 14


 359 0008 7047     		bx	lr
 360              	.L33:
 361 000a C046     		.align	2
 362              	.L32:
 363 000c 80E100E0 		.word	-536813184
 364              		.cfi_endproc
 365              	.LFE11:
 366              		.size	UART_BLE_SCB_IRQ_Disable, .-UART_BLE_SCB_IRQ_Disable
 367              		.section	.text.UART_BLE_SCB_IRQ_Start,"ax",%progbits
 368              		.align	2
 369              		.global	UART_BLE_SCB_IRQ_Start
 370              		.code	16
 371              		.thumb_func
 372              		.type	UART_BLE_SCB_IRQ_Start, %function
 373              	UART_BLE_SCB_IRQ_Start:
 374              	.LFB1:
  59:Generated_Source\PSoC4/UART_BLE_SCB_IRQ.c ****     /* For all we know the interrupt is active. */
 375              		.loc 1 59 0
 376              		.cfi_startproc
 377              		@ args = 0, pretend = 0, frame = 0
 378              		@ frame_needed = 0, uses_anonymous_args = 0
 379 0000 10B5     		push	{r4, lr}
 380              		.cfi_def_cfa_offset 8
 381              		.cfi_offset 4, -8
 382              		.cfi_offset 14, -4
  61:Generated_Source\PSoC4/UART_BLE_SCB_IRQ.c **** 
 383              		.loc 1 61 0
 384 0002 FFF7FEFF 		bl	UART_BLE_SCB_IRQ_Disable
 385              	.LVL22:
  64:Generated_Source\PSoC4/UART_BLE_SCB_IRQ.c **** 
 386              		.loc 1 64 0
 387 0006 0448     		ldr	r0, .L35
 388 0008 FFF7FEFF 		bl	UART_BLE_SCB_IRQ_SetVector
 389              	.LVL23:
  67:Generated_Source\PSoC4/UART_BLE_SCB_IRQ.c **** 
 390              		.loc 1 67 0
 391 000c 0320     		movs	r0, #3
 392 000e FFF7FEFF 		bl	UART_BLE_SCB_IRQ_SetPriority
 393              	.LVL24:
  70:Generated_Source\PSoC4/UART_BLE_SCB_IRQ.c **** }
 394              		.loc 1 70 0
 395 0012 FFF7FEFF 		bl	UART_BLE_SCB_IRQ_Enable
 396              	.LVL25:
  71:Generated_Source\PSoC4/UART_BLE_SCB_IRQ.c **** 
 397              		.loc 1 71 0
 398              		@ sp needed
 399 0016 10BD     		pop	{r4, pc}
 400              	.L36:
 401              		.align	2
 402              	.L35:
 403 0018 00000000 		.word	UART_BLE_SCB_IRQ_Interrupt
 404              		.cfi_endproc
 405              	.LFE1:
 406              		.size	UART_BLE_SCB_IRQ_Start, .-UART_BLE_SCB_IRQ_Start
 407              		.section	.text.UART_BLE_SCB_IRQ_StartEx,"ax",%progbits
 408              		.align	2
 409              		.global	UART_BLE_SCB_IRQ_StartEx
ARM GAS  C:\Users\ERICHO~1\AppData\Local\Temp\ccTEweIY.s 			page 15


 410              		.code	16
 411              		.thumb_func
 412              		.type	UART_BLE_SCB_IRQ_StartEx, %function
 413              	UART_BLE_SCB_IRQ_StartEx:
 414              	.LFB2:
 102:Generated_Source\PSoC4/UART_BLE_SCB_IRQ.c ****     /* For all we know the interrupt is active. */
 415              		.loc 1 102 0
 416              		.cfi_startproc
 417              		@ args = 0, pretend = 0, frame = 0
 418              		@ frame_needed = 0, uses_anonymous_args = 0
 419              	.LVL26:
 420 0000 10B5     		push	{r4, lr}
 421              		.cfi_def_cfa_offset 8
 422              		.cfi_offset 4, -8
 423              		.cfi_offset 14, -4
 424 0002 0400     		movs	r4, r0
 104:Generated_Source\PSoC4/UART_BLE_SCB_IRQ.c **** 
 425              		.loc 1 104 0
 426 0004 FFF7FEFF 		bl	UART_BLE_SCB_IRQ_Disable
 427              	.LVL27:
 107:Generated_Source\PSoC4/UART_BLE_SCB_IRQ.c **** 
 428              		.loc 1 107 0
 429 0008 2000     		movs	r0, r4
 430 000a FFF7FEFF 		bl	UART_BLE_SCB_IRQ_SetVector
 431              	.LVL28:
 110:Generated_Source\PSoC4/UART_BLE_SCB_IRQ.c **** 
 432              		.loc 1 110 0
 433 000e 0320     		movs	r0, #3
 434 0010 FFF7FEFF 		bl	UART_BLE_SCB_IRQ_SetPriority
 435              	.LVL29:
 113:Generated_Source\PSoC4/UART_BLE_SCB_IRQ.c **** }
 436              		.loc 1 113 0
 437 0014 FFF7FEFF 		bl	UART_BLE_SCB_IRQ_Enable
 438              	.LVL30:
 114:Generated_Source\PSoC4/UART_BLE_SCB_IRQ.c **** 
 439              		.loc 1 114 0
 440              		@ sp needed
 441              	.LVL31:
 442 0018 10BD     		pop	{r4, pc}
 443              		.cfi_endproc
 444              	.LFE2:
 445              		.size	UART_BLE_SCB_IRQ_StartEx, .-UART_BLE_SCB_IRQ_StartEx
 446 001a C046     		.section	.text.UART_BLE_SCB_IRQ_Stop,"ax",%progbits
 447              		.align	2
 448              		.global	UART_BLE_SCB_IRQ_Stop
 449              		.code	16
 450              		.thumb_func
 451              		.type	UART_BLE_SCB_IRQ_Stop, %function
 452              	UART_BLE_SCB_IRQ_Stop:
 453              	.LFB3:
 132:Generated_Source\PSoC4/UART_BLE_SCB_IRQ.c ****     /* Disable this interrupt. */
 454              		.loc 1 132 0
 455              		.cfi_startproc
 456              		@ args = 0, pretend = 0, frame = 0
 457              		@ frame_needed = 0, uses_anonymous_args = 0
 458 0000 10B5     		push	{r4, lr}
 459              		.cfi_def_cfa_offset 8
ARM GAS  C:\Users\ERICHO~1\AppData\Local\Temp\ccTEweIY.s 			page 16


 460              		.cfi_offset 4, -8
 461              		.cfi_offset 14, -4
 134:Generated_Source\PSoC4/UART_BLE_SCB_IRQ.c **** 
 462              		.loc 1 134 0
 463 0002 FFF7FEFF 		bl	UART_BLE_SCB_IRQ_Disable
 464              	.LVL32:
 137:Generated_Source\PSoC4/UART_BLE_SCB_IRQ.c **** }
 465              		.loc 1 137 0
 466 0006 0248     		ldr	r0, .L39
 467 0008 FFF7FEFF 		bl	UART_BLE_SCB_IRQ_SetVector
 468              	.LVL33:
 138:Generated_Source\PSoC4/UART_BLE_SCB_IRQ.c **** 
 469              		.loc 1 138 0
 470              		@ sp needed
 471 000c 10BD     		pop	{r4, pc}
 472              	.L40:
 473 000e C046     		.align	2
 474              	.L39:
 475 0010 00000000 		.word	IntDefaultHandler
 476              		.cfi_endproc
 477              	.LFE3:
 478              		.size	UART_BLE_SCB_IRQ_Stop, .-UART_BLE_SCB_IRQ_Stop
 479              		.section	.text.UART_BLE_SCB_IRQ_SetPending,"ax",%progbits
 480              		.align	2
 481              		.global	UART_BLE_SCB_IRQ_SetPending
 482              		.code	16
 483              		.thumb_func
 484              		.type	UART_BLE_SCB_IRQ_SetPending, %function
 485              	UART_BLE_SCB_IRQ_SetPending:
 486              	.LFB12:
 378:Generated_Source\PSoC4/UART_BLE_SCB_IRQ.c **** 
 379:Generated_Source\PSoC4/UART_BLE_SCB_IRQ.c **** 
 380:Generated_Source\PSoC4/UART_BLE_SCB_IRQ.c **** /*******************************************************************************
 381:Generated_Source\PSoC4/UART_BLE_SCB_IRQ.c **** * Function Name: UART_BLE_SCB_IRQ_SetPending
 382:Generated_Source\PSoC4/UART_BLE_SCB_IRQ.c **** ********************************************************************************
 383:Generated_Source\PSoC4/UART_BLE_SCB_IRQ.c **** *
 384:Generated_Source\PSoC4/UART_BLE_SCB_IRQ.c **** * Summary:
 385:Generated_Source\PSoC4/UART_BLE_SCB_IRQ.c **** *   Causes the Interrupt to enter the pending state, a software method of
 386:Generated_Source\PSoC4/UART_BLE_SCB_IRQ.c **** *   generating the interrupt.
 387:Generated_Source\PSoC4/UART_BLE_SCB_IRQ.c **** *
 388:Generated_Source\PSoC4/UART_BLE_SCB_IRQ.c **** * Parameters:
 389:Generated_Source\PSoC4/UART_BLE_SCB_IRQ.c **** *   None
 390:Generated_Source\PSoC4/UART_BLE_SCB_IRQ.c **** *
 391:Generated_Source\PSoC4/UART_BLE_SCB_IRQ.c **** * Return:
 392:Generated_Source\PSoC4/UART_BLE_SCB_IRQ.c **** *   None
 393:Generated_Source\PSoC4/UART_BLE_SCB_IRQ.c **** *
 394:Generated_Source\PSoC4/UART_BLE_SCB_IRQ.c **** * Side Effects:
 395:Generated_Source\PSoC4/UART_BLE_SCB_IRQ.c **** *   If interrupts are enabled and the interrupt is set up properly, the ISR is
 396:Generated_Source\PSoC4/UART_BLE_SCB_IRQ.c **** *   entered (depending on the priority of this interrupt and other pending 
 397:Generated_Source\PSoC4/UART_BLE_SCB_IRQ.c **** *   interrupts).
 398:Generated_Source\PSoC4/UART_BLE_SCB_IRQ.c **** *
 399:Generated_Source\PSoC4/UART_BLE_SCB_IRQ.c **** *******************************************************************************/
 400:Generated_Source\PSoC4/UART_BLE_SCB_IRQ.c **** void UART_BLE_SCB_IRQ_SetPending(void)
 401:Generated_Source\PSoC4/UART_BLE_SCB_IRQ.c **** {
 487              		.loc 1 401 0
 488              		.cfi_startproc
 489              		@ args = 0, pretend = 0, frame = 0
ARM GAS  C:\Users\ERICHO~1\AppData\Local\Temp\ccTEweIY.s 			page 17


 490              		@ frame_needed = 0, uses_anonymous_args = 0
 491              		@ link register save eliminated.
 402:Generated_Source\PSoC4/UART_BLE_SCB_IRQ.c ****     *UART_BLE_SCB_IRQ_INTC_SET_PD = UART_BLE_SCB_IRQ__INTC_MASK;
 492              		.loc 1 402 0
 493 0000 8022     		movs	r2, #128
 494 0002 5200     		lsls	r2, r2, #1
 495 0004 014B     		ldr	r3, .L42
 496 0006 1A60     		str	r2, [r3]
 403:Generated_Source\PSoC4/UART_BLE_SCB_IRQ.c **** }
 497              		.loc 1 403 0
 498              		@ sp needed
 499 0008 7047     		bx	lr
 500              	.L43:
 501 000a C046     		.align	2
 502              	.L42:
 503 000c 00E200E0 		.word	-536813056
 504              		.cfi_endproc
 505              	.LFE12:
 506              		.size	UART_BLE_SCB_IRQ_SetPending, .-UART_BLE_SCB_IRQ_SetPending
 507              		.section	.text.UART_BLE_SCB_IRQ_ClearPending,"ax",%progbits
 508              		.align	2
 509              		.global	UART_BLE_SCB_IRQ_ClearPending
 510              		.code	16
 511              		.thumb_func
 512              		.type	UART_BLE_SCB_IRQ_ClearPending, %function
 513              	UART_BLE_SCB_IRQ_ClearPending:
 514              	.LFB13:
 404:Generated_Source\PSoC4/UART_BLE_SCB_IRQ.c **** 
 405:Generated_Source\PSoC4/UART_BLE_SCB_IRQ.c **** 
 406:Generated_Source\PSoC4/UART_BLE_SCB_IRQ.c **** /*******************************************************************************
 407:Generated_Source\PSoC4/UART_BLE_SCB_IRQ.c **** * Function Name: UART_BLE_SCB_IRQ_ClearPending
 408:Generated_Source\PSoC4/UART_BLE_SCB_IRQ.c **** ********************************************************************************
 409:Generated_Source\PSoC4/UART_BLE_SCB_IRQ.c **** *
 410:Generated_Source\PSoC4/UART_BLE_SCB_IRQ.c **** * Summary:
 411:Generated_Source\PSoC4/UART_BLE_SCB_IRQ.c **** *   Clears a pending interrupt in the interrupt controller.
 412:Generated_Source\PSoC4/UART_BLE_SCB_IRQ.c **** *
 413:Generated_Source\PSoC4/UART_BLE_SCB_IRQ.c **** *   Note Some interrupt sources are clear-on-read and require the block 
 414:Generated_Source\PSoC4/UART_BLE_SCB_IRQ.c **** *   interrupt/status register to be read/cleared with the appropriate block API 
 415:Generated_Source\PSoC4/UART_BLE_SCB_IRQ.c **** *   (GPIO, UART, and so on). Otherwise the ISR will continue to remain in 
 416:Generated_Source\PSoC4/UART_BLE_SCB_IRQ.c **** *   pending state even though the interrupt itself is cleared using this API.
 417:Generated_Source\PSoC4/UART_BLE_SCB_IRQ.c **** *
 418:Generated_Source\PSoC4/UART_BLE_SCB_IRQ.c **** * Parameters:
 419:Generated_Source\PSoC4/UART_BLE_SCB_IRQ.c **** *   None
 420:Generated_Source\PSoC4/UART_BLE_SCB_IRQ.c **** *
 421:Generated_Source\PSoC4/UART_BLE_SCB_IRQ.c **** * Return:
 422:Generated_Source\PSoC4/UART_BLE_SCB_IRQ.c **** *   None
 423:Generated_Source\PSoC4/UART_BLE_SCB_IRQ.c **** *
 424:Generated_Source\PSoC4/UART_BLE_SCB_IRQ.c **** *******************************************************************************/
 425:Generated_Source\PSoC4/UART_BLE_SCB_IRQ.c **** void UART_BLE_SCB_IRQ_ClearPending(void)
 426:Generated_Source\PSoC4/UART_BLE_SCB_IRQ.c **** {
 515              		.loc 1 426 0
 516              		.cfi_startproc
 517              		@ args = 0, pretend = 0, frame = 0
 518              		@ frame_needed = 0, uses_anonymous_args = 0
 519              		@ link register save eliminated.
 427:Generated_Source\PSoC4/UART_BLE_SCB_IRQ.c ****     *UART_BLE_SCB_IRQ_INTC_CLR_PD = UART_BLE_SCB_IRQ__INTC_MASK;
 520              		.loc 1 427 0
ARM GAS  C:\Users\ERICHO~1\AppData\Local\Temp\ccTEweIY.s 			page 18


 521 0000 8022     		movs	r2, #128
 522 0002 5200     		lsls	r2, r2, #1
 523 0004 014B     		ldr	r3, .L45
 524 0006 1A60     		str	r2, [r3]
 428:Generated_Source\PSoC4/UART_BLE_SCB_IRQ.c **** }
 525              		.loc 1 428 0
 526              		@ sp needed
 527 0008 7047     		bx	lr
 528              	.L46:
 529 000a C046     		.align	2
 530              	.L45:
 531 000c 80E200E0 		.word	-536812928
 532              		.cfi_endproc
 533              	.LFE13:
 534              		.size	UART_BLE_SCB_IRQ_ClearPending, .-UART_BLE_SCB_IRQ_ClearPending
 535              		.comm	slider_pos_last,1,1
 536              		.comm	run_mode,1,1
 537              		.comm	Init_heading,2,2
 538              		.comm	Max_Lidar,2,2
 539              		.comm	Batt_volt,2,2
 540              		.comm	ESC_curr,2,2
 541              		.comm	motor_toggles,2,2
 542              		.comm	num_tasks,1,1
 543              		.comm	num_rx_bytes_lidar_buff,1,1
 544              		.comm	num_rx_bytes_lidar,1,1
 545              		.comm	LIDAR_UART_tmr,1,1
 546              		.comm	rx_bytes_lidar_buff,16,4
 547              		.comm	rx_bytes_lidar,16,4
 548              		.comm	num_rx_bytes_ble_buff,1,1
 549              		.comm	num_rx_bytes_ble,1,1
 550              		.comm	BLE_UART_tmr,1,1
 551              		.comm	rx_bytes_ble_buff,8,4
 552              		.comm	rx_bytes_ble,8,4
 553              		.comm	num_rx_bytes_dbg_buff,1,1
 554              		.comm	num_rx_bytes_dbg,1,1
 555              		.comm	rx_bytes_dbg_buff,8,4
 556              		.comm	rx_bytes_dbg,8,4
 557              		.text
 558              	.Letext0:
 559              		.file 2 "c:\\program files (x86)\\cypress\\psoc creator\\4.3\\psoc creator\\import\\gnu\\arm\\5.4.
 560              		.file 3 "c:\\program files (x86)\\cypress\\psoc creator\\4.3\\psoc creator\\import\\gnu\\arm\\5.4.
 561              		.file 4 "Generated_Source\\PSoC4/cytypes.h"
 562              		.file 5 "./main.h"
 563              		.file 6 "Generated_Source\\PSoC4\\UART_BLE_SPI_UART.h"
 564              		.file 7 "Generated_Source\\PSoC4/CyLib.h"