ARM GAS  C:\Users\SAIKAR~1\AppData\Local\Temp\ccGZQztg.s 			page 1


   1              		.syntax unified
   2              		.cpu cortex-m0
   3              		.fpu softvfp
   4              		.eabi_attribute 20, 1
   5              		.eabi_attribute 21, 1
   6              		.eabi_attribute 23, 3
   7              		.eabi_attribute 24, 1
   8              		.eabi_attribute 25, 1
   9              		.eabi_attribute 26, 1
  10              		.eabi_attribute 30, 1
  11              		.eabi_attribute 34, 0
  12              		.eabi_attribute 18, 4
  13              		.thumb
  14              		.syntax unified
  15              		.file	"WDT_ISR.c"
  16              		.text
  17              	.Ltext0:
  18              		.cfi_sections	.debug_frame
  19              		.section	.text.WDT_ISR_SetVector,"ax",%progbits
  20              		.align	2
  21              		.global	WDT_ISR_SetVector
  22              		.code	16
  23              		.thumb_func
  24              		.type	WDT_ISR_SetVector, %function
  25              	WDT_ISR_SetVector:
  26              	.LFB5:
  27              		.file 1 "Generated_Source\\PSoC4\\WDT_ISR.c"
   1:Generated_Source\PSoC4/WDT_ISR.c **** /*******************************************************************************
   2:Generated_Source\PSoC4/WDT_ISR.c **** * File Name: WDT_ISR.c  
   3:Generated_Source\PSoC4/WDT_ISR.c **** * Version 1.71
   4:Generated_Source\PSoC4/WDT_ISR.c **** *
   5:Generated_Source\PSoC4/WDT_ISR.c **** *  Description:
   6:Generated_Source\PSoC4/WDT_ISR.c **** *   API for controlling the state of an interrupt.
   7:Generated_Source\PSoC4/WDT_ISR.c **** *
   8:Generated_Source\PSoC4/WDT_ISR.c **** *
   9:Generated_Source\PSoC4/WDT_ISR.c **** *  Note:
  10:Generated_Source\PSoC4/WDT_ISR.c **** *
  11:Generated_Source\PSoC4/WDT_ISR.c **** ********************************************************************************
  12:Generated_Source\PSoC4/WDT_ISR.c **** * Copyright 2008-2015, Cypress Semiconductor Corporation.  All rights reserved.
  13:Generated_Source\PSoC4/WDT_ISR.c **** * You may use this file only in accordance with the license, terms, conditions, 
  14:Generated_Source\PSoC4/WDT_ISR.c **** * disclaimers, and limitations in the end user license agreement accompanying 
  15:Generated_Source\PSoC4/WDT_ISR.c **** * the software package with which this file was provided.
  16:Generated_Source\PSoC4/WDT_ISR.c **** *******************************************************************************/
  17:Generated_Source\PSoC4/WDT_ISR.c **** 
  18:Generated_Source\PSoC4/WDT_ISR.c **** 
  19:Generated_Source\PSoC4/WDT_ISR.c **** #include <cydevice_trm.h>
  20:Generated_Source\PSoC4/WDT_ISR.c **** #include <CyLib.h>
  21:Generated_Source\PSoC4/WDT_ISR.c **** #include <WDT_ISR.h>
  22:Generated_Source\PSoC4/WDT_ISR.c **** #include "cyapicallbacks.h"
  23:Generated_Source\PSoC4/WDT_ISR.c **** 
  24:Generated_Source\PSoC4/WDT_ISR.c **** #if !defined(WDT_ISR__REMOVED) /* Check for removal by optimization */
  25:Generated_Source\PSoC4/WDT_ISR.c **** 
  26:Generated_Source\PSoC4/WDT_ISR.c **** /*******************************************************************************
  27:Generated_Source\PSoC4/WDT_ISR.c **** *  Place your includes, defines and code here 
  28:Generated_Source\PSoC4/WDT_ISR.c **** ********************************************************************************/
  29:Generated_Source\PSoC4/WDT_ISR.c **** /* `#START WDT_ISR_intc` */
  30:Generated_Source\PSoC4/WDT_ISR.c **** #include "main.h"
ARM GAS  C:\Users\SAIKAR~1\AppData\Local\Temp\ccGZQztg.s 			page 2


  31:Generated_Source\PSoC4/WDT_ISR.c **** /* `#END` */
  32:Generated_Source\PSoC4/WDT_ISR.c **** 
  33:Generated_Source\PSoC4/WDT_ISR.c **** extern cyisraddress CyRamVectors[CYINT_IRQ_BASE + CY_NUM_INTERRUPTS];
  34:Generated_Source\PSoC4/WDT_ISR.c **** 
  35:Generated_Source\PSoC4/WDT_ISR.c **** /* Declared in startup, used to set unused interrupts to. */
  36:Generated_Source\PSoC4/WDT_ISR.c **** CY_ISR_PROTO(IntDefaultHandler);
  37:Generated_Source\PSoC4/WDT_ISR.c **** 
  38:Generated_Source\PSoC4/WDT_ISR.c **** 
  39:Generated_Source\PSoC4/WDT_ISR.c **** /*******************************************************************************
  40:Generated_Source\PSoC4/WDT_ISR.c **** * Function Name: WDT_ISR_Start
  41:Generated_Source\PSoC4/WDT_ISR.c **** ********************************************************************************
  42:Generated_Source\PSoC4/WDT_ISR.c **** *
  43:Generated_Source\PSoC4/WDT_ISR.c **** * Summary:
  44:Generated_Source\PSoC4/WDT_ISR.c **** *  Set up the interrupt and enable it. This function disables the interrupt, 
  45:Generated_Source\PSoC4/WDT_ISR.c **** *  sets the default interrupt vector, sets the priority from the value in the
  46:Generated_Source\PSoC4/WDT_ISR.c **** *  Design Wide Resources Interrupt Editor, then enables the interrupt to the 
  47:Generated_Source\PSoC4/WDT_ISR.c **** *  interrupt controller.
  48:Generated_Source\PSoC4/WDT_ISR.c **** *
  49:Generated_Source\PSoC4/WDT_ISR.c **** * Parameters:  
  50:Generated_Source\PSoC4/WDT_ISR.c **** *   None
  51:Generated_Source\PSoC4/WDT_ISR.c **** *
  52:Generated_Source\PSoC4/WDT_ISR.c **** * Return:
  53:Generated_Source\PSoC4/WDT_ISR.c **** *   None
  54:Generated_Source\PSoC4/WDT_ISR.c **** *
  55:Generated_Source\PSoC4/WDT_ISR.c **** *******************************************************************************/
  56:Generated_Source\PSoC4/WDT_ISR.c **** void WDT_ISR_Start(void)
  57:Generated_Source\PSoC4/WDT_ISR.c **** {
  58:Generated_Source\PSoC4/WDT_ISR.c ****     /* For all we know the interrupt is active. */
  59:Generated_Source\PSoC4/WDT_ISR.c ****     WDT_ISR_Disable();
  60:Generated_Source\PSoC4/WDT_ISR.c **** 
  61:Generated_Source\PSoC4/WDT_ISR.c ****     /* Set the ISR to point to the WDT_ISR Interrupt. */
  62:Generated_Source\PSoC4/WDT_ISR.c ****     WDT_ISR_SetVector(&WDT_ISR_Interrupt);
  63:Generated_Source\PSoC4/WDT_ISR.c **** 
  64:Generated_Source\PSoC4/WDT_ISR.c ****     /* Set the priority. */
  65:Generated_Source\PSoC4/WDT_ISR.c ****     WDT_ISR_SetPriority((uint8)WDT_ISR_INTC_PRIOR_NUMBER);
  66:Generated_Source\PSoC4/WDT_ISR.c **** 
  67:Generated_Source\PSoC4/WDT_ISR.c ****     /* Enable it. */
  68:Generated_Source\PSoC4/WDT_ISR.c ****     WDT_ISR_Enable();
  69:Generated_Source\PSoC4/WDT_ISR.c **** }
  70:Generated_Source\PSoC4/WDT_ISR.c **** 
  71:Generated_Source\PSoC4/WDT_ISR.c **** 
  72:Generated_Source\PSoC4/WDT_ISR.c **** /*******************************************************************************
  73:Generated_Source\PSoC4/WDT_ISR.c **** * Function Name: WDT_ISR_StartEx
  74:Generated_Source\PSoC4/WDT_ISR.c **** ********************************************************************************
  75:Generated_Source\PSoC4/WDT_ISR.c **** *
  76:Generated_Source\PSoC4/WDT_ISR.c **** * Summary:
  77:Generated_Source\PSoC4/WDT_ISR.c **** *  Sets up the interrupt and enables it. This function disables the interrupt,
  78:Generated_Source\PSoC4/WDT_ISR.c **** *  sets the interrupt vector based on the address passed in, sets the priority 
  79:Generated_Source\PSoC4/WDT_ISR.c **** *  from the value in the Design Wide Resources Interrupt Editor, then enables 
  80:Generated_Source\PSoC4/WDT_ISR.c **** *  the interrupt to the interrupt controller.
  81:Generated_Source\PSoC4/WDT_ISR.c **** *  
  82:Generated_Source\PSoC4/WDT_ISR.c **** *  When defining ISR functions, the CY_ISR and CY_ISR_PROTO macros should be 
  83:Generated_Source\PSoC4/WDT_ISR.c **** *  used to provide consistent definition across compilers:
  84:Generated_Source\PSoC4/WDT_ISR.c **** *  
  85:Generated_Source\PSoC4/WDT_ISR.c **** *  Function definition example:
  86:Generated_Source\PSoC4/WDT_ISR.c **** *   CY_ISR(MyISR)
  87:Generated_Source\PSoC4/WDT_ISR.c **** *   {
ARM GAS  C:\Users\SAIKAR~1\AppData\Local\Temp\ccGZQztg.s 			page 3


  88:Generated_Source\PSoC4/WDT_ISR.c **** *   }
  89:Generated_Source\PSoC4/WDT_ISR.c **** *   Function prototype example:
  90:Generated_Source\PSoC4/WDT_ISR.c **** *   CY_ISR_PROTO(MyISR);
  91:Generated_Source\PSoC4/WDT_ISR.c **** *
  92:Generated_Source\PSoC4/WDT_ISR.c **** * Parameters:  
  93:Generated_Source\PSoC4/WDT_ISR.c **** *   address: Address of the ISR to set in the interrupt vector table.
  94:Generated_Source\PSoC4/WDT_ISR.c **** *
  95:Generated_Source\PSoC4/WDT_ISR.c **** * Return:
  96:Generated_Source\PSoC4/WDT_ISR.c **** *   None
  97:Generated_Source\PSoC4/WDT_ISR.c **** *
  98:Generated_Source\PSoC4/WDT_ISR.c **** *******************************************************************************/
  99:Generated_Source\PSoC4/WDT_ISR.c **** void WDT_ISR_StartEx(cyisraddress address)
 100:Generated_Source\PSoC4/WDT_ISR.c **** {
 101:Generated_Source\PSoC4/WDT_ISR.c ****     /* For all we know the interrupt is active. */
 102:Generated_Source\PSoC4/WDT_ISR.c ****     WDT_ISR_Disable();
 103:Generated_Source\PSoC4/WDT_ISR.c **** 
 104:Generated_Source\PSoC4/WDT_ISR.c ****     /* Set the ISR to point to the WDT_ISR Interrupt. */
 105:Generated_Source\PSoC4/WDT_ISR.c ****     WDT_ISR_SetVector(address);
 106:Generated_Source\PSoC4/WDT_ISR.c **** 
 107:Generated_Source\PSoC4/WDT_ISR.c ****     /* Set the priority. */
 108:Generated_Source\PSoC4/WDT_ISR.c ****     WDT_ISR_SetPriority((uint8)WDT_ISR_INTC_PRIOR_NUMBER);
 109:Generated_Source\PSoC4/WDT_ISR.c **** 
 110:Generated_Source\PSoC4/WDT_ISR.c ****     /* Enable it. */
 111:Generated_Source\PSoC4/WDT_ISR.c ****     WDT_ISR_Enable();
 112:Generated_Source\PSoC4/WDT_ISR.c **** }
 113:Generated_Source\PSoC4/WDT_ISR.c **** 
 114:Generated_Source\PSoC4/WDT_ISR.c **** 
 115:Generated_Source\PSoC4/WDT_ISR.c **** /*******************************************************************************
 116:Generated_Source\PSoC4/WDT_ISR.c **** * Function Name: WDT_ISR_Stop
 117:Generated_Source\PSoC4/WDT_ISR.c **** ********************************************************************************
 118:Generated_Source\PSoC4/WDT_ISR.c **** *
 119:Generated_Source\PSoC4/WDT_ISR.c **** * Summary:
 120:Generated_Source\PSoC4/WDT_ISR.c **** *   Disables and removes the interrupt.
 121:Generated_Source\PSoC4/WDT_ISR.c **** *
 122:Generated_Source\PSoC4/WDT_ISR.c **** * Parameters:  
 123:Generated_Source\PSoC4/WDT_ISR.c **** *   None
 124:Generated_Source\PSoC4/WDT_ISR.c **** *
 125:Generated_Source\PSoC4/WDT_ISR.c **** * Return:
 126:Generated_Source\PSoC4/WDT_ISR.c **** *   None
 127:Generated_Source\PSoC4/WDT_ISR.c **** *
 128:Generated_Source\PSoC4/WDT_ISR.c **** *******************************************************************************/
 129:Generated_Source\PSoC4/WDT_ISR.c **** void WDT_ISR_Stop(void)
 130:Generated_Source\PSoC4/WDT_ISR.c **** {
 131:Generated_Source\PSoC4/WDT_ISR.c ****     /* Disable this interrupt. */
 132:Generated_Source\PSoC4/WDT_ISR.c ****     WDT_ISR_Disable();
 133:Generated_Source\PSoC4/WDT_ISR.c **** 
 134:Generated_Source\PSoC4/WDT_ISR.c ****     /* Set the ISR to point to the passive one. */
 135:Generated_Source\PSoC4/WDT_ISR.c ****     WDT_ISR_SetVector(&IntDefaultHandler);
 136:Generated_Source\PSoC4/WDT_ISR.c **** }
 137:Generated_Source\PSoC4/WDT_ISR.c **** 
 138:Generated_Source\PSoC4/WDT_ISR.c **** 
 139:Generated_Source\PSoC4/WDT_ISR.c **** /*******************************************************************************
 140:Generated_Source\PSoC4/WDT_ISR.c **** * Function Name: WDT_ISR_Interrupt
 141:Generated_Source\PSoC4/WDT_ISR.c **** ********************************************************************************
 142:Generated_Source\PSoC4/WDT_ISR.c **** *
 143:Generated_Source\PSoC4/WDT_ISR.c **** * Summary:
 144:Generated_Source\PSoC4/WDT_ISR.c **** *   The default Interrupt Service Routine for WDT_ISR.
ARM GAS  C:\Users\SAIKAR~1\AppData\Local\Temp\ccGZQztg.s 			page 4


 145:Generated_Source\PSoC4/WDT_ISR.c **** *
 146:Generated_Source\PSoC4/WDT_ISR.c **** *   Add custom code between the START and END comments to keep the next version
 147:Generated_Source\PSoC4/WDT_ISR.c **** *   of this file from over-writing your code.
 148:Generated_Source\PSoC4/WDT_ISR.c **** *
 149:Generated_Source\PSoC4/WDT_ISR.c **** *   Note You may use either the default ISR by using this API, or you may define
 150:Generated_Source\PSoC4/WDT_ISR.c **** *   your own separate ISR through ISR_StartEx().
 151:Generated_Source\PSoC4/WDT_ISR.c **** *
 152:Generated_Source\PSoC4/WDT_ISR.c **** * Parameters:  
 153:Generated_Source\PSoC4/WDT_ISR.c **** *   None
 154:Generated_Source\PSoC4/WDT_ISR.c **** *
 155:Generated_Source\PSoC4/WDT_ISR.c **** * Return:
 156:Generated_Source\PSoC4/WDT_ISR.c **** *   None
 157:Generated_Source\PSoC4/WDT_ISR.c **** *
 158:Generated_Source\PSoC4/WDT_ISR.c **** *******************************************************************************/
 159:Generated_Source\PSoC4/WDT_ISR.c **** CY_ISR(WDT_ISR_Interrupt)
 160:Generated_Source\PSoC4/WDT_ISR.c **** {
 161:Generated_Source\PSoC4/WDT_ISR.c ****     #ifdef WDT_ISR_INTERRUPT_INTERRUPT_CALLBACK
 162:Generated_Source\PSoC4/WDT_ISR.c ****         WDT_ISR_Interrupt_InterruptCallback();
 163:Generated_Source\PSoC4/WDT_ISR.c ****     #endif /* WDT_ISR_INTERRUPT_INTERRUPT_CALLBACK */ 
 164:Generated_Source\PSoC4/WDT_ISR.c **** 
 165:Generated_Source\PSoC4/WDT_ISR.c ****     /*  Place your Interrupt code here. */
 166:Generated_Source\PSoC4/WDT_ISR.c ****     /* `#START WDT_ISR_Interrupt` */
 167:Generated_Source\PSoC4/WDT_ISR.c ****     uint32_t reason = CySysWdtGetInterruptSource();
 168:Generated_Source\PSoC4/WDT_ISR.c ****     if (num_tasks<4) {
 169:Generated_Source\PSoC4/WDT_ISR.c ****         enqueue_task(TMR_UPDT,2);
 170:Generated_Source\PSoC4/WDT_ISR.c ****     }
 171:Generated_Source\PSoC4/WDT_ISR.c ****     WDT_ISR_ClearPending();
 172:Generated_Source\PSoC4/WDT_ISR.c ****     CySysWdtClearInterrupt(reason);
 173:Generated_Source\PSoC4/WDT_ISR.c **** 
 174:Generated_Source\PSoC4/WDT_ISR.c **** 
 175:Generated_Source\PSoC4/WDT_ISR.c ****     /* `#END` */
 176:Generated_Source\PSoC4/WDT_ISR.c **** }
 177:Generated_Source\PSoC4/WDT_ISR.c **** 
 178:Generated_Source\PSoC4/WDT_ISR.c **** 
 179:Generated_Source\PSoC4/WDT_ISR.c **** /*******************************************************************************
 180:Generated_Source\PSoC4/WDT_ISR.c **** * Function Name: WDT_ISR_SetVector
 181:Generated_Source\PSoC4/WDT_ISR.c **** ********************************************************************************
 182:Generated_Source\PSoC4/WDT_ISR.c **** *
 183:Generated_Source\PSoC4/WDT_ISR.c **** * Summary:
 184:Generated_Source\PSoC4/WDT_ISR.c **** *   Change the ISR vector for the Interrupt. Note calling WDT_ISR_Start
 185:Generated_Source\PSoC4/WDT_ISR.c **** *   will override any effect this method would have had. To set the vector 
 186:Generated_Source\PSoC4/WDT_ISR.c **** *   before the component has been started use WDT_ISR_StartEx instead.
 187:Generated_Source\PSoC4/WDT_ISR.c **** * 
 188:Generated_Source\PSoC4/WDT_ISR.c **** *   When defining ISR functions, the CY_ISR and CY_ISR_PROTO macros should be 
 189:Generated_Source\PSoC4/WDT_ISR.c **** *   used to provide consistent definition across compilers:
 190:Generated_Source\PSoC4/WDT_ISR.c **** *
 191:Generated_Source\PSoC4/WDT_ISR.c **** *   Function definition example:
 192:Generated_Source\PSoC4/WDT_ISR.c **** *   CY_ISR(MyISR)
 193:Generated_Source\PSoC4/WDT_ISR.c **** *   {
 194:Generated_Source\PSoC4/WDT_ISR.c **** *   }
 195:Generated_Source\PSoC4/WDT_ISR.c **** *
 196:Generated_Source\PSoC4/WDT_ISR.c **** *   Function prototype example:
 197:Generated_Source\PSoC4/WDT_ISR.c **** *     CY_ISR_PROTO(MyISR);
 198:Generated_Source\PSoC4/WDT_ISR.c **** *
 199:Generated_Source\PSoC4/WDT_ISR.c **** * Parameters:
 200:Generated_Source\PSoC4/WDT_ISR.c **** *   address: Address of the ISR to set in the interrupt vector table.
 201:Generated_Source\PSoC4/WDT_ISR.c **** *
ARM GAS  C:\Users\SAIKAR~1\AppData\Local\Temp\ccGZQztg.s 			page 5


 202:Generated_Source\PSoC4/WDT_ISR.c **** * Return:
 203:Generated_Source\PSoC4/WDT_ISR.c **** *   None
 204:Generated_Source\PSoC4/WDT_ISR.c **** *
 205:Generated_Source\PSoC4/WDT_ISR.c **** *******************************************************************************/
 206:Generated_Source\PSoC4/WDT_ISR.c **** void WDT_ISR_SetVector(cyisraddress address)
 207:Generated_Source\PSoC4/WDT_ISR.c **** {
  28              		.loc 1 207 0
  29              		.cfi_startproc
  30              		@ args = 0, pretend = 0, frame = 0
  31              		@ frame_needed = 0, uses_anonymous_args = 0
  32              		@ link register save eliminated.
  33              	.LVL0:
 208:Generated_Source\PSoC4/WDT_ISR.c ****     CyRamVectors[CYINT_IRQ_BASE + WDT_ISR__INTC_NUMBER] = address;
  34              		.loc 1 208 0
  35 0000 014B     		ldr	r3, .L2
  36 0002 D865     		str	r0, [r3, #92]
 209:Generated_Source\PSoC4/WDT_ISR.c **** }
  37              		.loc 1 209 0
  38              		@ sp needed
  39 0004 7047     		bx	lr
  40              	.L3:
  41 0006 C046     		.align	2
  42              	.L2:
  43 0008 00000000 		.word	CyRamVectors
  44              		.cfi_endproc
  45              	.LFE5:
  46              		.size	WDT_ISR_SetVector, .-WDT_ISR_SetVector
  47              		.section	.text.WDT_ISR_GetVector,"ax",%progbits
  48              		.align	2
  49              		.global	WDT_ISR_GetVector
  50              		.code	16
  51              		.thumb_func
  52              		.type	WDT_ISR_GetVector, %function
  53              	WDT_ISR_GetVector:
  54              	.LFB6:
 210:Generated_Source\PSoC4/WDT_ISR.c **** 
 211:Generated_Source\PSoC4/WDT_ISR.c **** 
 212:Generated_Source\PSoC4/WDT_ISR.c **** /*******************************************************************************
 213:Generated_Source\PSoC4/WDT_ISR.c **** * Function Name: WDT_ISR_GetVector
 214:Generated_Source\PSoC4/WDT_ISR.c **** ********************************************************************************
 215:Generated_Source\PSoC4/WDT_ISR.c **** *
 216:Generated_Source\PSoC4/WDT_ISR.c **** * Summary:
 217:Generated_Source\PSoC4/WDT_ISR.c **** *   Gets the "address" of the current ISR vector for the Interrupt.
 218:Generated_Source\PSoC4/WDT_ISR.c **** *
 219:Generated_Source\PSoC4/WDT_ISR.c **** * Parameters:
 220:Generated_Source\PSoC4/WDT_ISR.c **** *   None
 221:Generated_Source\PSoC4/WDT_ISR.c **** *
 222:Generated_Source\PSoC4/WDT_ISR.c **** * Return:
 223:Generated_Source\PSoC4/WDT_ISR.c **** *   Address of the ISR in the interrupt vector table.
 224:Generated_Source\PSoC4/WDT_ISR.c **** *
 225:Generated_Source\PSoC4/WDT_ISR.c **** *******************************************************************************/
 226:Generated_Source\PSoC4/WDT_ISR.c **** cyisraddress WDT_ISR_GetVector(void)
 227:Generated_Source\PSoC4/WDT_ISR.c **** {
  55              		.loc 1 227 0
  56              		.cfi_startproc
  57              		@ args = 0, pretend = 0, frame = 0
  58              		@ frame_needed = 0, uses_anonymous_args = 0
ARM GAS  C:\Users\SAIKAR~1\AppData\Local\Temp\ccGZQztg.s 			page 6


  59              		@ link register save eliminated.
 228:Generated_Source\PSoC4/WDT_ISR.c ****     return CyRamVectors[CYINT_IRQ_BASE + WDT_ISR__INTC_NUMBER];
  60              		.loc 1 228 0
  61 0000 014B     		ldr	r3, .L5
  62 0002 D86D     		ldr	r0, [r3, #92]
 229:Generated_Source\PSoC4/WDT_ISR.c **** }
  63              		.loc 1 229 0
  64              		@ sp needed
  65 0004 7047     		bx	lr
  66              	.L6:
  67 0006 C046     		.align	2
  68              	.L5:
  69 0008 00000000 		.word	CyRamVectors
  70              		.cfi_endproc
  71              	.LFE6:
  72              		.size	WDT_ISR_GetVector, .-WDT_ISR_GetVector
  73              		.section	.text.WDT_ISR_SetPriority,"ax",%progbits
  74              		.align	2
  75              		.global	WDT_ISR_SetPriority
  76              		.code	16
  77              		.thumb_func
  78              		.type	WDT_ISR_SetPriority, %function
  79              	WDT_ISR_SetPriority:
  80              	.LFB7:
 230:Generated_Source\PSoC4/WDT_ISR.c **** 
 231:Generated_Source\PSoC4/WDT_ISR.c **** 
 232:Generated_Source\PSoC4/WDT_ISR.c **** /*******************************************************************************
 233:Generated_Source\PSoC4/WDT_ISR.c **** * Function Name: WDT_ISR_SetPriority
 234:Generated_Source\PSoC4/WDT_ISR.c **** ********************************************************************************
 235:Generated_Source\PSoC4/WDT_ISR.c **** *
 236:Generated_Source\PSoC4/WDT_ISR.c **** * Summary:
 237:Generated_Source\PSoC4/WDT_ISR.c **** *   Sets the Priority of the Interrupt. 
 238:Generated_Source\PSoC4/WDT_ISR.c **** *
 239:Generated_Source\PSoC4/WDT_ISR.c **** *   Note calling WDT_ISR_Start or WDT_ISR_StartEx will 
 240:Generated_Source\PSoC4/WDT_ISR.c **** *   override any effect this API would have had. This API should only be called
 241:Generated_Source\PSoC4/WDT_ISR.c **** *   after WDT_ISR_Start or WDT_ISR_StartEx has been called. 
 242:Generated_Source\PSoC4/WDT_ISR.c **** *   To set the initial priority for the component, use the Design-Wide Resources
 243:Generated_Source\PSoC4/WDT_ISR.c **** *   Interrupt Editor.
 244:Generated_Source\PSoC4/WDT_ISR.c **** *
 245:Generated_Source\PSoC4/WDT_ISR.c **** *   Note This API has no effect on Non-maskable interrupt NMI).
 246:Generated_Source\PSoC4/WDT_ISR.c **** *
 247:Generated_Source\PSoC4/WDT_ISR.c **** * Parameters:
 248:Generated_Source\PSoC4/WDT_ISR.c **** *   priority: Priority of the interrupt, 0 being the highest priority
 249:Generated_Source\PSoC4/WDT_ISR.c **** *             PSoC 3 and PSoC 5LP: Priority is from 0 to 7.
 250:Generated_Source\PSoC4/WDT_ISR.c **** *             PSoC 4: Priority is from 0 to 3.
 251:Generated_Source\PSoC4/WDT_ISR.c **** *
 252:Generated_Source\PSoC4/WDT_ISR.c **** * Return:
 253:Generated_Source\PSoC4/WDT_ISR.c **** *   None
 254:Generated_Source\PSoC4/WDT_ISR.c **** *
 255:Generated_Source\PSoC4/WDT_ISR.c **** *******************************************************************************/
 256:Generated_Source\PSoC4/WDT_ISR.c **** void WDT_ISR_SetPriority(uint8 priority)
 257:Generated_Source\PSoC4/WDT_ISR.c **** {
  81              		.loc 1 257 0
  82              		.cfi_startproc
  83              		@ args = 0, pretend = 0, frame = 0
  84              		@ frame_needed = 0, uses_anonymous_args = 0
  85              	.LVL1:
ARM GAS  C:\Users\SAIKAR~1\AppData\Local\Temp\ccGZQztg.s 			page 7


  86 0000 10B5     		push	{r4, lr}
  87              		.cfi_def_cfa_offset 8
  88              		.cfi_offset 4, -8
  89              		.cfi_offset 14, -4
  90 0002 0400     		movs	r4, r0
  91              	.LVL2:
 258:Generated_Source\PSoC4/WDT_ISR.c **** 	uint8 interruptState;
 259:Generated_Source\PSoC4/WDT_ISR.c ****     uint32 priorityOffset = ((WDT_ISR__INTC_NUMBER % 4u) * 8u) + 6u;
 260:Generated_Source\PSoC4/WDT_ISR.c ****     
 261:Generated_Source\PSoC4/WDT_ISR.c **** 	interruptState = CyEnterCriticalSection();
  92              		.loc 1 261 0
  93 0004 FFF7FEFF 		bl	CyEnterCriticalSection
  94              	.LVL3:
 262:Generated_Source\PSoC4/WDT_ISR.c ****     *WDT_ISR_INTC_PRIOR = (*WDT_ISR_INTC_PRIOR & (uint32)(~(uint32)WDT_ISR__INTC_PRIOR_MASK)) |
  95              		.loc 1 262 0
  96 0008 044A     		ldr	r2, .L8
  97 000a 1368     		ldr	r3, [r2]
  98 000c 9B00     		lsls	r3, r3, #2
  99 000e 9B08     		lsrs	r3, r3, #2
 263:Generated_Source\PSoC4/WDT_ISR.c ****                                     ((uint32)priority << priorityOffset);
 100              		.loc 1 263 0
 101 0010 A407     		lsls	r4, r4, #30
 262:Generated_Source\PSoC4/WDT_ISR.c ****     *WDT_ISR_INTC_PRIOR = (*WDT_ISR_INTC_PRIOR & (uint32)(~(uint32)WDT_ISR__INTC_PRIOR_MASK)) |
 102              		.loc 1 262 0
 103 0012 1C43     		orrs	r4, r3
 104 0014 1460     		str	r4, [r2]
 264:Generated_Source\PSoC4/WDT_ISR.c **** 	CyExitCriticalSection(interruptState);
 105              		.loc 1 264 0
 106 0016 FFF7FEFF 		bl	CyExitCriticalSection
 107              	.LVL4:
 265:Generated_Source\PSoC4/WDT_ISR.c **** }
 108              		.loc 1 265 0
 109              		@ sp needed
 110 001a 10BD     		pop	{r4, pc}
 111              	.L9:
 112              		.align	2
 113              	.L8:
 114 001c 04E400E0 		.word	-536812540
 115              		.cfi_endproc
 116              	.LFE7:
 117              		.size	WDT_ISR_SetPriority, .-WDT_ISR_SetPriority
 118              		.section	.text.WDT_ISR_GetPriority,"ax",%progbits
 119              		.align	2
 120              		.global	WDT_ISR_GetPriority
 121              		.code	16
 122              		.thumb_func
 123              		.type	WDT_ISR_GetPriority, %function
 124              	WDT_ISR_GetPriority:
 125              	.LFB8:
 266:Generated_Source\PSoC4/WDT_ISR.c **** 
 267:Generated_Source\PSoC4/WDT_ISR.c **** 
 268:Generated_Source\PSoC4/WDT_ISR.c **** /*******************************************************************************
 269:Generated_Source\PSoC4/WDT_ISR.c **** * Function Name: WDT_ISR_GetPriority
 270:Generated_Source\PSoC4/WDT_ISR.c **** ********************************************************************************
 271:Generated_Source\PSoC4/WDT_ISR.c **** *
 272:Generated_Source\PSoC4/WDT_ISR.c **** * Summary:
 273:Generated_Source\PSoC4/WDT_ISR.c **** *   Gets the Priority of the Interrupt.
ARM GAS  C:\Users\SAIKAR~1\AppData\Local\Temp\ccGZQztg.s 			page 8


 274:Generated_Source\PSoC4/WDT_ISR.c **** *
 275:Generated_Source\PSoC4/WDT_ISR.c **** * Parameters:
 276:Generated_Source\PSoC4/WDT_ISR.c **** *   None
 277:Generated_Source\PSoC4/WDT_ISR.c **** *
 278:Generated_Source\PSoC4/WDT_ISR.c **** * Return:
 279:Generated_Source\PSoC4/WDT_ISR.c **** *   Priority of the interrupt, 0 being the highest priority
 280:Generated_Source\PSoC4/WDT_ISR.c **** *    PSoC 3 and PSoC 5LP: Priority is from 0 to 7.
 281:Generated_Source\PSoC4/WDT_ISR.c **** *    PSoC 4: Priority is from 0 to 3.
 282:Generated_Source\PSoC4/WDT_ISR.c **** *
 283:Generated_Source\PSoC4/WDT_ISR.c **** *******************************************************************************/
 284:Generated_Source\PSoC4/WDT_ISR.c **** uint8 WDT_ISR_GetPriority(void)
 285:Generated_Source\PSoC4/WDT_ISR.c **** {
 126              		.loc 1 285 0
 127              		.cfi_startproc
 128              		@ args = 0, pretend = 0, frame = 0
 129              		@ frame_needed = 0, uses_anonymous_args = 0
 130              		@ link register save eliminated.
 131              	.LVL5:
 286:Generated_Source\PSoC4/WDT_ISR.c ****     uint32 priority;
 287:Generated_Source\PSoC4/WDT_ISR.c **** 	uint32 priorityOffset = ((WDT_ISR__INTC_NUMBER % 4u) * 8u) + 6u;
 288:Generated_Source\PSoC4/WDT_ISR.c **** 
 289:Generated_Source\PSoC4/WDT_ISR.c ****     priority = (*WDT_ISR_INTC_PRIOR & WDT_ISR__INTC_PRIOR_MASK) >> priorityOffset;
 132              		.loc 1 289 0
 133 0000 014B     		ldr	r3, .L11
 134 0002 1868     		ldr	r0, [r3]
 135              	.LVL6:
 290:Generated_Source\PSoC4/WDT_ISR.c **** 
 291:Generated_Source\PSoC4/WDT_ISR.c ****     return (uint8)priority;
 136              		.loc 1 291 0
 137 0004 800F     		lsrs	r0, r0, #30
 138              	.LVL7:
 292:Generated_Source\PSoC4/WDT_ISR.c **** }
 139              		.loc 1 292 0
 140              		@ sp needed
 141 0006 7047     		bx	lr
 142              	.L12:
 143              		.align	2
 144              	.L11:
 145 0008 04E400E0 		.word	-536812540
 146              		.cfi_endproc
 147              	.LFE8:
 148              		.size	WDT_ISR_GetPriority, .-WDT_ISR_GetPriority
 149              		.section	.text.WDT_ISR_Enable,"ax",%progbits
 150              		.align	2
 151              		.global	WDT_ISR_Enable
 152              		.code	16
 153              		.thumb_func
 154              		.type	WDT_ISR_Enable, %function
 155              	WDT_ISR_Enable:
 156              	.LFB9:
 293:Generated_Source\PSoC4/WDT_ISR.c **** 
 294:Generated_Source\PSoC4/WDT_ISR.c **** 
 295:Generated_Source\PSoC4/WDT_ISR.c **** /*******************************************************************************
 296:Generated_Source\PSoC4/WDT_ISR.c **** * Function Name: WDT_ISR_Enable
 297:Generated_Source\PSoC4/WDT_ISR.c **** ********************************************************************************
 298:Generated_Source\PSoC4/WDT_ISR.c **** *
 299:Generated_Source\PSoC4/WDT_ISR.c **** * Summary:
ARM GAS  C:\Users\SAIKAR~1\AppData\Local\Temp\ccGZQztg.s 			page 9


 300:Generated_Source\PSoC4/WDT_ISR.c **** *   Enables the interrupt to the interrupt controller. Do not call this function
 301:Generated_Source\PSoC4/WDT_ISR.c **** *   unless ISR_Start() has been called or the functionality of the ISR_Start() 
 302:Generated_Source\PSoC4/WDT_ISR.c **** *   function, which sets the vector and the priority, has been called.
 303:Generated_Source\PSoC4/WDT_ISR.c **** *
 304:Generated_Source\PSoC4/WDT_ISR.c **** * Parameters:
 305:Generated_Source\PSoC4/WDT_ISR.c **** *   None
 306:Generated_Source\PSoC4/WDT_ISR.c **** *
 307:Generated_Source\PSoC4/WDT_ISR.c **** * Return:
 308:Generated_Source\PSoC4/WDT_ISR.c **** *   None
 309:Generated_Source\PSoC4/WDT_ISR.c **** *
 310:Generated_Source\PSoC4/WDT_ISR.c **** *******************************************************************************/
 311:Generated_Source\PSoC4/WDT_ISR.c **** void WDT_ISR_Enable(void)
 312:Generated_Source\PSoC4/WDT_ISR.c **** {
 157              		.loc 1 312 0
 158              		.cfi_startproc
 159              		@ args = 0, pretend = 0, frame = 0
 160              		@ frame_needed = 0, uses_anonymous_args = 0
 161              		@ link register save eliminated.
 313:Generated_Source\PSoC4/WDT_ISR.c ****     /* Enable the general interrupt. */
 314:Generated_Source\PSoC4/WDT_ISR.c ****     *WDT_ISR_INTC_SET_EN = WDT_ISR__INTC_MASK;
 162              		.loc 1 314 0
 163 0000 8022     		movs	r2, #128
 164 0002 014B     		ldr	r3, .L14
 165 0004 1A60     		str	r2, [r3]
 315:Generated_Source\PSoC4/WDT_ISR.c **** }
 166              		.loc 1 315 0
 167              		@ sp needed
 168 0006 7047     		bx	lr
 169              	.L15:
 170              		.align	2
 171              	.L14:
 172 0008 00E100E0 		.word	-536813312
 173              		.cfi_endproc
 174              	.LFE9:
 175              		.size	WDT_ISR_Enable, .-WDT_ISR_Enable
 176              		.section	.text.WDT_ISR_GetState,"ax",%progbits
 177              		.align	2
 178              		.global	WDT_ISR_GetState
 179              		.code	16
 180              		.thumb_func
 181              		.type	WDT_ISR_GetState, %function
 182              	WDT_ISR_GetState:
 183              	.LFB10:
 316:Generated_Source\PSoC4/WDT_ISR.c **** 
 317:Generated_Source\PSoC4/WDT_ISR.c **** 
 318:Generated_Source\PSoC4/WDT_ISR.c **** /*******************************************************************************
 319:Generated_Source\PSoC4/WDT_ISR.c **** * Function Name: WDT_ISR_GetState
 320:Generated_Source\PSoC4/WDT_ISR.c **** ********************************************************************************
 321:Generated_Source\PSoC4/WDT_ISR.c **** *
 322:Generated_Source\PSoC4/WDT_ISR.c **** * Summary:
 323:Generated_Source\PSoC4/WDT_ISR.c **** *   Gets the state (enabled, disabled) of the Interrupt.
 324:Generated_Source\PSoC4/WDT_ISR.c **** *
 325:Generated_Source\PSoC4/WDT_ISR.c **** * Parameters:
 326:Generated_Source\PSoC4/WDT_ISR.c **** *   None
 327:Generated_Source\PSoC4/WDT_ISR.c **** *
 328:Generated_Source\PSoC4/WDT_ISR.c **** * Return:
 329:Generated_Source\PSoC4/WDT_ISR.c **** *   1 if enabled, 0 if disabled.
ARM GAS  C:\Users\SAIKAR~1\AppData\Local\Temp\ccGZQztg.s 			page 10


 330:Generated_Source\PSoC4/WDT_ISR.c **** *
 331:Generated_Source\PSoC4/WDT_ISR.c **** *******************************************************************************/
 332:Generated_Source\PSoC4/WDT_ISR.c **** uint8 WDT_ISR_GetState(void)
 333:Generated_Source\PSoC4/WDT_ISR.c **** {
 184              		.loc 1 333 0
 185              		.cfi_startproc
 186              		@ args = 0, pretend = 0, frame = 0
 187              		@ frame_needed = 0, uses_anonymous_args = 0
 188              		@ link register save eliminated.
 334:Generated_Source\PSoC4/WDT_ISR.c ****     /* Get the state of the general interrupt. */
 335:Generated_Source\PSoC4/WDT_ISR.c ****     return ((*WDT_ISR_INTC_SET_EN & (uint32)WDT_ISR__INTC_MASK) != 0u) ? 1u:0u;
 189              		.loc 1 335 0
 190 0000 034B     		ldr	r3, .L19
 191 0002 1B68     		ldr	r3, [r3]
 192 0004 1B06     		lsls	r3, r3, #24
 193 0006 01D5     		bpl	.L18
 194 0008 0120     		movs	r0, #1
 195 000a 00E0     		b	.L17
 196              	.L18:
 197 000c 0020     		movs	r0, #0
 198              	.L17:
 336:Generated_Source\PSoC4/WDT_ISR.c **** }
 199              		.loc 1 336 0 discriminator 4
 200              		@ sp needed
 201 000e 7047     		bx	lr
 202              	.L20:
 203              		.align	2
 204              	.L19:
 205 0010 00E100E0 		.word	-536813312
 206              		.cfi_endproc
 207              	.LFE10:
 208              		.size	WDT_ISR_GetState, .-WDT_ISR_GetState
 209              		.section	.text.WDT_ISR_Disable,"ax",%progbits
 210              		.align	2
 211              		.global	WDT_ISR_Disable
 212              		.code	16
 213              		.thumb_func
 214              		.type	WDT_ISR_Disable, %function
 215              	WDT_ISR_Disable:
 216              	.LFB11:
 337:Generated_Source\PSoC4/WDT_ISR.c **** 
 338:Generated_Source\PSoC4/WDT_ISR.c **** 
 339:Generated_Source\PSoC4/WDT_ISR.c **** /*******************************************************************************
 340:Generated_Source\PSoC4/WDT_ISR.c **** * Function Name: WDT_ISR_Disable
 341:Generated_Source\PSoC4/WDT_ISR.c **** ********************************************************************************
 342:Generated_Source\PSoC4/WDT_ISR.c **** *
 343:Generated_Source\PSoC4/WDT_ISR.c **** * Summary:
 344:Generated_Source\PSoC4/WDT_ISR.c **** *   Disables the Interrupt in the interrupt controller.
 345:Generated_Source\PSoC4/WDT_ISR.c **** *
 346:Generated_Source\PSoC4/WDT_ISR.c **** * Parameters:
 347:Generated_Source\PSoC4/WDT_ISR.c **** *   None
 348:Generated_Source\PSoC4/WDT_ISR.c **** *
 349:Generated_Source\PSoC4/WDT_ISR.c **** * Return:
 350:Generated_Source\PSoC4/WDT_ISR.c **** *   None
 351:Generated_Source\PSoC4/WDT_ISR.c **** *
 352:Generated_Source\PSoC4/WDT_ISR.c **** *******************************************************************************/
 353:Generated_Source\PSoC4/WDT_ISR.c **** void WDT_ISR_Disable(void)
ARM GAS  C:\Users\SAIKAR~1\AppData\Local\Temp\ccGZQztg.s 			page 11


 354:Generated_Source\PSoC4/WDT_ISR.c **** {
 217              		.loc 1 354 0
 218              		.cfi_startproc
 219              		@ args = 0, pretend = 0, frame = 0
 220              		@ frame_needed = 0, uses_anonymous_args = 0
 221              		@ link register save eliminated.
 355:Generated_Source\PSoC4/WDT_ISR.c ****     /* Disable the general interrupt. */
 356:Generated_Source\PSoC4/WDT_ISR.c ****     *WDT_ISR_INTC_CLR_EN = WDT_ISR__INTC_MASK;
 222              		.loc 1 356 0
 223 0000 8022     		movs	r2, #128
 224 0002 014B     		ldr	r3, .L22
 225 0004 1A60     		str	r2, [r3]
 357:Generated_Source\PSoC4/WDT_ISR.c **** }
 226              		.loc 1 357 0
 227              		@ sp needed
 228 0006 7047     		bx	lr
 229              	.L23:
 230              		.align	2
 231              	.L22:
 232 0008 80E100E0 		.word	-536813184
 233              		.cfi_endproc
 234              	.LFE11:
 235              		.size	WDT_ISR_Disable, .-WDT_ISR_Disable
 236              		.section	.text.WDT_ISR_Start,"ax",%progbits
 237              		.align	2
 238              		.global	WDT_ISR_Start
 239              		.code	16
 240              		.thumb_func
 241              		.type	WDT_ISR_Start, %function
 242              	WDT_ISR_Start:
 243              	.LFB1:
  57:Generated_Source\PSoC4/WDT_ISR.c ****     /* For all we know the interrupt is active. */
 244              		.loc 1 57 0
 245              		.cfi_startproc
 246              		@ args = 0, pretend = 0, frame = 0
 247              		@ frame_needed = 0, uses_anonymous_args = 0
 248 0000 10B5     		push	{r4, lr}
 249              		.cfi_def_cfa_offset 8
 250              		.cfi_offset 4, -8
 251              		.cfi_offset 14, -4
  59:Generated_Source\PSoC4/WDT_ISR.c **** 
 252              		.loc 1 59 0
 253 0002 FFF7FEFF 		bl	WDT_ISR_Disable
 254              	.LVL8:
  62:Generated_Source\PSoC4/WDT_ISR.c **** 
 255              		.loc 1 62 0
 256 0006 0448     		ldr	r0, .L25
 257 0008 FFF7FEFF 		bl	WDT_ISR_SetVector
 258              	.LVL9:
  65:Generated_Source\PSoC4/WDT_ISR.c **** 
 259              		.loc 1 65 0
 260 000c 0320     		movs	r0, #3
 261 000e FFF7FEFF 		bl	WDT_ISR_SetPriority
 262              	.LVL10:
  68:Generated_Source\PSoC4/WDT_ISR.c **** }
 263              		.loc 1 68 0
 264 0012 FFF7FEFF 		bl	WDT_ISR_Enable
ARM GAS  C:\Users\SAIKAR~1\AppData\Local\Temp\ccGZQztg.s 			page 12


 265              	.LVL11:
  69:Generated_Source\PSoC4/WDT_ISR.c **** 
 266              		.loc 1 69 0
 267              		@ sp needed
 268 0016 10BD     		pop	{r4, pc}
 269              	.L26:
 270              		.align	2
 271              	.L25:
 272 0018 00000000 		.word	WDT_ISR_Interrupt
 273              		.cfi_endproc
 274              	.LFE1:
 275              		.size	WDT_ISR_Start, .-WDT_ISR_Start
 276              		.section	.text.WDT_ISR_StartEx,"ax",%progbits
 277              		.align	2
 278              		.global	WDT_ISR_StartEx
 279              		.code	16
 280              		.thumb_func
 281              		.type	WDT_ISR_StartEx, %function
 282              	WDT_ISR_StartEx:
 283              	.LFB2:
 100:Generated_Source\PSoC4/WDT_ISR.c ****     /* For all we know the interrupt is active. */
 284              		.loc 1 100 0
 285              		.cfi_startproc
 286              		@ args = 0, pretend = 0, frame = 0
 287              		@ frame_needed = 0, uses_anonymous_args = 0
 288              	.LVL12:
 289 0000 10B5     		push	{r4, lr}
 290              		.cfi_def_cfa_offset 8
 291              		.cfi_offset 4, -8
 292              		.cfi_offset 14, -4
 293 0002 0400     		movs	r4, r0
 102:Generated_Source\PSoC4/WDT_ISR.c **** 
 294              		.loc 1 102 0
 295 0004 FFF7FEFF 		bl	WDT_ISR_Disable
 296              	.LVL13:
 105:Generated_Source\PSoC4/WDT_ISR.c **** 
 297              		.loc 1 105 0
 298 0008 2000     		movs	r0, r4
 299 000a FFF7FEFF 		bl	WDT_ISR_SetVector
 300              	.LVL14:
 108:Generated_Source\PSoC4/WDT_ISR.c **** 
 301              		.loc 1 108 0
 302 000e 0320     		movs	r0, #3
 303 0010 FFF7FEFF 		bl	WDT_ISR_SetPriority
 304              	.LVL15:
 111:Generated_Source\PSoC4/WDT_ISR.c **** }
 305              		.loc 1 111 0
 306 0014 FFF7FEFF 		bl	WDT_ISR_Enable
 307              	.LVL16:
 112:Generated_Source\PSoC4/WDT_ISR.c **** 
 308              		.loc 1 112 0
 309              		@ sp needed
 310              	.LVL17:
 311 0018 10BD     		pop	{r4, pc}
 312              		.cfi_endproc
 313              	.LFE2:
 314              		.size	WDT_ISR_StartEx, .-WDT_ISR_StartEx
ARM GAS  C:\Users\SAIKAR~1\AppData\Local\Temp\ccGZQztg.s 			page 13


 315 001a C046     		.section	.text.WDT_ISR_Stop,"ax",%progbits
 316              		.align	2
 317              		.global	WDT_ISR_Stop
 318              		.code	16
 319              		.thumb_func
 320              		.type	WDT_ISR_Stop, %function
 321              	WDT_ISR_Stop:
 322              	.LFB3:
 130:Generated_Source\PSoC4/WDT_ISR.c ****     /* Disable this interrupt. */
 323              		.loc 1 130 0
 324              		.cfi_startproc
 325              		@ args = 0, pretend = 0, frame = 0
 326              		@ frame_needed = 0, uses_anonymous_args = 0
 327 0000 10B5     		push	{r4, lr}
 328              		.cfi_def_cfa_offset 8
 329              		.cfi_offset 4, -8
 330              		.cfi_offset 14, -4
 132:Generated_Source\PSoC4/WDT_ISR.c **** 
 331              		.loc 1 132 0
 332 0002 FFF7FEFF 		bl	WDT_ISR_Disable
 333              	.LVL18:
 135:Generated_Source\PSoC4/WDT_ISR.c **** }
 334              		.loc 1 135 0
 335 0006 0248     		ldr	r0, .L29
 336 0008 FFF7FEFF 		bl	WDT_ISR_SetVector
 337              	.LVL19:
 136:Generated_Source\PSoC4/WDT_ISR.c **** 
 338              		.loc 1 136 0
 339              		@ sp needed
 340 000c 10BD     		pop	{r4, pc}
 341              	.L30:
 342 000e C046     		.align	2
 343              	.L29:
 344 0010 00000000 		.word	IntDefaultHandler
 345              		.cfi_endproc
 346              	.LFE3:
 347              		.size	WDT_ISR_Stop, .-WDT_ISR_Stop
 348              		.section	.text.WDT_ISR_SetPending,"ax",%progbits
 349              		.align	2
 350              		.global	WDT_ISR_SetPending
 351              		.code	16
 352              		.thumb_func
 353              		.type	WDT_ISR_SetPending, %function
 354              	WDT_ISR_SetPending:
 355              	.LFB12:
 358:Generated_Source\PSoC4/WDT_ISR.c **** 
 359:Generated_Source\PSoC4/WDT_ISR.c **** 
 360:Generated_Source\PSoC4/WDT_ISR.c **** /*******************************************************************************
 361:Generated_Source\PSoC4/WDT_ISR.c **** * Function Name: WDT_ISR_SetPending
 362:Generated_Source\PSoC4/WDT_ISR.c **** ********************************************************************************
 363:Generated_Source\PSoC4/WDT_ISR.c **** *
 364:Generated_Source\PSoC4/WDT_ISR.c **** * Summary:
 365:Generated_Source\PSoC4/WDT_ISR.c **** *   Causes the Interrupt to enter the pending state, a software method of
 366:Generated_Source\PSoC4/WDT_ISR.c **** *   generating the interrupt.
 367:Generated_Source\PSoC4/WDT_ISR.c **** *
 368:Generated_Source\PSoC4/WDT_ISR.c **** * Parameters:
 369:Generated_Source\PSoC4/WDT_ISR.c **** *   None
ARM GAS  C:\Users\SAIKAR~1\AppData\Local\Temp\ccGZQztg.s 			page 14


 370:Generated_Source\PSoC4/WDT_ISR.c **** *
 371:Generated_Source\PSoC4/WDT_ISR.c **** * Return:
 372:Generated_Source\PSoC4/WDT_ISR.c **** *   None
 373:Generated_Source\PSoC4/WDT_ISR.c **** *
 374:Generated_Source\PSoC4/WDT_ISR.c **** * Side Effects:
 375:Generated_Source\PSoC4/WDT_ISR.c **** *   If interrupts are enabled and the interrupt is set up properly, the ISR is
 376:Generated_Source\PSoC4/WDT_ISR.c **** *   entered (depending on the priority of this interrupt and other pending 
 377:Generated_Source\PSoC4/WDT_ISR.c **** *   interrupts).
 378:Generated_Source\PSoC4/WDT_ISR.c **** *
 379:Generated_Source\PSoC4/WDT_ISR.c **** *******************************************************************************/
 380:Generated_Source\PSoC4/WDT_ISR.c **** void WDT_ISR_SetPending(void)
 381:Generated_Source\PSoC4/WDT_ISR.c **** {
 356              		.loc 1 381 0
 357              		.cfi_startproc
 358              		@ args = 0, pretend = 0, frame = 0
 359              		@ frame_needed = 0, uses_anonymous_args = 0
 360              		@ link register save eliminated.
 382:Generated_Source\PSoC4/WDT_ISR.c ****     *WDT_ISR_INTC_SET_PD = WDT_ISR__INTC_MASK;
 361              		.loc 1 382 0
 362 0000 8022     		movs	r2, #128
 363 0002 014B     		ldr	r3, .L32
 364 0004 1A60     		str	r2, [r3]
 383:Generated_Source\PSoC4/WDT_ISR.c **** }
 365              		.loc 1 383 0
 366              		@ sp needed
 367 0006 7047     		bx	lr
 368              	.L33:
 369              		.align	2
 370              	.L32:
 371 0008 00E200E0 		.word	-536813056
 372              		.cfi_endproc
 373              	.LFE12:
 374              		.size	WDT_ISR_SetPending, .-WDT_ISR_SetPending
 375              		.section	.text.WDT_ISR_ClearPending,"ax",%progbits
 376              		.align	2
 377              		.global	WDT_ISR_ClearPending
 378              		.code	16
 379              		.thumb_func
 380              		.type	WDT_ISR_ClearPending, %function
 381              	WDT_ISR_ClearPending:
 382              	.LFB13:
 384:Generated_Source\PSoC4/WDT_ISR.c **** 
 385:Generated_Source\PSoC4/WDT_ISR.c **** 
 386:Generated_Source\PSoC4/WDT_ISR.c **** /*******************************************************************************
 387:Generated_Source\PSoC4/WDT_ISR.c **** * Function Name: WDT_ISR_ClearPending
 388:Generated_Source\PSoC4/WDT_ISR.c **** ********************************************************************************
 389:Generated_Source\PSoC4/WDT_ISR.c **** *
 390:Generated_Source\PSoC4/WDT_ISR.c **** * Summary:
 391:Generated_Source\PSoC4/WDT_ISR.c **** *   Clears a pending interrupt in the interrupt controller.
 392:Generated_Source\PSoC4/WDT_ISR.c **** *
 393:Generated_Source\PSoC4/WDT_ISR.c **** *   Note Some interrupt sources are clear-on-read and require the block 
 394:Generated_Source\PSoC4/WDT_ISR.c **** *   interrupt/status register to be read/cleared with the appropriate block API 
 395:Generated_Source\PSoC4/WDT_ISR.c **** *   (GPIO, UART, and so on). Otherwise the ISR will continue to remain in 
 396:Generated_Source\PSoC4/WDT_ISR.c **** *   pending state even though the interrupt itself is cleared using this API.
 397:Generated_Source\PSoC4/WDT_ISR.c **** *
 398:Generated_Source\PSoC4/WDT_ISR.c **** * Parameters:
 399:Generated_Source\PSoC4/WDT_ISR.c **** *   None
ARM GAS  C:\Users\SAIKAR~1\AppData\Local\Temp\ccGZQztg.s 			page 15


 400:Generated_Source\PSoC4/WDT_ISR.c **** *
 401:Generated_Source\PSoC4/WDT_ISR.c **** * Return:
 402:Generated_Source\PSoC4/WDT_ISR.c **** *   None
 403:Generated_Source\PSoC4/WDT_ISR.c **** *
 404:Generated_Source\PSoC4/WDT_ISR.c **** *******************************************************************************/
 405:Generated_Source\PSoC4/WDT_ISR.c **** void WDT_ISR_ClearPending(void)
 406:Generated_Source\PSoC4/WDT_ISR.c **** {
 383              		.loc 1 406 0
 384              		.cfi_startproc
 385              		@ args = 0, pretend = 0, frame = 0
 386              		@ frame_needed = 0, uses_anonymous_args = 0
 387              		@ link register save eliminated.
 407:Generated_Source\PSoC4/WDT_ISR.c ****     *WDT_ISR_INTC_CLR_PD = WDT_ISR__INTC_MASK;
 388              		.loc 1 407 0
 389 0000 8022     		movs	r2, #128
 390 0002 014B     		ldr	r3, .L35
 391 0004 1A60     		str	r2, [r3]
 408:Generated_Source\PSoC4/WDT_ISR.c **** }
 392              		.loc 1 408 0
 393              		@ sp needed
 394 0006 7047     		bx	lr
 395              	.L36:
 396              		.align	2
 397              	.L35:
 398 0008 80E200E0 		.word	-536812928
 399              		.cfi_endproc
 400              	.LFE13:
 401              		.size	WDT_ISR_ClearPending, .-WDT_ISR_ClearPending
 402              		.section	.text.WDT_ISR_Interrupt,"ax",%progbits
 403              		.align	2
 404              		.global	WDT_ISR_Interrupt
 405              		.code	16
 406              		.thumb_func
 407              		.type	WDT_ISR_Interrupt, %function
 408              	WDT_ISR_Interrupt:
 409              	.LFB4:
 160:Generated_Source\PSoC4/WDT_ISR.c ****     #ifdef WDT_ISR_INTERRUPT_INTERRUPT_CALLBACK
 410              		.loc 1 160 0
 411              		.cfi_startproc
 412              		@ args = 0, pretend = 0, frame = 0
 413              		@ frame_needed = 0, uses_anonymous_args = 0
 414 0000 10B5     		push	{r4, lr}
 415              		.cfi_def_cfa_offset 8
 416              		.cfi_offset 4, -8
 417              		.cfi_offset 14, -4
 167:Generated_Source\PSoC4/WDT_ISR.c ****     if (num_tasks<4) {
 418              		.loc 1 167 0
 419 0002 FFF7FEFF 		bl	CySysWdtGetInterruptSource
 420              	.LVL20:
 421 0006 0400     		movs	r4, r0
 422              	.LVL21:
 168:Generated_Source\PSoC4/WDT_ISR.c ****         enqueue_task(TMR_UPDT,2);
 423              		.loc 1 168 0
 424 0008 074B     		ldr	r3, .L39
 425 000a 1B78     		ldrb	r3, [r3]
 426 000c DBB2     		uxtb	r3, r3
 427 000e 032B     		cmp	r3, #3
ARM GAS  C:\Users\SAIKAR~1\AppData\Local\Temp\ccGZQztg.s 			page 16


 428 0010 03D8     		bhi	.L38
 169:Generated_Source\PSoC4/WDT_ISR.c ****     }
 429              		.loc 1 169 0
 430 0012 0221     		movs	r1, #2
 431 0014 0020     		movs	r0, #0
 432              	.LVL22:
 433 0016 FFF7FEFF 		bl	enqueue_task
 434              	.LVL23:
 435              	.L38:
 171:Generated_Source\PSoC4/WDT_ISR.c ****     CySysWdtClearInterrupt(reason);
 436              		.loc 1 171 0
 437 001a FFF7FEFF 		bl	WDT_ISR_ClearPending
 438              	.LVL24:
 172:Generated_Source\PSoC4/WDT_ISR.c **** 
 439              		.loc 1 172 0
 440 001e 2000     		movs	r0, r4
 441 0020 FFF7FEFF 		bl	CySysWdtClearInterrupt
 442              	.LVL25:
 176:Generated_Source\PSoC4/WDT_ISR.c **** 
 443              		.loc 1 176 0
 444              		@ sp needed
 445              	.LVL26:
 446 0024 10BD     		pop	{r4, pc}
 447              	.L40:
 448 0026 C046     		.align	2
 449              	.L39:
 450 0028 00000000 		.word	num_tasks
 451              		.cfi_endproc
 452              	.LFE4:
 453              		.size	WDT_ISR_Interrupt, .-WDT_ISR_Interrupt
 454              		.comm	num_tasks,1,1
 455              		.comm	GPS_UART_tmr,1,1
 456              		.comm	num_rx_bytes_FC,1,1
 457              		.comm	num_rx_bytes_FC_buff,1,1
 458              		.comm	rx_bytes_FC_buff,5,4
 459              		.comm	rx_bytes_FC,6,4
 460              		.comm	num_rx_bytes_gps_buff,1,1
 461              		.comm	num_rx_bytes_gps,1,1
 462              		.comm	rx_bytes_gps_buff,72,4
 463              		.comm	rx_bytes_gps,72,4
 464              		.comm	num_rx_bytes_dbg_buff,1,1
 465              		.comm	num_rx_bytes_dbg,1,1
 466              		.comm	rx_bytes_dbg_buff,16,4
 467              		.comm	rx_bytes_dbg,16,4
 468              		.text
 469              	.Letext0:
 470              		.file 2 "e:\\acads\\uwm\\psoc creator\\4.4\\psoc creator\\import\\gnu\\arm\\5.4.1\\arm-none-eabi\\
 471              		.file 3 "e:\\acads\\uwm\\psoc creator\\4.4\\psoc creator\\import\\gnu\\arm\\5.4.1\\arm-none-eabi\\
 472              		.file 4 "Generated_Source\\PSoC4/cytypes.h"
 473              		.file 5 "./main.h"
 474              		.file 6 "Generated_Source\\PSoC4/CyLib.h"
 475              		.file 7 "Generated_Source\\PSoC4/CyLFClk.h"